

Microchip MPLAB XC8 Assembler V2.10 build 88905656 
                                                                                               Sat Nov 09 00:16:48 2019

Microchip MPLAB XC8 C Compiler v2.10 (Free license) build 20190730164152 Og1 
     1                           	processor	16LF1559
     2                           	opt	pw 120
     3                           	opt	flic
     4                           	psect	idataBANK0,global,class=CODE,delta=2
     5                           	psect	idataBANK1,global,class=CODE,delta=2
     6                           	psect	stringtext1,global,class=STRCODE,delta=2
     7                           	psect	stringtext2,global,class=STRCODE,delta=2
     8                           	psect	stringtext3,global,class=STRCODE,delta=2
     9                           	psect	nvBANK0,global,class=BANK0,space=1,delta=1
    10                           	psect	nvBANK1,global,class=BANK1,space=1,delta=1
    11                           	psect	cinit,global,class=CODE,merge=1,delta=2
    12                           	psect	bssCOMMON,global,class=COMMON,space=1,delta=1
    13                           	psect	bssBANK0,global,class=BANK0,space=1,delta=1
    14                           	psect	dataBANK0,global,class=BANK0,space=1,delta=1
    15                           	psect	bssBANK1,global,class=BANK1,space=1,delta=1
    16                           	psect	dataBANK1,global,class=BANK1,space=1,delta=1
    17                           	psect	inittext,global,class=CODE,delta=2
    18                           	psect	clrtext,global,class=CODE,delta=2
    19                           	psect	cstackCOMMON,global,class=COMMON,space=1,delta=1
    20                           	psect	cstackBANK0,global,class=BANK0,space=1,delta=1
    21                           	psect	maintext,global,class=CODE,merge=1,split=1,delta=2
    22                           	psect	text1,local,class=CODE,merge=1,delta=2
    23                           	psect	text2,local,class=CODE,merge=1,delta=2
    24                           	psect	text3,local,class=CODE,merge=1,delta=2
    25                           	psect	text4,local,class=CODE,merge=1,delta=2
    26                           	psect	text5,local,class=CODE,merge=1,delta=2
    27                           	psect	text6,local,class=CODE,merge=1,delta=2
    28                           	psect	text7,local,class=CODE,merge=1,delta=2
    29                           	psect	text8,local,class=CODE,merge=1,delta=2
    30                           	psect	text9,local,class=CODE,merge=1,delta=2
    31                           	psect	text10,local,class=CODE,merge=1,delta=2
    32                           	psect	text11,local,class=CODE,merge=1,delta=2
    33                           	psect	text12,local,class=CODE,merge=1,delta=2,group=2
    34                           	psect	text13,local,class=CODE,merge=1,delta=2
    35                           	psect	text14,local,class=CODE,merge=1,delta=2
    36                           	psect	text15,local,class=CODE,merge=1,delta=2
    37                           	psect	text16,local,class=CODE,merge=1,delta=2
    38                           	psect	text17,local,class=CODE,merge=1,delta=2
    39                           	psect	text18,local,class=CODE,merge=1,delta=2
    40                           	psect	text19,local,class=CODE,merge=1,delta=2
    41                           	psect	text20,local,class=CODE,merge=1,delta=2
    42                           	psect	text21,local,class=CODE,merge=1,delta=2
    43                           	psect	text22,local,class=CODE,merge=1,delta=2
    44                           	psect	text23,local,class=CODE,merge=1,delta=2
    45                           	psect	text24,local,class=CODE,merge=1,delta=2
    46                           	psect	text25,local,class=CODE,merge=1,inline,delta=2
    47                           	psect	text26,local,class=CODE,merge=1,delta=2
    48                           	psect	text27,local,class=CODE,merge=1,delta=2
    49                           	psect	text28,local,class=CODE,merge=1,inline,delta=2
    50                           	psect	text29,local,class=CODE,merge=1,delta=2
    51                           	psect	text30,local,class=CODE,merge=1,delta=2
    52                           	psect	text31,local,class=CODE,merge=1,delta=2
    53                           	psect	text32,local,class=CODE,merge=1,delta=2
    54                           	psect	text33,local,class=CODE,merge=1,inline,delta=2
    55                           	psect	text34,local,class=CODE,merge=1,inline,delta=2
    56                           	psect	text35,local,class=CODE,merge=1,delta=2
    57                           	psect	text36,local,class=CODE,merge=1,delta=2
    58                           	psect	text37,local,class=CODE,merge=1,delta=2
    59                           	psect	text38,local,class=CODE,merge=1,delta=2
    60                           	psect	text39,local,class=CODE,merge=1,delta=2
    61                           	psect	text40,local,class=CODE,merge=1,delta=2
    62                           	psect	text41,local,class=CODE,merge=1,inline,delta=2
    63                           	psect	text42,local,class=CODE,merge=1,delta=2
    64                           	psect	text43,local,class=CODE,merge=1,inline,delta=2
    65                           	psect	text44,local,class=CODE,merge=1,delta=2
    66                           	psect	text45,local,class=CODE,merge=1,delta=2,group=2
    67                           	psect	text46,local,class=CODE,merge=1,inline,delta=2
    68                           	psect	text47,local,class=CODE,merge=1,inline,delta=2
    69                           	psect	text48,local,class=CODE,merge=1,inline,delta=2
    70                           	psect	text49,local,class=CODE,merge=1,delta=2
    71                           	psect	text50,local,class=CODE,merge=1,delta=2
    72                           	psect	text51,local,class=CODE,merge=1,delta=2
    73                           	psect	text52,local,class=CODE,merge=1,delta=2
    74                           	psect	text53,local,class=CODE,merge=1,delta=2
    75                           	psect	text54,local,class=CODE,merge=1,delta=2
    76                           	psect	text55,local,class=CODE,merge=1,delta=2
    77                           	psect	text56,local,class=CODE,merge=1,delta=2
    78                           	psect	text57,local,class=CODE,merge=1,delta=2
    79                           	psect	text58,local,class=CODE,merge=1,delta=2
    80                           	psect	text59,local,class=CODE,merge=1,delta=2
    81                           	psect	text60,local,class=CODE,merge=1,delta=2
    82                           	psect	text61,local,class=CODE,merge=1,delta=2
    83                           	psect	text62,local,class=CODE,merge=1,delta=2
    84                           	psect	text63,local,class=CODE,merge=1,delta=2
    85                           	psect	text64,local,class=CODE,merge=1,delta=2
    86                           	psect	text65,local,class=CODE,merge=1,delta=2
    87                           	psect	text66,local,class=CODE,merge=1,delta=2
    88                           	psect	text67,local,class=CODE,merge=1,delta=2
    89                           	psect	text68,local,class=CODE,merge=1,delta=2,group=1
    90                           	psect	text69,local,class=CODE,merge=1,delta=2
    91                           	psect	text70,local,class=CODE,merge=1,delta=2
    92                           	psect	text71,local,class=CODE,merge=1,delta=2
    93                           	psect	text72,local,class=CODE,merge=1,delta=2
    94                           	psect	text73,local,class=CODE,merge=1,delta=2
    95                           	psect	intentry,global,class=CODE,delta=2
    96                           	psect	text75,local,class=CODE,merge=1,delta=2
    97                           	psect	text76,local,class=CODE,merge=1,delta=2
    98                           	psect	text77,local,class=CODE,merge=1,delta=2
    99                           	psect	text78,local,class=CODE,merge=1,delta=2
   100                           	psect	text79,local,class=CODE,merge=1,delta=2
   101                           	psect	text80,local,class=CODE,merge=1,delta=2
   102                           	dabs	1,0x7E,2
   103  0000                     
   104                           ; Version 2.10
   105                           ; Generated 31/07/2019 GMT
   106                           ; 
   107                           ; Copyright © 2019, Microchip Technology Inc. and its subsidiaries ("Microchip")
   108                           ; All rights reserved.
   109                           ; 
   110                           ; This software is developed by Microchip Technology Inc. and its subsidiaries ("Microch
      +                          ip").
   111                           ; 
   112                           ; Redistribution and use in source and binary forms, with or without modification, are
   113                           ; permitted provided that the following conditions are met:
   114                           ; 
   115                           ;     1. Redistributions of source code must retain the above copyright notice, this lis
      +                          t of
   116                           ;        conditions and the following disclaimer.
   117                           ; 
   118                           ;     2. Redistributions in binary form must reproduce the above copyright notice, this 
      +                          list
   119                           ;        of conditions and the following disclaimer in the documentation and/or other
   120                           ;        materials provided with the distribution.
   121                           ; 
   122                           ;     3. Microchip's name may not be used to endorse or promote products derived from th
      +                          is
   123                           ;        software without specific prior written permission.
   124                           ; 
   125                           ; THIS SOFTWARE IS PROVIDED BY MICROCHIP "AS IS" AND ANY EXPRESS OR IMPLIED WARRANTIES,
   126                           ; INCLUDING, BUT NOT LIMITED TO, THE IMPLIED WARRANTIES OF MERCHANTABILITY AND FITNESS F
      +                          OR
   127                           ; PURPOSE ARE DISCLAIMED.  IN NO EVENT SHALL MICROCHIP BE LIABLE FOR ANY DIRECT, INDIREC
      +                          T,
   128                           ; INCIDENTAL, SPECIAL, EXEMPLARY, OR CONSEQUENTIAL DAMAGES (INCLUDING BUT NOT LIMITED TO
   129                           ; PROCUREMENT OF SUBSTITUTE GOODS OR SERVICES; LOSS OF USE, DATA OR PROFITS; OR BUSINESS
   130                           ; INTERRUPTION) HOWSOEVER CAUSED AND ON ANY THEORY OF LIABILITY, WHETHER IN CONTRACT, ST
      +                          RICT
   131                           ; LIABILITY, OR TORT (INCLUDING NEGLIGENCE OR OTHERWISE) ARISING IN ANY WAY OUT OF THE U
      +                          SE OF
   132                           ; THIS SOFTWARE, EVEN IF ADVISED OF THE POSSIBILITY OF SUCH DAMAGE.
   133                           ; 
   134                           ; 
   135                           ; Code-generator required, PIC16LF1559 Definitions
   136                           ; 
   137                           ; SFR Addresses
   138  0000                     	;# 
   139  0001                     	;# 
   140  0002                     	;# 
   141  0003                     	;# 
   142  0004                     	;# 
   143  0005                     	;# 
   144  0006                     	;# 
   145  0007                     	;# 
   146  0008                     	;# 
   147  0009                     	;# 
   148  000A                     	;# 
   149  000B                     	;# 
   150  000C                     	;# 
   151  000D                     	;# 
   152  000E                     	;# 
   153  0011                     	;# 
   154  0012                     	;# 
   155  0015                     	;# 
   156  0016                     	;# 
   157  0016                     	;# 
   158  0017                     	;# 
   159  0018                     	;# 
   160  0019                     	;# 
   161  001A                     	;# 
   162  001B                     	;# 
   163  001C                     	;# 
   164  008C                     	;# 
   165  008D                     	;# 
   166  008E                     	;# 
   167  0091                     	;# 
   168  0092                     	;# 
   169  0095                     	;# 
   170  0096                     	;# 
   171  0097                     	;# 
   172  0099                     	;# 
   173  009A                     	;# 
   174  009B                     	;# 
   175  009B                     	;# 
   176  009C                     	;# 
   177  009D                     	;# 
   178  009E                     	;# 
   179  009F                     	;# 
   180  010C                     	;# 
   181  010D                     	;# 
   182  010E                     	;# 
   183  0116                     	;# 
   184  0117                     	;# 
   185  011D                     	;# 
   186  018C                     	;# 
   187  018D                     	;# 
   188  018E                     	;# 
   189  0191                     	;# 
   190  0191                     	;# 
   191  0192                     	;# 
   192  0193                     	;# 
   193  0193                     	;# 
   194  0194                     	;# 
   195  0195                     	;# 
   196  0196                     	;# 
   197  0199                     	;# 
   198  019A                     	;# 
   199  019B                     	;# 
   200  019B                     	;# 
   201  019C                     	;# 
   202  019D                     	;# 
   203  019E                     	;# 
   204  019F                     	;# 
   205  020C                     	;# 
   206  020D                     	;# 
   207  0211                     	;# 
   208  0211                     	;# 
   209  0212                     	;# 
   210  0212                     	;# 
   211  0213                     	;# 
   212  0213                     	;# 
   213  0214                     	;# 
   214  0214                     	;# 
   215  0215                     	;# 
   216  0215                     	;# 
   217  0215                     	;# 
   218  0216                     	;# 
   219  0216                     	;# 
   220  0217                     	;# 
   221  0217                     	;# 
   222  0391                     	;# 
   223  0392                     	;# 
   224  0393                     	;# 
   225  0394                     	;# 
   226  0395                     	;# 
   227  0396                     	;# 
   228  0611                     	;# 
   229  0612                     	;# 
   230  0613                     	;# 
   231  0613                     	;# 
   232  0614                     	;# 
   233  0615                     	;# 
   234  0616                     	;# 
   235  0616                     	;# 
   236  0711                     	;# 
   237  0711                     	;# 
   238  0711                     	;# 
   239  0712                     	;# 
   240  0712                     	;# 
   241  0713                     	;# 
   242  0713                     	;# 
   243  0713                     	;# 
   244  0714                     	;# 
   245  0714                     	;# 
   246  0714                     	;# 
   247  0715                     	;# 
   248  0715                     	;# 
   249  0716                     	;# 
   250  0716                     	;# 
   251  0716                     	;# 
   252  0716                     	;# 
   253  0717                     	;# 
   254  0717                     	;# 
   255  0717                     	;# 
   256  0717                     	;# 
   257  0718                     	;# 
   258  0718                     	;# 
   259  0718                     	;# 
   260  0719                     	;# 
   261  0719                     	;# 
   262  0719                     	;# 
   263  0719                     	;# 
   264  071A                     	;# 
   265  071A                     	;# 
   266  071A                     	;# 
   267  071A                     	;# 
   268  071A                     	;# 
   269  071B                     	;# 
   270  071B                     	;# 
   271  071C                     	;# 
   272  071C                     	;# 
   273  071C                     	;# 
   274  071C                     	;# 
   275  071C                     	;# 
   276  071D                     	;# 
   277  071D                     	;# 
   278  071E                     	;# 
   279  071E                     	;# 
   280  0791                     	;# 
   281  0791                     	;# 
   282  0793                     	;# 
   283  0793                     	;# 
   284  0794                     	;# 
   285  0794                     	;# 
   286  0796                     	;# 
   287  0796                     	;# 
   288  0796                     	;# 
   289  0797                     	;# 
   290  0797                     	;# 
   291  0797                     	;# 
   292  0798                     	;# 
   293  0798                     	;# 
   294  0799                     	;# 
   295  0799                     	;# 
   296  0799                     	;# 
   297  079A                     	;# 
   298  079A                     	;# 
   299  079A                     	;# 
   300  079B                     	;# 
   301  079C                     	;# 
   302  079C                     	;# 
   303  079C                     	;# 
   304  079D                     	;# 
   305  079E                     	;# 
   306  079E                     	;# 
   307  0F8C                     	;# 
   308  0F8D                     	;# 
   309  0F91                     	;# 
   310  0F96                     	;# 
   311  0F97                     	;# 
   312  0F9C                     	;# 
   313  0F9D                     	;# 
   314  0F9E                     	;# 
   315  0FE3                     	;# 
   316  0FE4                     	;# 
   317  0FE5                     	;# 
   318  0FE6                     	;# 
   319  0FE7                     	;# 
   320  0FE8                     	;# 
   321  0FE9                     	;# 
   322  0FEA                     	;# 
   323  0FEB                     	;# 
   324  0FED                     	;# 
   325  0FEE                     	;# 
   326  0FEF                     	;# 
   327  0000                     	;# 
   328  0001                     	;# 
   329  0002                     	;# 
   330  0003                     	;# 
   331  0004                     	;# 
   332  0005                     	;# 
   333  0006                     	;# 
   334  0007                     	;# 
   335  0008                     	;# 
   336  0009                     	;# 
   337  000A                     	;# 
   338  000B                     	;# 
   339  000C                     	;# 
   340  000D                     	;# 
   341  000E                     	;# 
   342  0011                     	;# 
   343  0012                     	;# 
   344  0015                     	;# 
   345  0016                     	;# 
   346  0016                     	;# 
   347  0017                     	;# 
   348  0018                     	;# 
   349  0019                     	;# 
   350  001A                     	;# 
   351  001B                     	;# 
   352  001C                     	;# 
   353  008C                     	;# 
   354  008D                     	;# 
   355  008E                     	;# 
   356  0091                     	;# 
   357  0092                     	;# 
   358  0095                     	;# 
   359  0096                     	;# 
   360  0097                     	;# 
   361  0099                     	;# 
   362  009A                     	;# 
   363  009B                     	;# 
   364  009B                     	;# 
   365  009C                     	;# 
   366  009D                     	;# 
   367  009E                     	;# 
   368  009F                     	;# 
   369  010C                     	;# 
   370  010D                     	;# 
   371  010E                     	;# 
   372  0116                     	;# 
   373  0117                     	;# 
   374  011D                     	;# 
   375  018C                     	;# 
   376  018D                     	;# 
   377  018E                     	;# 
   378  0191                     	;# 
   379  0191                     	;# 
   380  0192                     	;# 
   381  0193                     	;# 
   382  0193                     	;# 
   383  0194                     	;# 
   384  0195                     	;# 
   385  0196                     	;# 
   386  0199                     	;# 
   387  019A                     	;# 
   388  019B                     	;# 
   389  019B                     	;# 
   390  019C                     	;# 
   391  019D                     	;# 
   392  019E                     	;# 
   393  019F                     	;# 
   394  020C                     	;# 
   395  020D                     	;# 
   396  0211                     	;# 
   397  0211                     	;# 
   398  0212                     	;# 
   399  0212                     	;# 
   400  0213                     	;# 
   401  0213                     	;# 
   402  0214                     	;# 
   403  0214                     	;# 
   404  0215                     	;# 
   405  0215                     	;# 
   406  0215                     	;# 
   407  0216                     	;# 
   408  0216                     	;# 
   409  0217                     	;# 
   410  0217                     	;# 
   411  0391                     	;# 
   412  0392                     	;# 
   413  0393                     	;# 
   414  0394                     	;# 
   415  0395                     	;# 
   416  0396                     	;# 
   417  0611                     	;# 
   418  0612                     	;# 
   419  0613                     	;# 
   420  0613                     	;# 
   421  0614                     	;# 
   422  0615                     	;# 
   423  0616                     	;# 
   424  0616                     	;# 
   425  0711                     	;# 
   426  0711                     	;# 
   427  0711                     	;# 
   428  0712                     	;# 
   429  0712                     	;# 
   430  0713                     	;# 
   431  0713                     	;# 
   432  0713                     	;# 
   433  0714                     	;# 
   434  0714                     	;# 
   435  0714                     	;# 
   436  0715                     	;# 
   437  0715                     	;# 
   438  0716                     	;# 
   439  0716                     	;# 
   440  0716                     	;# 
   441  0716                     	;# 
   442  0717                     	;# 
   443  0717                     	;# 
   444  0717                     	;# 
   445  0717                     	;# 
   446  0718                     	;# 
   447  0718                     	;# 
   448  0718                     	;# 
   449  0719                     	;# 
   450  0719                     	;# 
   451  0719                     	;# 
   452  0719                     	;# 
   453  071A                     	;# 
   454  071A                     	;# 
   455  071A                     	;# 
   456  071A                     	;# 
   457  071A                     	;# 
   458  071B                     	;# 
   459  071B                     	;# 
   460  071C                     	;# 
   461  071C                     	;# 
   462  071C                     	;# 
   463  071C                     	;# 
   464  071C                     	;# 
   465  071D                     	;# 
   466  071D                     	;# 
   467  071E                     	;# 
   468  071E                     	;# 
   469  0791                     	;# 
   470  0791                     	;# 
   471  0793                     	;# 
   472  0793                     	;# 
   473  0794                     	;# 
   474  0794                     	;# 
   475  0796                     	;# 
   476  0796                     	;# 
   477  0796                     	;# 
   478  0797                     	;# 
   479  0797                     	;# 
   480  0797                     	;# 
   481  0798                     	;# 
   482  0798                     	;# 
   483  0799                     	;# 
   484  0799                     	;# 
   485  0799                     	;# 
   486  079A                     	;# 
   487  079A                     	;# 
   488  079A                     	;# 
   489  079B                     	;# 
   490  079C                     	;# 
   491  079C                     	;# 
   492  079C                     	;# 
   493  079D                     	;# 
   494  079E                     	;# 
   495  079E                     	;# 
   496  0F8C                     	;# 
   497  0F8D                     	;# 
   498  0F91                     	;# 
   499  0F96                     	;# 
   500  0F97                     	;# 
   501  0F9C                     	;# 
   502  0F9D                     	;# 
   503  0F9E                     	;# 
   504  0FE3                     	;# 
   505  0FE4                     	;# 
   506  0FE5                     	;# 
   507  0FE6                     	;# 
   508  0FE7                     	;# 
   509  0FE8                     	;# 
   510  0FE9                     	;# 
   511  0FEA                     	;# 
   512  0FEB                     	;# 
   513  0FED                     	;# 
   514  0FEE                     	;# 
   515  0FEF                     	;# 
   516  0000                     	;# 
   517  0001                     	;# 
   518  0002                     	;# 
   519  0003                     	;# 
   520  0004                     	;# 
   521  0005                     	;# 
   522  0006                     	;# 
   523  0007                     	;# 
   524  0008                     	;# 
   525  0009                     	;# 
   526  000A                     	;# 
   527  000B                     	;# 
   528  000C                     	;# 
   529  000D                     	;# 
   530  000E                     	;# 
   531  0011                     	;# 
   532  0012                     	;# 
   533  0015                     	;# 
   534  0016                     	;# 
   535  0016                     	;# 
   536  0017                     	;# 
   537  0018                     	;# 
   538  0019                     	;# 
   539  001A                     	;# 
   540  001B                     	;# 
   541  001C                     	;# 
   542  008C                     	;# 
   543  008D                     	;# 
   544  008E                     	;# 
   545  0091                     	;# 
   546  0092                     	;# 
   547  0095                     	;# 
   548  0096                     	;# 
   549  0097                     	;# 
   550  0099                     	;# 
   551  009A                     	;# 
   552  009B                     	;# 
   553  009B                     	;# 
   554  009C                     	;# 
   555  009D                     	;# 
   556  009E                     	;# 
   557  009F                     	;# 
   558  010C                     	;# 
   559  010D                     	;# 
   560  010E                     	;# 
   561  0116                     	;# 
   562  0117                     	;# 
   563  011D                     	;# 
   564  018C                     	;# 
   565  018D                     	;# 
   566  018E                     	;# 
   567  0191                     	;# 
   568  0191                     	;# 
   569  0192                     	;# 
   570  0193                     	;# 
   571  0193                     	;# 
   572  0194                     	;# 
   573  0195                     	;# 
   574  0196                     	;# 
   575  0199                     	;# 
   576  019A                     	;# 
   577  019B                     	;# 
   578  019B                     	;# 
   579  019C                     	;# 
   580  019D                     	;# 
   581  019E                     	;# 
   582  019F                     	;# 
   583  020C                     	;# 
   584  020D                     	;# 
   585  0211                     	;# 
   586  0211                     	;# 
   587  0212                     	;# 
   588  0212                     	;# 
   589  0213                     	;# 
   590  0213                     	;# 
   591  0214                     	;# 
   592  0214                     	;# 
   593  0215                     	;# 
   594  0215                     	;# 
   595  0215                     	;# 
   596  0216                     	;# 
   597  0216                     	;# 
   598  0217                     	;# 
   599  0217                     	;# 
   600  0391                     	;# 
   601  0392                     	;# 
   602  0393                     	;# 
   603  0394                     	;# 
   604  0395                     	;# 
   605  0396                     	;# 
   606  0611                     	;# 
   607  0612                     	;# 
   608  0613                     	;# 
   609  0613                     	;# 
   610  0614                     	;# 
   611  0615                     	;# 
   612  0616                     	;# 
   613  0616                     	;# 
   614  0711                     	;# 
   615  0711                     	;# 
   616  0711                     	;# 
   617  0712                     	;# 
   618  0712                     	;# 
   619  0713                     	;# 
   620  0713                     	;# 
   621  0713                     	;# 
   622  0714                     	;# 
   623  0714                     	;# 
   624  0714                     	;# 
   625  0715                     	;# 
   626  0715                     	;# 
   627  0716                     	;# 
   628  0716                     	;# 
   629  0716                     	;# 
   630  0716                     	;# 
   631  0717                     	;# 
   632  0717                     	;# 
   633  0717                     	;# 
   634  0717                     	;# 
   635  0718                     	;# 
   636  0718                     	;# 
   637  0718                     	;# 
   638  0719                     	;# 
   639  0719                     	;# 
   640  0719                     	;# 
   641  0719                     	;# 
   642  071A                     	;# 
   643  071A                     	;# 
   644  071A                     	;# 
   645  071A                     	;# 
   646  071A                     	;# 
   647  071B                     	;# 
   648  071B                     	;# 
   649  071C                     	;# 
   650  071C                     	;# 
   651  071C                     	;# 
   652  071C                     	;# 
   653  071C                     	;# 
   654  071D                     	;# 
   655  071D                     	;# 
   656  071E                     	;# 
   657  071E                     	;# 
   658  0791                     	;# 
   659  0791                     	;# 
   660  0793                     	;# 
   661  0793                     	;# 
   662  0794                     	;# 
   663  0794                     	;# 
   664  0796                     	;# 
   665  0796                     	;# 
   666  0796                     	;# 
   667  0797                     	;# 
   668  0797                     	;# 
   669  0797                     	;# 
   670  0798                     	;# 
   671  0798                     	;# 
   672  0799                     	;# 
   673  0799                     	;# 
   674  0799                     	;# 
   675  079A                     	;# 
   676  079A                     	;# 
   677  079A                     	;# 
   678  079B                     	;# 
   679  079C                     	;# 
   680  079C                     	;# 
   681  079C                     	;# 
   682  079D                     	;# 
   683  079E                     	;# 
   684  079E                     	;# 
   685  0F8C                     	;# 
   686  0F8D                     	;# 
   687  0F91                     	;# 
   688  0F96                     	;# 
   689  0F97                     	;# 
   690  0F9C                     	;# 
   691  0F9D                     	;# 
   692  0F9E                     	;# 
   693  0FE3                     	;# 
   694  0FE4                     	;# 
   695  0FE5                     	;# 
   696  0FE6                     	;# 
   697  0FE7                     	;# 
   698  0FE8                     	;# 
   699  0FE9                     	;# 
   700  0FEA                     	;# 
   701  0FEB                     	;# 
   702  0FED                     	;# 
   703  0FEE                     	;# 
   704  0FEF                     	;# 
   705  0000                     	;# 
   706  0001                     	;# 
   707  0002                     	;# 
   708  0003                     	;# 
   709  0004                     	;# 
   710  0005                     	;# 
   711  0006                     	;# 
   712  0007                     	;# 
   713  0008                     	;# 
   714  0009                     	;# 
   715  000A                     	;# 
   716  000B                     	;# 
   717  000C                     	;# 
   718  000D                     	;# 
   719  000E                     	;# 
   720  0011                     	;# 
   721  0012                     	;# 
   722  0015                     	;# 
   723  0016                     	;# 
   724  0016                     	;# 
   725  0017                     	;# 
   726  0018                     	;# 
   727  0019                     	;# 
   728  001A                     	;# 
   729  001B                     	;# 
   730  001C                     	;# 
   731  008C                     	;# 
   732  008D                     	;# 
   733  008E                     	;# 
   734  0091                     	;# 
   735  0092                     	;# 
   736  0095                     	;# 
   737  0096                     	;# 
   738  0097                     	;# 
   739  0099                     	;# 
   740  009A                     	;# 
   741  009B                     	;# 
   742  009B                     	;# 
   743  009C                     	;# 
   744  009D                     	;# 
   745  009E                     	;# 
   746  009F                     	;# 
   747  010C                     	;# 
   748  010D                     	;# 
   749  010E                     	;# 
   750  0116                     	;# 
   751  0117                     	;# 
   752  011D                     	;# 
   753  018C                     	;# 
   754  018D                     	;# 
   755  018E                     	;# 
   756  0191                     	;# 
   757  0191                     	;# 
   758  0192                     	;# 
   759  0193                     	;# 
   760  0193                     	;# 
   761  0194                     	;# 
   762  0195                     	;# 
   763  0196                     	;# 
   764  0199                     	;# 
   765  019A                     	;# 
   766  019B                     	;# 
   767  019B                     	;# 
   768  019C                     	;# 
   769  019D                     	;# 
   770  019E                     	;# 
   771  019F                     	;# 
   772  020C                     	;# 
   773  020D                     	;# 
   774  0211                     	;# 
   775  0211                     	;# 
   776  0212                     	;# 
   777  0212                     	;# 
   778  0213                     	;# 
   779  0213                     	;# 
   780  0214                     	;# 
   781  0214                     	;# 
   782  0215                     	;# 
   783  0215                     	;# 
   784  0215                     	;# 
   785  0216                     	;# 
   786  0216                     	;# 
   787  0217                     	;# 
   788  0217                     	;# 
   789  0391                     	;# 
   790  0392                     	;# 
   791  0393                     	;# 
   792  0394                     	;# 
   793  0395                     	;# 
   794  0396                     	;# 
   795  0611                     	;# 
   796  0612                     	;# 
   797  0613                     	;# 
   798  0613                     	;# 
   799  0614                     	;# 
   800  0615                     	;# 
   801  0616                     	;# 
   802  0616                     	;# 
   803  0711                     	;# 
   804  0711                     	;# 
   805  0711                     	;# 
   806  0712                     	;# 
   807  0712                     	;# 
   808  0713                     	;# 
   809  0713                     	;# 
   810  0713                     	;# 
   811  0714                     	;# 
   812  0714                     	;# 
   813  0714                     	;# 
   814  0715                     	;# 
   815  0715                     	;# 
   816  0716                     	;# 
   817  0716                     	;# 
   818  0716                     	;# 
   819  0716                     	;# 
   820  0717                     	;# 
   821  0717                     	;# 
   822  0717                     	;# 
   823  0717                     	;# 
   824  0718                     	;# 
   825  0718                     	;# 
   826  0718                     	;# 
   827  0719                     	;# 
   828  0719                     	;# 
   829  0719                     	;# 
   830  0719                     	;# 
   831  071A                     	;# 
   832  071A                     	;# 
   833  071A                     	;# 
   834  071A                     	;# 
   835  071A                     	;# 
   836  071B                     	;# 
   837  071B                     	;# 
   838  071C                     	;# 
   839  071C                     	;# 
   840  071C                     	;# 
   841  071C                     	;# 
   842  071C                     	;# 
   843  071D                     	;# 
   844  071D                     	;# 
   845  071E                     	;# 
   846  071E                     	;# 
   847  0791                     	;# 
   848  0791                     	;# 
   849  0793                     	;# 
   850  0793                     	;# 
   851  0794                     	;# 
   852  0794                     	;# 
   853  0796                     	;# 
   854  0796                     	;# 
   855  0796                     	;# 
   856  0797                     	;# 
   857  0797                     	;# 
   858  0797                     	;# 
   859  0798                     	;# 
   860  0798                     	;# 
   861  0799                     	;# 
   862  0799                     	;# 
   863  0799                     	;# 
   864  079A                     	;# 
   865  079A                     	;# 
   866  079A                     	;# 
   867  079B                     	;# 
   868  079C                     	;# 
   869  079C                     	;# 
   870  079C                     	;# 
   871  079D                     	;# 
   872  079E                     	;# 
   873  079E                     	;# 
   874  0F8C                     	;# 
   875  0F8D                     	;# 
   876  0F91                     	;# 
   877  0F96                     	;# 
   878  0F97                     	;# 
   879  0F9C                     	;# 
   880  0F9D                     	;# 
   881  0F9E                     	;# 
   882  0FE3                     	;# 
   883  0FE4                     	;# 
   884  0FE5                     	;# 
   885  0FE6                     	;# 
   886  0FE7                     	;# 
   887  0FE8                     	;# 
   888  0FE9                     	;# 
   889  0FEA                     	;# 
   890  0FEB                     	;# 
   891  0FED                     	;# 
   892  0FEE                     	;# 
   893  0FEF                     	;# 
   894  0000                     	;# 
   895  0001                     	;# 
   896  0002                     	;# 
   897  0003                     	;# 
   898  0004                     	;# 
   899  0005                     	;# 
   900  0006                     	;# 
   901  0007                     	;# 
   902  0008                     	;# 
   903  0009                     	;# 
   904  000A                     	;# 
   905  000B                     	;# 
   906  000C                     	;# 
   907  000D                     	;# 
   908  000E                     	;# 
   909  0011                     	;# 
   910  0012                     	;# 
   911  0015                     	;# 
   912  0016                     	;# 
   913  0016                     	;# 
   914  0017                     	;# 
   915  0018                     	;# 
   916  0019                     	;# 
   917  001A                     	;# 
   918  001B                     	;# 
   919  001C                     	;# 
   920  008C                     	;# 
   921  008D                     	;# 
   922  008E                     	;# 
   923  0091                     	;# 
   924  0092                     	;# 
   925  0095                     	;# 
   926  0096                     	;# 
   927  0097                     	;# 
   928  0099                     	;# 
   929  009A                     	;# 
   930  009B                     	;# 
   931  009B                     	;# 
   932  009C                     	;# 
   933  009D                     	;# 
   934  009E                     	;# 
   935  009F                     	;# 
   936  010C                     	;# 
   937  010D                     	;# 
   938  010E                     	;# 
   939  0116                     	;# 
   940  0117                     	;# 
   941  011D                     	;# 
   942  018C                     	;# 
   943  018D                     	;# 
   944  018E                     	;# 
   945  0191                     	;# 
   946  0191                     	;# 
   947  0192                     	;# 
   948  0193                     	;# 
   949  0193                     	;# 
   950  0194                     	;# 
   951  0195                     	;# 
   952  0196                     	;# 
   953  0199                     	;# 
   954  019A                     	;# 
   955  019B                     	;# 
   956  019B                     	;# 
   957  019C                     	;# 
   958  019D                     	;# 
   959  019E                     	;# 
   960  019F                     	;# 
   961  020C                     	;# 
   962  020D                     	;# 
   963  0211                     	;# 
   964  0211                     	;# 
   965  0212                     	;# 
   966  0212                     	;# 
   967  0213                     	;# 
   968  0213                     	;# 
   969  0214                     	;# 
   970  0214                     	;# 
   971  0215                     	;# 
   972  0215                     	;# 
   973  0215                     	;# 
   974  0216                     	;# 
   975  0216                     	;# 
   976  0217                     	;# 
   977  0217                     	;# 
   978  0391                     	;# 
   979  0392                     	;# 
   980  0393                     	;# 
   981  0394                     	;# 
   982  0395                     	;# 
   983  0396                     	;# 
   984  0611                     	;# 
   985  0612                     	;# 
   986  0613                     	;# 
   987  0613                     	;# 
   988  0614                     	;# 
   989  0615                     	;# 
   990  0616                     	;# 
   991  0616                     	;# 
   992  0711                     	;# 
   993  0711                     	;# 
   994  0711                     	;# 
   995  0712                     	;# 
   996  0712                     	;# 
   997  0713                     	;# 
   998  0713                     	;# 
   999  0713                     	;# 
  1000  0714                     	;# 
  1001  0714                     	;# 
  1002  0714                     	;# 
  1003  0715                     	;# 
  1004  0715                     	;# 
  1005  0716                     	;# 
  1006  0716                     	;# 
  1007  0716                     	;# 
  1008  0716                     	;# 
  1009  0717                     	;# 
  1010  0717                     	;# 
  1011  0717                     	;# 
  1012  0717                     	;# 
  1013  0718                     	;# 
  1014  0718                     	;# 
  1015  0718                     	;# 
  1016  0719                     	;# 
  1017  0719                     	;# 
  1018  0719                     	;# 
  1019  0719                     	;# 
  1020  071A                     	;# 
  1021  071A                     	;# 
  1022  071A                     	;# 
  1023  071A                     	;# 
  1024  071A                     	;# 
  1025  071B                     	;# 
  1026  071B                     	;# 
  1027  071C                     	;# 
  1028  071C                     	;# 
  1029  071C                     	;# 
  1030  071C                     	;# 
  1031  071C                     	;# 
  1032  071D                     	;# 
  1033  071D                     	;# 
  1034  071E                     	;# 
  1035  071E                     	;# 
  1036  0791                     	;# 
  1037  0791                     	;# 
  1038  0793                     	;# 
  1039  0793                     	;# 
  1040  0794                     	;# 
  1041  0794                     	;# 
  1042  0796                     	;# 
  1043  0796                     	;# 
  1044  0796                     	;# 
  1045  0797                     	;# 
  1046  0797                     	;# 
  1047  0797                     	;# 
  1048  0798                     	;# 
  1049  0798                     	;# 
  1050  0799                     	;# 
  1051  0799                     	;# 
  1052  0799                     	;# 
  1053  079A                     	;# 
  1054  079A                     	;# 
  1055  079A                     	;# 
  1056  079B                     	;# 
  1057  079C                     	;# 
  1058  079C                     	;# 
  1059  079C                     	;# 
  1060  079D                     	;# 
  1061  079E                     	;# 
  1062  079E                     	;# 
  1063  0F8C                     	;# 
  1064  0F8D                     	;# 
  1065  0F91                     	;# 
  1066  0F96                     	;# 
  1067  0F97                     	;# 
  1068  0F9C                     	;# 
  1069  0F9D                     	;# 
  1070  0F9E                     	;# 
  1071  0FE3                     	;# 
  1072  0FE4                     	;# 
  1073  0FE5                     	;# 
  1074  0FE6                     	;# 
  1075  0FE7                     	;# 
  1076  0FE8                     	;# 
  1077  0FE9                     	;# 
  1078  0FEA                     	;# 
  1079  0FEB                     	;# 
  1080  0FED                     	;# 
  1081  0FEE                     	;# 
  1082  0FEF                     	;# 
  1083  0000                     	;# 
  1084  0001                     	;# 
  1085  0002                     	;# 
  1086  0003                     	;# 
  1087  0004                     	;# 
  1088  0005                     	;# 
  1089  0006                     	;# 
  1090  0007                     	;# 
  1091  0008                     	;# 
  1092  0009                     	;# 
  1093  000A                     	;# 
  1094  000B                     	;# 
  1095  000C                     	;# 
  1096  000D                     	;# 
  1097  000E                     	;# 
  1098  0011                     	;# 
  1099  0012                     	;# 
  1100  0015                     	;# 
  1101  0016                     	;# 
  1102  0016                     	;# 
  1103  0017                     	;# 
  1104  0018                     	;# 
  1105  0019                     	;# 
  1106  001A                     	;# 
  1107  001B                     	;# 
  1108  001C                     	;# 
  1109  008C                     	;# 
  1110  008D                     	;# 
  1111  008E                     	;# 
  1112  0091                     	;# 
  1113  0092                     	;# 
  1114  0095                     	;# 
  1115  0096                     	;# 
  1116  0097                     	;# 
  1117  0099                     	;# 
  1118  009A                     	;# 
  1119  009B                     	;# 
  1120  009B                     	;# 
  1121  009C                     	;# 
  1122  009D                     	;# 
  1123  009E                     	;# 
  1124  009F                     	;# 
  1125  010C                     	;# 
  1126  010D                     	;# 
  1127  010E                     	;# 
  1128  0116                     	;# 
  1129  0117                     	;# 
  1130  011D                     	;# 
  1131  018C                     	;# 
  1132  018D                     	;# 
  1133  018E                     	;# 
  1134  0191                     	;# 
  1135  0191                     	;# 
  1136  0192                     	;# 
  1137  0193                     	;# 
  1138  0193                     	;# 
  1139  0194                     	;# 
  1140  0195                     	;# 
  1141  0196                     	;# 
  1142  0199                     	;# 
  1143  019A                     	;# 
  1144  019B                     	;# 
  1145  019B                     	;# 
  1146  019C                     	;# 
  1147  019D                     	;# 
  1148  019E                     	;# 
  1149  019F                     	;# 
  1150  020C                     	;# 
  1151  020D                     	;# 
  1152  0211                     	;# 
  1153  0211                     	;# 
  1154  0212                     	;# 
  1155  0212                     	;# 
  1156  0213                     	;# 
  1157  0213                     	;# 
  1158  0214                     	;# 
  1159  0214                     	;# 
  1160  0215                     	;# 
  1161  0215                     	;# 
  1162  0215                     	;# 
  1163  0216                     	;# 
  1164  0216                     	;# 
  1165  0217                     	;# 
  1166  0217                     	;# 
  1167  0391                     	;# 
  1168  0392                     	;# 
  1169  0393                     	;# 
  1170  0394                     	;# 
  1171  0395                     	;# 
  1172  0396                     	;# 
  1173  0611                     	;# 
  1174  0612                     	;# 
  1175  0613                     	;# 
  1176  0613                     	;# 
  1177  0614                     	;# 
  1178  0615                     	;# 
  1179  0616                     	;# 
  1180  0616                     	;# 
  1181  0711                     	;# 
  1182  0711                     	;# 
  1183  0711                     	;# 
  1184  0712                     	;# 
  1185  0712                     	;# 
  1186  0713                     	;# 
  1187  0713                     	;# 
  1188  0713                     	;# 
  1189  0714                     	;# 
  1190  0714                     	;# 
  1191  0714                     	;# 
  1192  0715                     	;# 
  1193  0715                     	;# 
  1194  0716                     	;# 
  1195  0716                     	;# 
  1196  0716                     	;# 
  1197  0716                     	;# 
  1198  0717                     	;# 
  1199  0717                     	;# 
  1200  0717                     	;# 
  1201  0717                     	;# 
  1202  0718                     	;# 
  1203  0718                     	;# 
  1204  0718                     	;# 
  1205  0719                     	;# 
  1206  0719                     	;# 
  1207  0719                     	;# 
  1208  0719                     	;# 
  1209  071A                     	;# 
  1210  071A                     	;# 
  1211  071A                     	;# 
  1212  071A                     	;# 
  1213  071A                     	;# 
  1214  071B                     	;# 
  1215  071B                     	;# 
  1216  071C                     	;# 
  1217  071C                     	;# 
  1218  071C                     	;# 
  1219  071C                     	;# 
  1220  071C                     	;# 
  1221  071D                     	;# 
  1222  071D                     	;# 
  1223  071E                     	;# 
  1224  071E                     	;# 
  1225  0791                     	;# 
  1226  0791                     	;# 
  1227  0793                     	;# 
  1228  0793                     	;# 
  1229  0794                     	;# 
  1230  0794                     	;# 
  1231  0796                     	;# 
  1232  0796                     	;# 
  1233  0796                     	;# 
  1234  0797                     	;# 
  1235  0797                     	;# 
  1236  0797                     	;# 
  1237  0798                     	;# 
  1238  0798                     	;# 
  1239  0799                     	;# 
  1240  0799                     	;# 
  1241  0799                     	;# 
  1242  079A                     	;# 
  1243  079A                     	;# 
  1244  079A                     	;# 
  1245  079B                     	;# 
  1246  079C                     	;# 
  1247  079C                     	;# 
  1248  079C                     	;# 
  1249  079D                     	;# 
  1250  079E                     	;# 
  1251  079E                     	;# 
  1252  0F8C                     	;# 
  1253  0F8D                     	;# 
  1254  0F91                     	;# 
  1255  0F96                     	;# 
  1256  0F97                     	;# 
  1257  0F9C                     	;# 
  1258  0F9D                     	;# 
  1259  0F9E                     	;# 
  1260  0FE3                     	;# 
  1261  0FE4                     	;# 
  1262  0FE5                     	;# 
  1263  0FE6                     	;# 
  1264  0FE7                     	;# 
  1265  0FE8                     	;# 
  1266  0FE9                     	;# 
  1267  0FEA                     	;# 
  1268  0FEB                     	;# 
  1269  0FED                     	;# 
  1270  0FEE                     	;# 
  1271  0FEF                     	;# 
  1272  0000                     	;# 
  1273  0001                     	;# 
  1274  0002                     	;# 
  1275  0003                     	;# 
  1276  0004                     	;# 
  1277  0005                     	;# 
  1278  0006                     	;# 
  1279  0007                     	;# 
  1280  0008                     	;# 
  1281  0009                     	;# 
  1282  000A                     	;# 
  1283  000B                     	;# 
  1284  000C                     	;# 
  1285  000D                     	;# 
  1286  000E                     	;# 
  1287  0011                     	;# 
  1288  0012                     	;# 
  1289  0015                     	;# 
  1290  0016                     	;# 
  1291  0016                     	;# 
  1292  0017                     	;# 
  1293  0018                     	;# 
  1294  0019                     	;# 
  1295  001A                     	;# 
  1296  001B                     	;# 
  1297  001C                     	;# 
  1298  008C                     	;# 
  1299  008D                     	;# 
  1300  008E                     	;# 
  1301  0091                     	;# 
  1302  0092                     	;# 
  1303  0095                     	;# 
  1304  0096                     	;# 
  1305  0097                     	;# 
  1306  0099                     	;# 
  1307  009A                     	;# 
  1308  009B                     	;# 
  1309  009B                     	;# 
  1310  009C                     	;# 
  1311  009D                     	;# 
  1312  009E                     	;# 
  1313  009F                     	;# 
  1314  010C                     	;# 
  1315  010D                     	;# 
  1316  010E                     	;# 
  1317  0116                     	;# 
  1318  0117                     	;# 
  1319  011D                     	;# 
  1320  018C                     	;# 
  1321  018D                     	;# 
  1322  018E                     	;# 
  1323  0191                     	;# 
  1324  0191                     	;# 
  1325  0192                     	;# 
  1326  0193                     	;# 
  1327  0193                     	;# 
  1328  0194                     	;# 
  1329  0195                     	;# 
  1330  0196                     	;# 
  1331  0199                     	;# 
  1332  019A                     	;# 
  1333  019B                     	;# 
  1334  019B                     	;# 
  1335  019C                     	;# 
  1336  019D                     	;# 
  1337  019E                     	;# 
  1338  019F                     	;# 
  1339  020C                     	;# 
  1340  020D                     	;# 
  1341  0211                     	;# 
  1342  0211                     	;# 
  1343  0212                     	;# 
  1344  0212                     	;# 
  1345  0213                     	;# 
  1346  0213                     	;# 
  1347  0214                     	;# 
  1348  0214                     	;# 
  1349  0215                     	;# 
  1350  0215                     	;# 
  1351  0215                     	;# 
  1352  0216                     	;# 
  1353  0216                     	;# 
  1354  0217                     	;# 
  1355  0217                     	;# 
  1356  0391                     	;# 
  1357  0392                     	;# 
  1358  0393                     	;# 
  1359  0394                     	;# 
  1360  0395                     	;# 
  1361  0396                     	;# 
  1362  0611                     	;# 
  1363  0612                     	;# 
  1364  0613                     	;# 
  1365  0613                     	;# 
  1366  0614                     	;# 
  1367  0615                     	;# 
  1368  0616                     	;# 
  1369  0616                     	;# 
  1370  0711                     	;# 
  1371  0711                     	;# 
  1372  0711                     	;# 
  1373  0712                     	;# 
  1374  0712                     	;# 
  1375  0713                     	;# 
  1376  0713                     	;# 
  1377  0713                     	;# 
  1378  0714                     	;# 
  1379  0714                     	;# 
  1380  0714                     	;# 
  1381  0715                     	;# 
  1382  0715                     	;# 
  1383  0716                     	;# 
  1384  0716                     	;# 
  1385  0716                     	;# 
  1386  0716                     	;# 
  1387  0717                     	;# 
  1388  0717                     	;# 
  1389  0717                     	;# 
  1390  0717                     	;# 
  1391  0718                     	;# 
  1392  0718                     	;# 
  1393  0718                     	;# 
  1394  0719                     	;# 
  1395  0719                     	;# 
  1396  0719                     	;# 
  1397  0719                     	;# 
  1398  071A                     	;# 
  1399  071A                     	;# 
  1400  071A                     	;# 
  1401  071A                     	;# 
  1402  071A                     	;# 
  1403  071B                     	;# 
  1404  071B                     	;# 
  1405  071C                     	;# 
  1406  071C                     	;# 
  1407  071C                     	;# 
  1408  071C                     	;# 
  1409  071C                     	;# 
  1410  071D                     	;# 
  1411  071D                     	;# 
  1412  071E                     	;# 
  1413  071E                     	;# 
  1414  0791                     	;# 
  1415  0791                     	;# 
  1416  0793                     	;# 
  1417  0793                     	;# 
  1418  0794                     	;# 
  1419  0794                     	;# 
  1420  0796                     	;# 
  1421  0796                     	;# 
  1422  0796                     	;# 
  1423  0797                     	;# 
  1424  0797                     	;# 
  1425  0797                     	;# 
  1426  0798                     	;# 
  1427  0798                     	;# 
  1428  0799                     	;# 
  1429  0799                     	;# 
  1430  0799                     	;# 
  1431  079A                     	;# 
  1432  079A                     	;# 
  1433  079A                     	;# 
  1434  079B                     	;# 
  1435  079C                     	;# 
  1436  079C                     	;# 
  1437  079C                     	;# 
  1438  079D                     	;# 
  1439  079E                     	;# 
  1440  079E                     	;# 
  1441  0F8C                     	;# 
  1442  0F8D                     	;# 
  1443  0F91                     	;# 
  1444  0F96                     	;# 
  1445  0F97                     	;# 
  1446  0F9C                     	;# 
  1447  0F9D                     	;# 
  1448  0F9E                     	;# 
  1449  0FE3                     	;# 
  1450  0FE4                     	;# 
  1451  0FE5                     	;# 
  1452  0FE6                     	;# 
  1453  0FE7                     	;# 
  1454  0FE8                     	;# 
  1455  0FE9                     	;# 
  1456  0FEA                     	;# 
  1457  0FEB                     	;# 
  1458  0FED                     	;# 
  1459  0FEE                     	;# 
  1460  0FEF                     	;# 
  1461  0000                     	;# 
  1462  0001                     	;# 
  1463  0002                     	;# 
  1464  0003                     	;# 
  1465  0004                     	;# 
  1466  0005                     	;# 
  1467  0006                     	;# 
  1468  0007                     	;# 
  1469  0008                     	;# 
  1470  0009                     	;# 
  1471  000A                     	;# 
  1472  000B                     	;# 
  1473  000C                     	;# 
  1474  000D                     	;# 
  1475  000E                     	;# 
  1476  0011                     	;# 
  1477  0012                     	;# 
  1478  0015                     	;# 
  1479  0016                     	;# 
  1480  0016                     	;# 
  1481  0017                     	;# 
  1482  0018                     	;# 
  1483  0019                     	;# 
  1484  001A                     	;# 
  1485  001B                     	;# 
  1486  001C                     	;# 
  1487  008C                     	;# 
  1488  008D                     	;# 
  1489  008E                     	;# 
  1490  0091                     	;# 
  1491  0092                     	;# 
  1492  0095                     	;# 
  1493  0096                     	;# 
  1494  0097                     	;# 
  1495  0099                     	;# 
  1496  009A                     	;# 
  1497  009B                     	;# 
  1498  009B                     	;# 
  1499  009C                     	;# 
  1500  009D                     	;# 
  1501  009E                     	;# 
  1502  009F                     	;# 
  1503  010C                     	;# 
  1504  010D                     	;# 
  1505  010E                     	;# 
  1506  0116                     	;# 
  1507  0117                     	;# 
  1508  011D                     	;# 
  1509  018C                     	;# 
  1510  018D                     	;# 
  1511  018E                     	;# 
  1512  0191                     	;# 
  1513  0191                     	;# 
  1514  0192                     	;# 
  1515  0193                     	;# 
  1516  0193                     	;# 
  1517  0194                     	;# 
  1518  0195                     	;# 
  1519  0196                     	;# 
  1520  0199                     	;# 
  1521  019A                     	;# 
  1522  019B                     	;# 
  1523  019B                     	;# 
  1524  019C                     	;# 
  1525  019D                     	;# 
  1526  019E                     	;# 
  1527  019F                     	;# 
  1528  020C                     	;# 
  1529  020D                     	;# 
  1530  0211                     	;# 
  1531  0211                     	;# 
  1532  0212                     	;# 
  1533  0212                     	;# 
  1534  0213                     	;# 
  1535  0213                     	;# 
  1536  0214                     	;# 
  1537  0214                     	;# 
  1538  0215                     	;# 
  1539  0215                     	;# 
  1540  0215                     	;# 
  1541  0216                     	;# 
  1542  0216                     	;# 
  1543  0217                     	;# 
  1544  0217                     	;# 
  1545  0391                     	;# 
  1546  0392                     	;# 
  1547  0393                     	;# 
  1548  0394                     	;# 
  1549  0395                     	;# 
  1550  0396                     	;# 
  1551  0611                     	;# 
  1552  0612                     	;# 
  1553  0613                     	;# 
  1554  0613                     	;# 
  1555  0614                     	;# 
  1556  0615                     	;# 
  1557  0616                     	;# 
  1558  0616                     	;# 
  1559  0711                     	;# 
  1560  0711                     	;# 
  1561  0711                     	;# 
  1562  0712                     	;# 
  1563  0712                     	;# 
  1564  0713                     	;# 
  1565  0713                     	;# 
  1566  0713                     	;# 
  1567  0714                     	;# 
  1568  0714                     	;# 
  1569  0714                     	;# 
  1570  0715                     	;# 
  1571  0715                     	;# 
  1572  0716                     	;# 
  1573  0716                     	;# 
  1574  0716                     	;# 
  1575  0716                     	;# 
  1576  0717                     	;# 
  1577  0717                     	;# 
  1578  0717                     	;# 
  1579  0717                     	;# 
  1580  0718                     	;# 
  1581  0718                     	;# 
  1582  0718                     	;# 
  1583  0719                     	;# 
  1584  0719                     	;# 
  1585  0719                     	;# 
  1586  0719                     	;# 
  1587  071A                     	;# 
  1588  071A                     	;# 
  1589  071A                     	;# 
  1590  071A                     	;# 
  1591  071A                     	;# 
  1592  071B                     	;# 
  1593  071B                     	;# 
  1594  071C                     	;# 
  1595  071C                     	;# 
  1596  071C                     	;# 
  1597  071C                     	;# 
  1598  071C                     	;# 
  1599  071D                     	;# 
  1600  071D                     	;# 
  1601  071E                     	;# 
  1602  071E                     	;# 
  1603  0791                     	;# 
  1604  0791                     	;# 
  1605  0793                     	;# 
  1606  0793                     	;# 
  1607  0794                     	;# 
  1608  0794                     	;# 
  1609  0796                     	;# 
  1610  0796                     	;# 
  1611  0796                     	;# 
  1612  0797                     	;# 
  1613  0797                     	;# 
  1614  0797                     	;# 
  1615  0798                     	;# 
  1616  0798                     	;# 
  1617  0799                     	;# 
  1618  0799                     	;# 
  1619  0799                     	;# 
  1620  079A                     	;# 
  1621  079A                     	;# 
  1622  079A                     	;# 
  1623  079B                     	;# 
  1624  079C                     	;# 
  1625  079C                     	;# 
  1626  079C                     	;# 
  1627  079D                     	;# 
  1628  079E                     	;# 
  1629  079E                     	;# 
  1630  0F8C                     	;# 
  1631  0F8D                     	;# 
  1632  0F91                     	;# 
  1633  0F96                     	;# 
  1634  0F97                     	;# 
  1635  0F9C                     	;# 
  1636  0F9D                     	;# 
  1637  0F9E                     	;# 
  1638  0FE3                     	;# 
  1639  0FE4                     	;# 
  1640  0FE5                     	;# 
  1641  0FE6                     	;# 
  1642  0FE7                     	;# 
  1643  0FE8                     	;# 
  1644  0FE9                     	;# 
  1645  0FEA                     	;# 
  1646  0FEB                     	;# 
  1647  0FED                     	;# 
  1648  0FEE                     	;# 
  1649  0FEF                     	;# 
  1650  0000                     	;# 
  1651  0001                     	;# 
  1652  0002                     	;# 
  1653  0003                     	;# 
  1654  0004                     	;# 
  1655  0005                     	;# 
  1656  0006                     	;# 
  1657  0007                     	;# 
  1658  0008                     	;# 
  1659  0009                     	;# 
  1660  000A                     	;# 
  1661  000B                     	;# 
  1662  000C                     	;# 
  1663  000D                     	;# 
  1664  000E                     	;# 
  1665  0011                     	;# 
  1666  0012                     	;# 
  1667  0015                     	;# 
  1668  0016                     	;# 
  1669  0016                     	;# 
  1670  0017                     	;# 
  1671  0018                     	;# 
  1672  0019                     	;# 
  1673  001A                     	;# 
  1674  001B                     	;# 
  1675  001C                     	;# 
  1676  008C                     	;# 
  1677  008D                     	;# 
  1678  008E                     	;# 
  1679  0091                     	;# 
  1680  0092                     	;# 
  1681  0095                     	;# 
  1682  0096                     	;# 
  1683  0097                     	;# 
  1684  0099                     	;# 
  1685  009A                     	;# 
  1686  009B                     	;# 
  1687  009B                     	;# 
  1688  009C                     	;# 
  1689  009D                     	;# 
  1690  009E                     	;# 
  1691  009F                     	;# 
  1692  010C                     	;# 
  1693  010D                     	;# 
  1694  010E                     	;# 
  1695  0116                     	;# 
  1696  0117                     	;# 
  1697  011D                     	;# 
  1698  018C                     	;# 
  1699  018D                     	;# 
  1700  018E                     	;# 
  1701  0191                     	;# 
  1702  0191                     	;# 
  1703  0192                     	;# 
  1704  0193                     	;# 
  1705  0193                     	;# 
  1706  0194                     	;# 
  1707  0195                     	;# 
  1708  0196                     	;# 
  1709  0199                     	;# 
  1710  019A                     	;# 
  1711  019B                     	;# 
  1712  019B                     	;# 
  1713  019C                     	;# 
  1714  019D                     	;# 
  1715  019E                     	;# 
  1716  019F                     	;# 
  1717  020C                     	;# 
  1718  020D                     	;# 
  1719  0211                     	;# 
  1720  0211                     	;# 
  1721  0212                     	;# 
  1722  0212                     	;# 
  1723  0213                     	;# 
  1724  0213                     	;# 
  1725  0214                     	;# 
  1726  0214                     	;# 
  1727  0215                     	;# 
  1728  0215                     	;# 
  1729  0215                     	;# 
  1730  0216                     	;# 
  1731  0216                     	;# 
  1732  0217                     	;# 
  1733  0217                     	;# 
  1734  0391                     	;# 
  1735  0392                     	;# 
  1736  0393                     	;# 
  1737  0394                     	;# 
  1738  0395                     	;# 
  1739  0396                     	;# 
  1740  0611                     	;# 
  1741  0612                     	;# 
  1742  0613                     	;# 
  1743  0613                     	;# 
  1744  0614                     	;# 
  1745  0615                     	;# 
  1746  0616                     	;# 
  1747  0616                     	;# 
  1748  0711                     	;# 
  1749  0711                     	;# 
  1750  0711                     	;# 
  1751  0712                     	;# 
  1752  0712                     	;# 
  1753  0713                     	;# 
  1754  0713                     	;# 
  1755  0713                     	;# 
  1756  0714                     	;# 
  1757  0714                     	;# 
  1758  0714                     	;# 
  1759  0715                     	;# 
  1760  0715                     	;# 
  1761  0716                     	;# 
  1762  0716                     	;# 
  1763  0716                     	;# 
  1764  0716                     	;# 
  1765  0717                     	;# 
  1766  0717                     	;# 
  1767  0717                     	;# 
  1768  0717                     	;# 
  1769  0718                     	;# 
  1770  0718                     	;# 
  1771  0718                     	;# 
  1772  0719                     	;# 
  1773  0719                     	;# 
  1774  0719                     	;# 
  1775  0719                     	;# 
  1776  071A                     	;# 
  1777  071A                     	;# 
  1778  071A                     	;# 
  1779  071A                     	;# 
  1780  071A                     	;# 
  1781  071B                     	;# 
  1782  071B                     	;# 
  1783  071C                     	;# 
  1784  071C                     	;# 
  1785  071C                     	;# 
  1786  071C                     	;# 
  1787  071C                     	;# 
  1788  071D                     	;# 
  1789  071D                     	;# 
  1790  071E                     	;# 
  1791  071E                     	;# 
  1792  0791                     	;# 
  1793  0791                     	;# 
  1794  0793                     	;# 
  1795  0793                     	;# 
  1796  0794                     	;# 
  1797  0794                     	;# 
  1798  0796                     	;# 
  1799  0796                     	;# 
  1800  0796                     	;# 
  1801  0797                     	;# 
  1802  0797                     	;# 
  1803  0797                     	;# 
  1804  0798                     	;# 
  1805  0798                     	;# 
  1806  0799                     	;# 
  1807  0799                     	;# 
  1808  0799                     	;# 
  1809  079A                     	;# 
  1810  079A                     	;# 
  1811  079A                     	;# 
  1812  079B                     	;# 
  1813  079C                     	;# 
  1814  079C                     	;# 
  1815  079C                     	;# 
  1816  079D                     	;# 
  1817  079E                     	;# 
  1818  079E                     	;# 
  1819  0F8C                     	;# 
  1820  0F8D                     	;# 
  1821  0F91                     	;# 
  1822  0F96                     	;# 
  1823  0F97                     	;# 
  1824  0F9C                     	;# 
  1825  0F9D                     	;# 
  1826  0F9E                     	;# 
  1827  0FE3                     	;# 
  1828  0FE4                     	;# 
  1829  0FE5                     	;# 
  1830  0FE6                     	;# 
  1831  0FE7                     	;# 
  1832  0FE8                     	;# 
  1833  0FE9                     	;# 
  1834  0FEA                     	;# 
  1835  0FEB                     	;# 
  1836  0FED                     	;# 
  1837  0FEE                     	;# 
  1838  0FEF                     	;# 
  1839  0000                     	;# 
  1840  0001                     	;# 
  1841  0002                     	;# 
  1842  0003                     	;# 
  1843  0004                     	;# 
  1844  0005                     	;# 
  1845  0006                     	;# 
  1846  0007                     	;# 
  1847  0008                     	;# 
  1848  0009                     	;# 
  1849  000A                     	;# 
  1850  000B                     	;# 
  1851  000C                     	;# 
  1852  000D                     	;# 
  1853  000E                     	;# 
  1854  0011                     	;# 
  1855  0012                     	;# 
  1856  0015                     	;# 
  1857  0016                     	;# 
  1858  0016                     	;# 
  1859  0017                     	;# 
  1860  0018                     	;# 
  1861  0019                     	;# 
  1862  001A                     	;# 
  1863  001B                     	;# 
  1864  001C                     	;# 
  1865  008C                     	;# 
  1866  008D                     	;# 
  1867  008E                     	;# 
  1868  0091                     	;# 
  1869  0092                     	;# 
  1870  0095                     	;# 
  1871  0096                     	;# 
  1872  0097                     	;# 
  1873  0099                     	;# 
  1874  009A                     	;# 
  1875  009B                     	;# 
  1876  009B                     	;# 
  1877  009C                     	;# 
  1878  009D                     	;# 
  1879  009E                     	;# 
  1880  009F                     	;# 
  1881  010C                     	;# 
  1882  010D                     	;# 
  1883  010E                     	;# 
  1884  0116                     	;# 
  1885  0117                     	;# 
  1886  011D                     	;# 
  1887  018C                     	;# 
  1888  018D                     	;# 
  1889  018E                     	;# 
  1890  0191                     	;# 
  1891  0191                     	;# 
  1892  0192                     	;# 
  1893  0193                     	;# 
  1894  0193                     	;# 
  1895  0194                     	;# 
  1896  0195                     	;# 
  1897  0196                     	;# 
  1898  0199                     	;# 
  1899  019A                     	;# 
  1900  019B                     	;# 
  1901  019B                     	;# 
  1902  019C                     	;# 
  1903  019D                     	;# 
  1904  019E                     	;# 
  1905  019F                     	;# 
  1906  020C                     	;# 
  1907  020D                     	;# 
  1908  0211                     	;# 
  1909  0211                     	;# 
  1910  0212                     	;# 
  1911  0212                     	;# 
  1912  0213                     	;# 
  1913  0213                     	;# 
  1914  0214                     	;# 
  1915  0214                     	;# 
  1916  0215                     	;# 
  1917  0215                     	;# 
  1918  0215                     	;# 
  1919  0216                     	;# 
  1920  0216                     	;# 
  1921  0217                     	;# 
  1922  0217                     	;# 
  1923  0391                     	;# 
  1924  0392                     	;# 
  1925  0393                     	;# 
  1926  0394                     	;# 
  1927  0395                     	;# 
  1928  0396                     	;# 
  1929  0611                     	;# 
  1930  0612                     	;# 
  1931  0613                     	;# 
  1932  0613                     	;# 
  1933  0614                     	;# 
  1934  0615                     	;# 
  1935  0616                     	;# 
  1936  0616                     	;# 
  1937  0711                     	;# 
  1938  0711                     	;# 
  1939  0711                     	;# 
  1940  0712                     	;# 
  1941  0712                     	;# 
  1942  0713                     	;# 
  1943  0713                     	;# 
  1944  0713                     	;# 
  1945  0714                     	;# 
  1946  0714                     	;# 
  1947  0714                     	;# 
  1948  0715                     	;# 
  1949  0715                     	;# 
  1950  0716                     	;# 
  1951  0716                     	;# 
  1952  0716                     	;# 
  1953  0716                     	;# 
  1954  0717                     	;# 
  1955  0717                     	;# 
  1956  0717                     	;# 
  1957  0717                     	;# 
  1958  0718                     	;# 
  1959  0718                     	;# 
  1960  0718                     	;# 
  1961  0719                     	;# 
  1962  0719                     	;# 
  1963  0719                     	;# 
  1964  0719                     	;# 
  1965  071A                     	;# 
  1966  071A                     	;# 
  1967  071A                     	;# 
  1968  071A                     	;# 
  1969  071A                     	;# 
  1970  071B                     	;# 
  1971  071B                     	;# 
  1972  071C                     	;# 
  1973  071C                     	;# 
  1974  071C                     	;# 
  1975  071C                     	;# 
  1976  071C                     	;# 
  1977  071D                     	;# 
  1978  071D                     	;# 
  1979  071E                     	;# 
  1980  071E                     	;# 
  1981  0791                     	;# 
  1982  0791                     	;# 
  1983  0793                     	;# 
  1984  0793                     	;# 
  1985  0794                     	;# 
  1986  0794                     	;# 
  1987  0796                     	;# 
  1988  0796                     	;# 
  1989  0796                     	;# 
  1990  0797                     	;# 
  1991  0797                     	;# 
  1992  0797                     	;# 
  1993  0798                     	;# 
  1994  0798                     	;# 
  1995  0799                     	;# 
  1996  0799                     	;# 
  1997  0799                     	;# 
  1998  079A                     	;# 
  1999  079A                     	;# 
  2000  079A                     	;# 
  2001  079B                     	;# 
  2002  079C                     	;# 
  2003  079C                     	;# 
  2004  079C                     	;# 
  2005  079D                     	;# 
  2006  079E                     	;# 
  2007  079E                     	;# 
  2008  0F8C                     	;# 
  2009  0F8D                     	;# 
  2010  0F91                     	;# 
  2011  0F96                     	;# 
  2012  0F97                     	;# 
  2013  0F9C                     	;# 
  2014  0F9D                     	;# 
  2015  0F9E                     	;# 
  2016  0FE3                     	;# 
  2017  0FE4                     	;# 
  2018  0FE5                     	;# 
  2019  0FE6                     	;# 
  2020  0FE7                     	;# 
  2021  0FE8                     	;# 
  2022  0FE9                     	;# 
  2023  0FEA                     	;# 
  2024  0FEB                     	;# 
  2025  0FED                     	;# 
  2026  0FEE                     	;# 
  2027  0FEF                     	;# 
  2028                           
  2029                           	psect	idataBANK0
  2030  0974                     __pidataBANK0:	
  2031                           
  2032                           ;initializer for _callback_sampled
  2033  0974  34FF               	retlw	low _Sensor_DefaultCallback
  2034  0975  3407               	retlw	high _Sensor_DefaultCallback
  2035                           
  2036                           ;initializer for _sample_period
  2037  0976  34AE               	retlw	174
  2038                           
  2039                           	psect	idataBANK1
  2040  0A5B                     __pidataBANK1:	
  2041                           
  2042                           ;initializer for _Proximity_StateMachine
  2043  0A5B  3450               	retlw	low _Proximity_State_Initializing
  2044  0A5C  340E               	retlw	high _Proximity_State_Initializing
  2045  0A5D  3498               	retlw	low _Proximity_State_NotActivated
  2046  0A5E  3403               	retlw	high _Proximity_State_NotActivated
  2047  0A5F  342C               	retlw	low _Proximity_State_Activated
  2048  0A60  340F               	retlw	high _Proximity_State_Activated
  2049                           
  2050                           ;initializer for _mtouch_sensor
  2051  0A61  3400               	retlw	0
  2052  0A62  3431               	retlw	49
  2053  0A63  3430               	retlw	48
  2054  0A64  3410               	retlw	16
  2055  0A65  3420               	retlw	32
  2056  0A66  3400               	retlw	0
  2057  0A67  3400               	retlw	0
  2058  0A68  3400               	retlw	0
  2059  0A69  3400               	retlw	0
  2060                           
  2061                           	psect	stringtext1
  2062  1012                     __pstringtext1:	
  2063  1012                     Sensor_Scanfrequency_Evaluation@frequency_hop:	
  2064  1012  3400               	retlw	0
  2065  1013  340D               	retlw	13
  2066  1014  341C               	retlw	28
  2067  1015  341E               	retlw	30
  2068  1016  3417               	retlw	23
  2069  1017                     __end_ofSensor_Scanfrequency_Evaluation@frequency_hop:	
  2070                           
  2071                           	psect	stringtext2
  2072  1017                     __pstringtext2:	
  2073  1017                     _sensor_scan_group:	
  2074  1017  34BE               	retlw	low (_mtouch_sensor| 0)
  2075  1018  3400               	retlw	0
  2076  1019                     __end_of_sensor_scan_group:	
  2077                           
  2078                           	psect	stringtext3
  2079  1000                     __pstringtext3:	
  2080  1000                     _mtouch_proximity_init:	
  2081  1000  3400               	retlw	0
  2082  1001  3400               	retlw	0
  2083  1002  3400               	retlw	0
  2084  1003  3400               	retlw	0
  2085  1004  3400               	retlw	0
  2086  1005  3400               	retlw	0
  2087  1006  3400               	retlw	0
  2088  1007  3400               	retlw	0
  2089  1008  3400               	retlw	0
  2090  1009  3400               	retlw	0
  2091  100A  3400               	retlw	0
  2092  100B  3400               	retlw	0
  2093  100C  3400               	retlw	0
  2094  100D  3400               	retlw	0
  2095  100E  3400               	retlw	0
  2096  100F  3400               	retlw	0
  2097  1010  3478               	retlw	120
  2098  1011  3400               	retlw	0
  2099  1012                     __end_of_mtouch_proximity_init:	
  2100                           
  2101                           	psect	nvBANK0
  2102  006A                     __pnvBANK0:	
  2103  006A                     _EUSART_TxDefaultInterruptHandler:	
  2104  006A                     	ds	2
  2105  006C                     _eusartTxBufferRemaining:	
  2106  006C                     	ds	1
  2107                           
  2108                           	psect	nvBANK1
  2109  00C7                     __pnvBANK1:	
  2110  00C7                     _EUSART_ErrorHandler:	
  2111  00C7                     	ds	2
  2112  00C9                     _EUSART_OverrunErrorHandler:	
  2113  00C9                     	ds	2
  2114  00CB                     _EUSART_FramingErrorHandler:	
  2115  00CB                     	ds	2
  2116  00CD                     _EUSART_RxDefaultInterruptHandler:	
  2117  00CD                     	ds	2
  2118  001C                     _T2CON	set	28
  2119  001A                     _TMR2	set	26
  2120  001B                     _PR2	set	27
  2121  000B                     _INTCONbits	set	11
  2122  0012                     _PIR2bits	set	18
  2123  0011                     _PIR1bits	set	17
  2124  001C                     _T2CONbits	set	28
  2125  005F                     _GIE	set	95
  2126  0095                     _OPTION_REGbits	set	149
  2127  008E                     _TRISC	set	142
  2128  008D                     _TRISB	set	141
  2129  008C                     _TRISA	set	140
  2130  0097                     _WDTCON	set	151
  2131  0099                     _OSCCON	set	153
  2132  0091                     _PIE1bits	set	145
  2133  010E                     _LATCbits	set	270
  2134  010C                     _LATAbits	set	268
  2135  011D                     _APFCON	set	285
  2136  010E                     _LATC	set	270
  2137  010D                     _LATB	set	269
  2138  010C                     _LATA	set	268
  2139  0116                     _BORCON	set	278
  2140  011D                     _APFCONbits	set	285
  2141  018C                     _ANSELA	set	396
  2142  018D                     _ANSELB	set	397
  2143  018E                     _ANSELC	set	398
  2144  0199                     _RCREG	set	409
  2145  019D                     _RCSTAbits	set	413
  2146  019A                     _TXREG	set	410
  2147  019E                     _TXSTAbits	set	414
  2148  019C                     _SPBRGH	set	412
  2149  019B                     _SPBRGL	set	411
  2150  019E                     _TXSTA	set	414
  2151  019D                     _RCSTA	set	413
  2152  019F                     _BAUDCON	set	415
  2153  020C                     _WPUA	set	524
  2154  020D                     _WPUB	set	525
  2155  071A                     _AAD1RES0	set	1818
  2156  0711                     _AD1CON0bits	set	1809
  2157  0714                     _AAD1CON3	set	1812
  2158  0713                     _AD1CON2	set	1811
  2159  0717                     _AD1ACQCON	set	1815
  2160  0716                     _AD1PRECON	set	1814
  2161  0718                     _AAD1GRD	set	1816
  2162  0713                     _AAD1CON2	set	1811
  2163  0719                     _AAD1CAP	set	1817
  2164  0714                     _AD1CON3	set	1812
  2165  0712                     _ADCOMCON	set	1810
  2166  0711                     _AD1CON0	set	1809
  2167  079A                     _AAD2RES0	set	1946
  2168  0791                     _AD2CON0bits	set	1937
  2169  0797                     _AD2ACQCON	set	1943
  2170  0796                     _AD2PRECON	set	1942
  2171  0794                     _AAD2CON3	set	1940
  2172  0798                     _AAD2GRD	set	1944
  2173  0793                     _AD2CON2	set	1939
  2174  0794                     _AD2CON3	set	1940
  2175  0791                     _AD2CON0	set	1937
  2176                           
  2177                           ; #config settings
  2178  0000                     
  2179                           	psect	cinit
  2180  002F                     start_initialization:	
  2181  002F                     __initialization:	
  2182                           
  2183                           ; Initialize objects allocated to BANK0
  2184  002F  3074               	movlw	low __pidataBANK0
  2185  0030  0084               	movwf	4
  2186  0031  3089               	movlw	(high __pidataBANK0)| (0+128)
  2187  0032  0085               	movwf	5
  2188  0033  306D               	movlw	low __pdataBANK0
  2189  0034  0086               	movwf	6
  2190  0035  3000               	movlw	high __pdataBANK0
  2191  0036  0087               	movwf	7
  2192  0037  3003               	movlw	3
  2193  0038  3189  21C4  3180   	fcall	init_ram
  2194                           
  2195                           ; Initialize objects allocated to BANK1
  2196  003B  305B               	movlw	low __pidataBANK1
  2197  003C  0084               	movwf	4
  2198  003D  308A               	movlw	(high __pidataBANK1)| (0+128)
  2199  003E  0085               	movwf	5
  2200  003F  30B8               	movlw	low __pdataBANK1
  2201  0040  0086               	movwf	6
  2202  0041  3000               	movlw	high __pdataBANK1
  2203  0042  0087               	movwf	7
  2204  0043  300F               	movlw	15
  2205  0044  3189  21C4  3180   	fcall	init_ram
  2206                           
  2207                           ; Clear objects allocated to COMMON
  2208  0047  01FC               	clrf	__pbssCOMMON& (0+127)
  2209                           
  2210                           ; Clear objects allocated to BANK0
  2211  0048  304A               	movlw	low __pbssBANK0
  2212  0049  0084               	movwf	4
  2213  004A  3000               	movlw	high __pbssBANK0
  2214  004B  0085               	movwf	5
  2215  004C  3020               	movlw	32
  2216  004D  3189  21BE  3180   	fcall	clear_ram0
  2217                           
  2218                           ; Clear objects allocated to BANK1
  2219  0050  30A0               	movlw	low __pbssBANK1
  2220  0051  0084               	movwf	4
  2221  0052  3000               	movlw	high __pbssBANK1
  2222  0053  0085               	movwf	5
  2223  0054  3018               	movlw	24
  2224  0055  3189  21BE  3180   	fcall	clear_ram0
  2225  0058                     end_of_initialization:	
  2226                           ;End of C runtime variable initialization code
  2227                           
  2228  0058                     __end_of__initialization:	
  2229  0058  107E               	bcf	int$flags,0	;clear compiler interrupt flag (level 1)
  2230  0059  0020               	movlb	0
  2231  005A  318E  2E94         	ljmp	_main	;jump to C main() function
  2232                           
  2233                           	psect	bssCOMMON
  2234  007C                     __pbssCOMMON:	
  2235  007C                     _eusartRxHead:	
  2236  007C                     	ds	1
  2237                           
  2238                           	psect	bssBANK0
  2239  004A                     __pbssBANK0:	
  2240  004A                     _packet_sample:	
  2241  004A                     	ds	4
  2242  004E                     _packet_noise:	
  2243  004E                     	ds	2
  2244  0050                     _eusartRxLastError:	
  2245  0050                     	ds	1
  2246  0051                     _eusartRxCount:	
  2247  0051                     	ds	1
  2248  0052                     _eusartRxTail:	
  2249  0052                     	ds	1
  2250  0053                     _eusartTxTail:	
  2251  0053                     	ds	1
  2252  0054                     _eusartTxHead:	
  2253  0054                     	ds	1
  2254  0055                     _mtouch_time_toScan:	
  2255  0055                     	ds	1
  2256  0056                     _sensor_globalFlags:	
  2257  0056                     	ds	1
  2258  0057                     _lowpowerActivated:	
  2259  0057                     	ds	1
  2260  0058                     _mtouch_proximity:	
  2261  0058                     	ds	18
  2262                           
  2263                           	psect	dataBANK0
  2264  006D                     __pdataBANK0:	
  2265  006D                     _callback_sampled:	
  2266  006D                     	ds	2
  2267  006F                     _sample_period:	
  2268  006F                     	ds	1
  2269                           
  2270                           	psect	bssBANK1
  2271  00A0                     __pbssBANK1:	
  2272  00A0                     _eusartRxStatusBuffer:	
  2273  00A0                     	ds	8
  2274  00A8                     _eusartRxBuffer:	
  2275  00A8                     	ds	8
  2276  00B0                     _eusartTxBuffer:	
  2277  00B0                     	ds	8
  2278                           
  2279                           	psect	dataBANK1
  2280  00B8                     __pdataBANK1:	
  2281  00B8                     _Proximity_StateMachine:	
  2282  00B8                     	ds	6
  2283  00BE                     _mtouch_sensor:	
  2284  00BE                     	ds	9
  2285                           
  2286                           	psect	inittext
  2287  09C4                     init_ram:	
  2288  09C4  00FE               	movwf	btemp
  2289  09C5                     initloop:	
  2290  09C5  0012               	moviw fsr0++
  2291  09C6  001E               	movwi fsr1++
  2292  09C7  0BFE               	decfsz	btemp,f
  2293  09C8  29C5               	goto	initloop
  2294  09C9  3400               	retlw	0
  2295                           
  2296                           	psect	clrtext
  2297  09BE                     clear_ram0:	
  2298                           ;	Called with FSR0 containing the base address, and
  2299                           ;	WREG with the size to clear
  2300                           
  2301  09BE  0064               	clrwdt	;clear the watchdog before getting into this loop
  2302  09BF                     clrloop0:	
  2303  09BF  0180               	clrf	0	;clear RAM location pointed to by FSR
  2304  09C0  3101               	addfsr 0,1
  2305  09C1  0B89               	decfsz	9,f	;Have we reached the end of clearing yet?
  2306  09C2  29BF               	goto	clrloop0	;have we reached the end yet?
  2307  09C3  3400               	retlw	0	;all done for this memory range, return
  2308                           
  2309                           	psect	cstackCOMMON
  2310  0070                     __pcstackCOMMON:	
  2311  0070                     ?_MTOUCH_Service_Mainloop:	
  2312  0070                     ?_MTOUCH_Proximity_isActivated:	
  2313                           ; 1 bytes @ 0x0
  2314                           
  2315  0070                     ?_MTOUCH_Sensor_Enable:	
  2316                           ; 1 bytes @ 0x0
  2317                           
  2318  0070                     ?_MTOUCH_Sensor_Calibrate:	
  2319                           ; 1 bytes @ 0x0
  2320                           
  2321  0070                     ?_Sensor_Sampled_Reset:	
  2322                           ; 1 bytes @ 0x0
  2323                           
  2324  0070                     ?_Sensor_Service:	
  2325                           ; 1 bytes @ 0x0
  2326                           
  2327  0070                     ?_Sensor_isEnabled:	
  2328                           ; 1 bytes @ 0x0
  2329                           
  2330  0070                     ?_Sensor_RawSample_Update:	
  2331                           ; 1 bytes @ 0x0
  2332                           
  2333  0070                     ?_Sensor_setSampled:	
  2334                           ; 1 bytes @ 0x0
  2335                           
  2336  0070                     ?_Sensor_postAcquisitionProcess:	
  2337                           ; 1 bytes @ 0x0
  2338                           
  2339  0070                     ?_Sensor_isActive:	
  2340                           ; 1 bytes @ 0x0
  2341                           
  2342  0070                     ?_Sensor_isCalibrated:	
  2343                           ; 1 bytes @ 0x0
  2344                           
  2345  0070                     ?_Sensor_setActive:	
  2346                           ; 1 bytes @ 0x0
  2347                           
  2348  0070                     ?_Sensor_setInactive:	
  2349                           ; 1 bytes @ 0x0
  2350                           
  2351  0070                     ?_Sensor_isCalibratingAcqTime:	
  2352                           ; 1 bytes @ 0x0
  2353                           
  2354  0070                     ?_TMR2_LoadPeriodRegister:	
  2355                           ; 1 bytes @ 0x0
  2356                           
  2357  0070                     ?_TMR2_StartTimer:	
  2358                           ; 1 bytes @ 0x0
  2359                           
  2360  0070                     ?_TMR2_StopTimer:	
  2361                           ; 1 bytes @ 0x0
  2362                           
  2363  0070                     ?_Sensor_autoCalibration:	
  2364                           ; 1 bytes @ 0x0
  2365                           
  2366  0070                     ?_Sensor_setCalibratAcqTime:	
  2367                           ; 1 bytes @ 0x0
  2368                           
  2369  0070                     ?_Sensor_setCalibrated:	
  2370                           ; 1 bytes @ 0x0
  2371                           
  2372  0070                     ?_MTOUCH_Proximity_InitializeAll:	
  2373                           ; 1 bytes @ 0x0
  2374                           
  2375  0070                     ?_MTOUCH_Proximity_ServiceAll:	
  2376                           ; 1 bytes @ 0x0
  2377                           
  2378  0070                     ?_MTOUCH_needReburst:	
  2379                           ; 1 bytes @ 0x0
  2380                           
  2381  0070                     ?_MTOUCH_Tick:	
  2382                           ; 1 bytes @ 0x0
  2383                           
  2384  0070                     ?_MTOUCH_Proximity_Tick:	
  2385                           ; 1 bytes @ 0x0
  2386                           
  2387  0070                     ?_EUSART_Receive_ISR:	
  2388                           ; 1 bytes @ 0x0
  2389                           
  2390  0070                     ?_EUSART_Transmit_ISR:	
  2391                           ; 1 bytes @ 0x0
  2392                           
  2393  0070                     ??_EUSART_Transmit_ISR:	
  2394                           ; 1 bytes @ 0x0
  2395                           
  2396  0070                     ?_EUSART_DefaultFramingErrorHandler:	
  2397                           ; 1 bytes @ 0x0
  2398                           
  2399  0070                     ??_EUSART_DefaultFramingErrorHandler:	
  2400                           ; 1 bytes @ 0x0
  2401                           
  2402  0070                     ?_EUSART_DefaultOverrunErrorHandler:	
  2403                           ; 1 bytes @ 0x0
  2404                           
  2405  0070                     ??_EUSART_DefaultOverrunErrorHandler:	
  2406                           ; 1 bytes @ 0x0
  2407                           
  2408  0070                     ?_EUSART_DefaultErrorHandler:	
  2409                           ; 1 bytes @ 0x0
  2410                           
  2411  0070                     ?_EUSART_RxDataHandler:	
  2412                           ; 1 bytes @ 0x0
  2413                           
  2414  0070                     ??_EUSART_RxDataHandler:	
  2415                           ; 1 bytes @ 0x0
  2416                           
  2417  0070                     ?_PIN_MANAGER_Initialize:	
  2418                           ; 1 bytes @ 0x0
  2419                           
  2420  0070                     ?_OSCILLATOR_Initialize:	
  2421                           ; 1 bytes @ 0x0
  2422                           
  2423  0070                     ?_WDT_Initialize:	
  2424                           ; 1 bytes @ 0x0
  2425                           
  2426  0070                     ?_TMR2_Initialize:	
  2427                           ; 1 bytes @ 0x0
  2428                           
  2429  0070                     ?_Proximity_Service:	
  2430                           ; 1 bytes @ 0x0
  2431                           
  2432  0070                     ?_Proximity_Reading_Update:	
  2433                           ; 1 bytes @ 0x0
  2434                           
  2435  0070                     ?_Proximity_Deviation_Update:	
  2436                           ; 1 bytes @ 0x0
  2437                           
  2438  0070                     ?_Proximity_Baseline_Initialize:	
  2439                           ; 1 bytes @ 0x0
  2440                           
  2441  0070                     ?_Proximity_Baseline_Update:	
  2442                           ; 1 bytes @ 0x0
  2443                           
  2444  0070                     ?_Proximity_Tick_helper:	
  2445                           ; 1 bytes @ 0x0
  2446                           
  2447  0070                     ?_Proximity_Reading_Update_Helper:	
  2448                           ; 1 bytes @ 0x0
  2449                           
  2450  0070                     ?_MTOUCH_Sensor_Initialize:	
  2451                           ; 1 bytes @ 0x0
  2452                           
  2453  0070                     ?_MTOUCH_Sensor_InitializeAll:	
  2454                           ; 1 bytes @ 0x0
  2455                           
  2456  0070                     ?_MTOUCH_Sensor_Scan_Initialize:	
  2457                           ; 1 bytes @ 0x0
  2458                           
  2459  0070                     ?_MTOUCH_Sensor_SampleAll:	
  2460                           ; 1 bytes @ 0x0
  2461                           
  2462  0070                     ?_Sensor_getScanGroupIndex:	
  2463                           ; 1 bytes @ 0x0
  2464                           
  2465  0070                     ?_MTOUCH_Sensor_isCalibrated:	
  2466                           ; 1 bytes @ 0x0
  2467                           
  2468  0070                     ?_MTOUCH_Sensor_Sampled_ResetAll:	
  2469                           ; 1 bytes @ 0x0
  2470                           
  2471  0070                     ?_MTOUCH_Sensor_wasSampled:	
  2472                           ; 1 bytes @ 0x0
  2473                           
  2474  0070                     ?_MTOUCH_Initialize:	
  2475                           ; 1 bytes @ 0x0
  2476                           
  2477  0070                     ?_EUSART_Initialize:	
  2478                           ; 1 bytes @ 0x0
  2479                           
  2480  0070                     ?_EUSART_is_tx_ready:	
  2481                           ; 1 bytes @ 0x0
  2482                           
  2483  0070                     ?_EUSART_is_tx_done:	
  2484                           ; 1 bytes @ 0x0
  2485                           
  2486  0070                     ?_EUSART_Write:	
  2487                           ; 1 bytes @ 0x0
  2488                           
  2489  0070                     ?_INTERRUPT_InterruptManager:	
  2490                           ; 1 bytes @ 0x0
  2491                           
  2492  0070                     ?_SYSTEM_Initialize:	
  2493                           ; 1 bytes @ 0x0
  2494                           
  2495  0070                     ?_main:	
  2496                           ; 1 bytes @ 0x0
  2497                           
  2498  0070                     ?_MTOUCH_Proximity_Initialize:	
  2499                           ; 1 bytes @ 0x0
  2500                           
  2501                           
  2502                           ; 1 bytes @ 0x0
  2503  0070                     	ds	1
  2504  0071                     ??_MTOUCH_Proximity_isActivated:	
  2505  0071                     ?_Sensor_DefaultCallback:	
  2506                           ; 1 bytes @ 0x1
  2507                           
  2508  0071                     ??_Sensor_Sampled_Reset:	
  2509                           ; 1 bytes @ 0x1
  2510                           
  2511  0071                     ??_Sensor_isEnabled:	
  2512                           ; 1 bytes @ 0x1
  2513                           
  2514  0071                     ??_Sensor_setSampled:	
  2515                           ; 1 bytes @ 0x1
  2516                           
  2517  0071                     ??_Sensor_isActive:	
  2518                           ; 1 bytes @ 0x1
  2519                           
  2520  0071                     ??_Sensor_isCalibrated:	
  2521                           ; 1 bytes @ 0x1
  2522                           
  2523  0071                     ??_Sensor_setActive:	
  2524                           ; 1 bytes @ 0x1
  2525                           
  2526  0071                     ??_Sensor_setInactive:	
  2527                           ; 1 bytes @ 0x1
  2528                           
  2529  0071                     ??_Sensor_isCalibratingAcqTime:	
  2530                           ; 1 bytes @ 0x1
  2531                           
  2532  0071                     ??_TMR2_LoadPeriodRegister:	
  2533                           ; 1 bytes @ 0x1
  2534                           
  2535  0071                     ??_TMR2_StartTimer:	
  2536                           ; 1 bytes @ 0x1
  2537                           
  2538  0071                     ??_TMR2_StopTimer:	
  2539                           ; 1 bytes @ 0x1
  2540                           
  2541  0071                     ??_Sensor_setCalibratAcqTime:	
  2542                           ; 1 bytes @ 0x1
  2543                           
  2544  0071                     ??_Sensor_setCalibrated:	
  2545                           ; 1 bytes @ 0x1
  2546                           
  2547  0071                     ??_MTOUCH_needReburst:	
  2548                           ; 1 bytes @ 0x1
  2549                           
  2550  0071                     ?_EUSART_SetRxInterruptHandler:	
  2551                           ; 1 bytes @ 0x1
  2552                           
  2553  0071                     ??_EUSART_Receive_ISR:	
  2554                           ; 1 bytes @ 0x1
  2555                           
  2556  0071                     ?_EUSART_SetTxInterruptHandler:	
  2557                           ; 1 bytes @ 0x1
  2558                           
  2559  0071                     ?_EUSART_SetFramingErrorHandler:	
  2560                           ; 1 bytes @ 0x1
  2561                           
  2562  0071                     ?_EUSART_SetOverrunErrorHandler:	
  2563                           ; 1 bytes @ 0x1
  2564                           
  2565  0071                     ?_EUSART_SetErrorHandler:	
  2566                           ; 1 bytes @ 0x1
  2567                           
  2568  0071                     ??_EUSART_DefaultErrorHandler:	
  2569                           ; 1 bytes @ 0x1
  2570                           
  2571  0071                     ??_PIN_MANAGER_Initialize:	
  2572                           ; 1 bytes @ 0x1
  2573                           
  2574  0071                     ??_OSCILLATOR_Initialize:	
  2575                           ; 1 bytes @ 0x1
  2576                           
  2577  0071                     ??_WDT_Initialize:	
  2578                           ; 1 bytes @ 0x1
  2579                           
  2580  0071                     ??_TMR2_Initialize:	
  2581                           ; 1 bytes @ 0x1
  2582                           
  2583  0071                     ?_MTOUCH_Proximity_Threshold_Set:	
  2584                           ; 1 bytes @ 0x1
  2585                           
  2586  0071                     ?_memcpy:	
  2587                           ; 1 bytes @ 0x1
  2588                           
  2589  0071                     ??_Proximity_Baseline_Update:	
  2590                           ; 1 bytes @ 0x1
  2591                           
  2592  0071                     ??_Proximity_Tick_helper:	
  2593                           ; 1 bytes @ 0x1
  2594                           
  2595  0071                     ??_MTOUCH_Sensor_Scan_Initialize:	
  2596                           ; 1 bytes @ 0x1
  2597                           
  2598  0071                     ??_Sensor_getScanGroupIndex:	
  2599                           ; 1 bytes @ 0x1
  2600                           
  2601  0071                     ??_EUSART_is_tx_ready:	
  2602                           ; 1 bytes @ 0x1
  2603                           
  2604  0071                     ??_EUSART_is_tx_done:	
  2605                           ; 1 bytes @ 0x1
  2606                           
  2607  0071                     ??_EUSART_Write:	
  2608                           ; 1 bytes @ 0x1
  2609                           
  2610  0071                     ??_INTERRUPT_InterruptManager:	
  2611                           ; 1 bytes @ 0x1
  2612                           
  2613  0071                     ??_MTOUCH_Proximity_Initialize:	
  2614                           ; 1 bytes @ 0x1
  2615                           
  2616  0071                     ?___bmul:	
  2617                           ; 1 bytes @ 0x1
  2618                           
  2619  0071                     ?_abs:	
  2620                           ; 1 bytes @ 0x1
  2621                           
  2622  0071                     ?_MTOUCH_Proximity_Reading_Get:	
  2623                           ; 2 bytes @ 0x1
  2624                           
  2625  0071                     ?_Proximity_Baseline_Get_helper:	
  2626                           ; 4 bytes @ 0x1
  2627                           
  2628  0071                     Sensor_DefaultCallback@sensor:	
  2629                           ; 4 bytes @ 0x1
  2630                           
  2631  0071                     Sensor_setActive@sensor:	
  2632                           ; 1 bytes @ 0x1
  2633                           
  2634  0071                     Sensor_setInactive@sensor:	
  2635                           ; 1 bytes @ 0x1
  2636                           
  2637  0071                     Sensor_isActive@sensor:	
  2638                           ; 1 bytes @ 0x1
  2639                           
  2640  0071                     Sensor_isCalibrated@sensor:	
  2641                           ; 1 bytes @ 0x1
  2642                           
  2643  0071                     Sensor_setCalibrated@sensor:	
  2644                           ; 1 bytes @ 0x1
  2645                           
  2646  0071                     Sensor_setCalibratAcqTime@sensor:	
  2647                           ; 1 bytes @ 0x1
  2648                           
  2649  0071                     Sensor_isCalibratingAcqTime@sensor:	
  2650                           ; 1 bytes @ 0x1
  2651                           
  2652  0071                     Sensor_Sampled_Reset@sensor:	
  2653                           ; 1 bytes @ 0x1
  2654                           
  2655  0071                     Sensor_setSampled@sensor:	
  2656                           ; 1 bytes @ 0x1
  2657                           
  2658  0071                     TMR2_LoadPeriodRegister@periodVal:	
  2659                           ; 1 bytes @ 0x1
  2660                           
  2661  0071                     MTOUCH_Proximity_Threshold_Set@threshold:	
  2662                           ; 1 bytes @ 0x1
  2663                           
  2664  0071                     MTOUCH_Proximity_isActivated@name:	
  2665                           ; 1 bytes @ 0x1
  2666                           
  2667  0071                     ___bmul@multiplicand:	
  2668                           ; 1 bytes @ 0x1
  2669                           
  2670  0071                     EUSART_SetFramingErrorHandler@interruptHandler:	
  2671                           ; 1 bytes @ 0x1
  2672                           
  2673  0071                     EUSART_SetOverrunErrorHandler@interruptHandler:	
  2674                           ; 2 bytes @ 0x1
  2675                           
  2676  0071                     EUSART_SetErrorHandler@interruptHandler:	
  2677                           ; 2 bytes @ 0x1
  2678                           
  2679  0071                     EUSART_SetTxInterruptHandler@interruptHandler:	
  2680                           ; 2 bytes @ 0x1
  2681                           
  2682  0071                     EUSART_SetRxInterruptHandler@interruptHandler:	
  2683                           ; 2 bytes @ 0x1
  2684                           
  2685  0071                     abs@a:	
  2686                           ; 2 bytes @ 0x1
  2687                           
  2688  0071                     memcpy@s1:	
  2689                           ; 2 bytes @ 0x1
  2690                           
  2691                           
  2692                           ; 2 bytes @ 0x1
  2693  0071                     	ds	1
  2694  0072                     ??_Sensor_DefaultCallback:	
  2695  0072                     ??_MTOUCH_Proximity_Threshold_Set:	
  2696                           ; 1 bytes @ 0x2
  2697                           
  2698  0072                     ?_Sensor_loadADCSettings:	
  2699                           ; 1 bytes @ 0x2
  2700                           
  2701  0072                     ??_MTOUCH_Sensor_Sampled_ResetAll:	
  2702                           ; 1 bytes @ 0x2
  2703                           
  2704  0072                     ??___bmul:	
  2705                           ; 1 bytes @ 0x2
  2706                           
  2707  0072                     Sensor_loadADCSettings@adc_index:	
  2708                           ; 1 bytes @ 0x2
  2709                           
  2710  0072                     Sensor_isEnabled@sensor:	
  2711                           ; 1 bytes @ 0x2
  2712                           
  2713  0072                     EUSART_Write@txData:	
  2714                           ; 1 bytes @ 0x2
  2715                           
  2716  0072                     MTOUCH_Proximity_Initialize@name:	
  2717                           ; 1 bytes @ 0x2
  2718                           
  2719                           
  2720                           ; 1 bytes @ 0x2
  2721  0072                     	ds	1
  2722  0073                     ??_abs:	
  2723  0073                     ??_EUSART_SetRxInterruptHandler:	
  2724                           ; 1 bytes @ 0x3
  2725                           
  2726  0073                     ??_EUSART_SetTxInterruptHandler:	
  2727                           ; 1 bytes @ 0x3
  2728                           
  2729  0073                     ??_EUSART_SetFramingErrorHandler:	
  2730                           ; 1 bytes @ 0x3
  2731                           
  2732  0073                     ??_EUSART_SetOverrunErrorHandler:	
  2733                           ; 1 bytes @ 0x3
  2734                           
  2735  0073                     ??_EUSART_SetErrorHandler:	
  2736                           ; 1 bytes @ 0x3
  2737                           
  2738  0073                     ??_Sensor_loadADCSettings:	
  2739                           ; 1 bytes @ 0x3
  2740                           
  2741  0073                     ??_EUSART_Initialize:	
  2742                           ; 1 bytes @ 0x3
  2743                           
  2744  0073                     Sensor_getScanGroupIndex@sensor:	
  2745                           ; 1 bytes @ 0x3
  2746                           
  2747  0073                     MTOUCH_Sensor_Sampled_ResetAll@sensor:	
  2748                           ; 1 bytes @ 0x3
  2749                           
  2750  0073                     MTOUCH_Proximity_Initialize@prox:	
  2751                           ; 1 bytes @ 0x3
  2752                           
  2753  0073                     Proximity_Tick_helper@prox:	
  2754                           ; 1 bytes @ 0x3
  2755                           
  2756  0073                     MTOUCH_Proximity_Threshold_Set@name:	
  2757                           ; 1 bytes @ 0x3
  2758                           
  2759  0073                     ___bmul@product:	
  2760                           ; 1 bytes @ 0x3
  2761                           
  2762  0073                     memcpy@n:	
  2763                           ; 1 bytes @ 0x3
  2764                           
  2765                           
  2766                           ; 2 bytes @ 0x3
  2767  0073                     	ds	1
  2768  0074                     ??_MTOUCH_Tick:	
  2769  0074                     ??_MTOUCH_Proximity_Tick:	
  2770                           ; 1 bytes @ 0x4
  2771                           
  2772  0074                     Sensor_getScanGroupIndex@sensorGroup:	
  2773                           ; 1 bytes @ 0x4
  2774                           
  2775  0074                     ___bmul@multiplier:	
  2776                           ; 1 bytes @ 0x4
  2777                           
  2778                           
  2779                           ; 1 bytes @ 0x4
  2780  0074                     	ds	1
  2781  0075                     ??_MTOUCH_Sensor_Enable:	
  2782  0075                     ??_MTOUCH_Sensor_Calibrate:	
  2783                           ; 1 bytes @ 0x5
  2784                           
  2785  0075                     ??_Sensor_RawSample_Update:	
  2786                           ; 1 bytes @ 0x5
  2787                           
  2788  0075                     ??_Sensor_postAcquisitionProcess:	
  2789                           ; 1 bytes @ 0x5
  2790                           
  2791  0075                     ??_Sensor_autoCalibration:	
  2792                           ; 1 bytes @ 0x5
  2793                           
  2794  0075                     ??_memcpy:	
  2795                           ; 1 bytes @ 0x5
  2796                           
  2797  0075                     ??_Proximity_Baseline_Get_helper:	
  2798                           ; 1 bytes @ 0x5
  2799                           
  2800  0075                     ??_MTOUCH_Sensor_isCalibrated:	
  2801                           ; 1 bytes @ 0x5
  2802                           
  2803  0075                     ??_MTOUCH_Sensor_wasSampled:	
  2804                           ; 1 bytes @ 0x5
  2805                           
  2806  0075                     ?_MTOUCH_Sensor_RawSample_Get:	
  2807                           ; 1 bytes @ 0x5
  2808                           
  2809  0075                     Proximity_Baseline_Update@prox:	
  2810                           ; 2 bytes @ 0x5
  2811                           
  2812                           
  2813                           ; 1 bytes @ 0x5
  2814  0075                     	ds	1
  2815  0076                     ??_MTOUCH_Proximity_Reading_Get:	
  2816  0076                     Sensor_RawSample_Update@adcIndex:	
  2817                           ; 1 bytes @ 0x6
  2818                           
  2819  0076                     MTOUCH_Sensor_Enable@sensor:	
  2820                           ; 1 bytes @ 0x6
  2821                           
  2822  0076                     MTOUCH_Sensor_Calibrate@sensor:	
  2823                           ; 1 bytes @ 0x6
  2824                           
  2825  0076                     MTOUCH_Sensor_isCalibrated@sensor:	
  2826                           ; 1 bytes @ 0x6
  2827                           
  2828  0076                     MTOUCH_Sensor_wasSampled@sensor:	
  2829                           ; 1 bytes @ 0x6
  2830                           
  2831  0076                     MTOUCH_Proximity_Reading_Get@name:	
  2832                           ; 1 bytes @ 0x6
  2833                           
  2834  0076                     Sensor_postAcquisitionProcess@deviation:	
  2835                           ; 1 bytes @ 0x6
  2836                           
  2837  0076                     _Sensor_loadADCSettings$507:	
  2838                           ; 2 bytes @ 0x6
  2839                           
  2840  0076                     memcpy@s:	
  2841                           ; 2 bytes @ 0x6
  2842                           
  2843                           
  2844                           ; 2 bytes @ 0x6
  2845  0076                     	ds	1
  2846  0077                     ??_MTOUCH_Sensor_Initialize:	
  2847  0077                     ??_MTOUCH_Sensor_RawSample_Get:	
  2848                           ; 1 bytes @ 0x7
  2849                           
  2850  0077                     Sensor_RawSample_Update@sensor:	
  2851                           ; 1 bytes @ 0x7
  2852                           
  2853                           
  2854                           ; 1 bytes @ 0x7
  2855  0077                     	ds	1
  2856  0078                     MTOUCH_Sensor_Initialize@sensor:	
  2857  0078                     Sensor_postAcquisitionProcess@adcIndex:	
  2858                           ; 1 bytes @ 0x8
  2859                           
  2860  0078                     Sensor_loadADCSettings@addressOffset:	
  2861                           ; 1 bytes @ 0x8
  2862                           
  2863  0078                     MTOUCH_Sensor_RawSample_Get@name:	
  2864                           ; 1 bytes @ 0x8
  2865                           
  2866  0078                     memcpy@tmp:	
  2867                           ; 1 bytes @ 0x8
  2868                           
  2869                           
  2870                           ; 1 bytes @ 0x8
  2871  0078                     	ds	1
  2872  0079                     ??_MTOUCH_Sensor_InitializeAll:	
  2873  0079                     Sensor_postAcquisitionProcess@sensor:	
  2874                           ; 1 bytes @ 0x9
  2875                           
  2876  0079                     Sensor_loadADCSettings@sensor:	
  2877                           ; 1 bytes @ 0x9
  2878                           
  2879  0079                     Sensor_autoCalibration@adcIndex:	
  2880                           ; 1 bytes @ 0x9
  2881                           
  2882  0079                     Proximity_Reading_Update_Helper@prox:	
  2883                           ; 1 bytes @ 0x9
  2884                           
  2885  0079                     Proximity_Baseline_Initialize@prox:	
  2886                           ; 1 bytes @ 0x9
  2887                           
  2888  0079                     Proximity_Baseline_Get_helper@name:	
  2889                           ; 1 bytes @ 0x9
  2890                           
  2891  0079                     memcpy@d1:	
  2892                           ; 1 bytes @ 0x9
  2893                           
  2894                           
  2895                           ; 1 bytes @ 0x9
  2896  0079                     	ds	1
  2897  007A                     ??_Proximity_Reading_Update:	
  2898  007A                     ??_MTOUCH_Proximity_Baseline_Get:	
  2899                           ; 1 bytes @ 0xA
  2900                           
  2901  007A                     MTOUCH_Sensor_InitializeAll@sensor:	
  2902                           ; 1 bytes @ 0xA
  2903                           
  2904  007A                     Sensor_autoCalibration@sensor:	
  2905                           ; 1 bytes @ 0xA
  2906                           
  2907  007A                     Proximity_Reading_Update@prox:	
  2908                           ; 1 bytes @ 0xA
  2909                           
  2910  007A                     MTOUCH_Proximity_Baseline_Get@name:	
  2911                           ; 1 bytes @ 0xA
  2912                           
  2913  007A                     memcpy@d:	
  2914                           ; 1 bytes @ 0xA
  2915                           
  2916                           
  2917                           ; 1 bytes @ 0xA
  2918  007A                     	ds	1
  2919  007B                     ?_Sensor_Acq_ExecutePacket:	
  2920  007B                     ??_MTOUCH_Proximity_InitializeAll:	
  2921                           ; 1 bytes @ 0xB
  2922                           
  2923  007B                     ??_Proximity_Service:	
  2924                           ; 1 bytes @ 0xB
  2925                           
  2926  007B                     ??_MTOUCH_Initialize:	
  2927                           ; 1 bytes @ 0xB
  2928                           
  2929  007B                     ??_SYSTEM_Initialize:	
  2930                           ; 1 bytes @ 0xB
  2931                           
  2932  007B                     Sensor_Acq_ExecutePacket@sensor_adc2:	
  2933                           ; 1 bytes @ 0xB
  2934                           
  2935                           
  2936                           ; 1 bytes @ 0xB
  2937  007B                     	ds	1
  2938  007C                     ??_MTOUCH_Proximity_ServiceAll:	
  2939                           
  2940                           	psect	cstackBANK0
  2941  0020                     __pcstackBANK0:	
  2942                           ; 1 bytes @ 0xC
  2943                           
  2944  0020                     ??_Sensor_Acq_ExecutePacket:	
  2945  0020                     ??_Proximity_Baseline_Initialize:	
  2946                           ; 1 bytes @ 0x0
  2947                           
  2948  0020                     ??_Proximity_Reading_Update_Helper:	
  2949                           ; 1 bytes @ 0x0
  2950                           
  2951  0020                     ?_MTOUCH_Proximity_Baseline_Get:	
  2952                           ; 1 bytes @ 0x0
  2953                           
  2954                           
  2955                           ; 4 bytes @ 0x0
  2956  0020                     	ds	1
  2957  0021                     Sensor_Acq_ExecutePacket@ADCOMCON_temp:	
  2958                           
  2959                           ; 1 bytes @ 0x1
  2960  0021                     	ds	1
  2961  0022                     Sensor_Acq_ExecutePacket@AD1CON2_temp:	
  2962                           
  2963                           ; 1 bytes @ 0x2
  2964  0022                     	ds	1
  2965  0023                     Sensor_Acq_ExecutePacket@AD2CON2_temp:	
  2966                           
  2967                           ; 1 bytes @ 0x3
  2968  0023                     	ds	1
  2969  0024                     Sensor_Acq_ExecutePacket@sensor1ForceEnabled:	
  2970                           
  2971                           ; 1 bytes @ 0x4
  2972  0024                     	ds	1
  2973  0025                     ?_Proximity_State_Initializing:	
  2974  0025                     ?_Proximity_State_NotActivated:	
  2975                           ; 1 bytes @ 0x5
  2976                           
  2977  0025                     ?_Proximity_State_Activated:	
  2978                           ; 1 bytes @ 0x5
  2979                           
  2980  0025                     ??_Proximity_Deviation_Update:	
  2981                           ; 1 bytes @ 0x5
  2982                           
  2983  0025                     Sensor_Acq_ExecutePacket@sensor2ForceEnabled:	
  2984                           ; 1 bytes @ 0x5
  2985                           
  2986  0025                     Proximity_State_Initializing@prox:	
  2987                           ; 1 bytes @ 0x5
  2988                           
  2989  0025                     Proximity_State_NotActivated@prox:	
  2990                           ; 1 bytes @ 0x5
  2991                           
  2992  0025                     Proximity_State_Activated@prox:	
  2993                           ; 1 bytes @ 0x5
  2994                           
  2995                           
  2996                           ; 1 bytes @ 0x5
  2997  0025                     	ds	1
  2998  0026                     ??_Proximity_State_Initializing:	
  2999  0026                     ??_Proximity_State_NotActivated:	
  3000                           ; 1 bytes @ 0x6
  3001                           
  3002  0026                     ??_Proximity_State_Activated:	
  3003                           ; 1 bytes @ 0x6
  3004                           
  3005  0026                     Sensor_Acq_ExecutePacket@ADxIF_flag:	
  3006                           ; 1 bytes @ 0x6
  3007                           
  3008                           
  3009                           ; 1 bytes @ 0x6
  3010  0026                     	ds	1
  3011  0027                     Sensor_Acq_ExecutePacket@activeSensor:	
  3012                           
  3013                           ; 1 bytes @ 0x7
  3014  0027                     	ds	1
  3015  0028                     Sensor_Acq_ExecutePacket@last_a:	
  3016                           
  3017                           ; 2 bytes @ 0x8
  3018  0028                     	ds	2
  3019  002A                     Sensor_Acq_ExecutePacket@last_b:	
  3020                           
  3021                           ; 2 bytes @ 0xA
  3022  002A                     	ds	2
  3023  002C                     Sensor_Acq_ExecutePacket@packet_counter:	
  3024                           
  3025                           ; 1 bytes @ 0xC
  3026  002C                     	ds	1
  3027  002D                     Sensor_Acq_ExecutePacket@sensor_adc1:	
  3028  002D                     Proximity_State_NotActivated@deviation:	
  3029                           ; 1 bytes @ 0xD
  3030                           
  3031                           
  3032                           ; 4 bytes @ 0xD
  3033  002D                     	ds	1
  3034  002E                     ?_Sensor_Scanfrequency_Evaluation:	
  3035  002E                     Sensor_Scanfrequency_Evaluation@sensor_adc2:	
  3036                           ; 1 bytes @ 0xE
  3037                           
  3038                           
  3039                           ; 1 bytes @ 0xE
  3040  002E                     	ds	1
  3041  002F                     ??_Sensor_Scanfrequency_Evaluation:	
  3042  002F                     Proximity_Deviation_Update@deviation:	
  3043                           ; 1 bytes @ 0xF
  3044                           
  3045                           
  3046                           ; 4 bytes @ 0xF
  3047  002F                     	ds	2
  3048  0031                     Sensor_Scanfrequency_Evaluation@sensor_adc1:	
  3049                           
  3050                           ; 1 bytes @ 0x11
  3051  0031                     	ds	1
  3052  0032                     Sensor_Scanfrequency_Evaluation@packet_noise_Max:	
  3053                           
  3054                           ; 2 bytes @ 0x12
  3055  0032                     	ds	1
  3056  0033                     Proximity_Deviation_Update@name:	
  3057                           
  3058                           ; 1 bytes @ 0x13
  3059  0033                     	ds	1
  3060  0034                     Sensor_Scanfrequency_Evaluation@best_sample_period:	
  3061  0034                     Proximity_Service@name:	
  3062                           ; 1 bytes @ 0x14
  3063                           
  3064                           
  3065                           ; 1 bytes @ 0x14
  3066  0034                     	ds	1
  3067  0035                     Sensor_Scanfrequency_Evaluation@retry:	
  3068  0035                     Proximity_Service@prox:	
  3069                           ; 1 bytes @ 0x15
  3070                           
  3071                           
  3072                           ; 1 bytes @ 0x15
  3073  0035                     	ds	1
  3074  0036                     Sensor_Scanfrequency_Evaluation@best_packet_sample:	
  3075                           
  3076                           ; 4 bytes @ 0x16
  3077  0036                     	ds	4
  3078  003A                     Sensor_Scanfrequency_Evaluation@i:	
  3079                           
  3080                           ; 1 bytes @ 0x1A
  3081  003A                     	ds	1
  3082  003B                     ?_Sensor_Acquisition:	
  3083  003B                     Sensor_Acquisition@sensor_adc2:	
  3084                           ; 1 bytes @ 0x1B
  3085                           
  3086                           
  3087                           ; 1 bytes @ 0x1B
  3088  003B                     	ds	1
  3089  003C                     ??_Sensor_Acquisition:	
  3090                           
  3091                           ; 1 bytes @ 0x1C
  3092  003C                     	ds	1
  3093  003D                     Sensor_Acquisition@retry:	
  3094                           
  3095                           ; 1 bytes @ 0x1D
  3096  003D                     	ds	1
  3097  003E                     Sensor_Acquisition@sensor_adc1:	
  3098                           
  3099                           ; 1 bytes @ 0x1E
  3100  003E                     	ds	1
  3101  003F                     ??_Sensor_Service:	
  3102                           
  3103                           ; 1 bytes @ 0x1F
  3104  003F                     	ds	3
  3105  0042                     Sensor_Service@scanGroup:	
  3106                           
  3107                           ; 1 bytes @ 0x22
  3108  0042                     	ds	1
  3109  0043                     Sensor_Service@error:	
  3110                           
  3111                           ; 1 bytes @ 0x23
  3112  0043                     	ds	1
  3113  0044                     Sensor_Service@sensor_adc1:	
  3114                           
  3115                           ; 1 bytes @ 0x24
  3116  0044                     	ds	1
  3117  0045                     Sensor_Service@sensor_adc2:	
  3118                           
  3119                           ; 1 bytes @ 0x25
  3120  0045                     	ds	1
  3121  0046                     ??_MTOUCH_Sensor_SampleAll:	
  3122                           
  3123                           ; 1 bytes @ 0x26
  3124  0046                     	ds	1
  3125  0047                     MTOUCH_Sensor_SampleAll@group:	
  3126                           
  3127                           ; 1 bytes @ 0x27
  3128  0047                     	ds	1
  3129  0048                     ??_MTOUCH_Service_Mainloop:	
  3130                           
  3131                           ; 1 bytes @ 0x28
  3132  0048                     	ds	1
  3133  0049                     ??_main:	
  3134                           
  3135                           ; 1 bytes @ 0x29
  3136  0049                     	ds	1
  3137                           
  3138                           	psect	maintext
  3139  0E94                     __pmaintext:	
  3140 ;;
  3141 ;;Main: autosize = 0, tempsize = 1, incstack = 0, save=0
  3142 ;;
  3143 ;; *************** function _main *****************
  3144 ;; Defined at:
  3145 ;;		line 49 in file "main.c"
  3146 ;; Parameters:    Size  Location     Type
  3147 ;;		None
  3148 ;; Auto vars:     Size  Location     Type
  3149 ;;		None
  3150 ;; Return value:  Size  Location     Type
  3151 ;;                  1    wreg      void 
  3152 ;; Registers used:
  3153 ;;		wreg, fsr0l, fsr0h, fsr1l, fsr1h, status,2, status,0, pclath, cstack
  3154 ;; Tracked objects:
  3155 ;;		On entry : B1F/0
  3156 ;;		On exit  : 0/0
  3157 ;;		Unchanged: 0/0
  3158 ;; Data sizes:     COMMON   BANK0   BANK1   BANK2   BANK3   BANK4   BANK5   BANK6
  3159 ;;      Params:         0       0       0       0       0       0       0       0
  3160 ;;      Locals:         0       0       0       0       0       0       0       0
  3161 ;;      Temps:          0       1       0       0       0       0       0       0
  3162 ;;      Totals:         0       1       0       0       0       0       0       0
  3163 ;;Total ram usage:        1 bytes
  3164 ;; Hardware stack levels required when called:   12
  3165 ;; This function calls:
  3166 ;;		_EUSART_Write
  3167 ;;		_EUSART_is_tx_done
  3168 ;;		_EUSART_is_tx_ready
  3169 ;;		_MTOUCH_Proximity_Threshold_Set
  3170 ;;		_MTOUCH_Proximity_isActivated
  3171 ;;		_MTOUCH_Service_Mainloop
  3172 ;;		_SYSTEM_Initialize
  3173 ;; This function is called by:
  3174 ;;		Startup code after reset
  3175 ;; This function uses a non-reentrant model
  3176 ;;
  3177                           
  3178                           
  3179                           ;psect for function _main
  3180  0E94                     _main:	
  3181  0E94                     l4400:	
  3182                           ;incstack = 0
  3183                           ; Regs used in _main: [wreg-fsr1h+status,2+status,0+pclath+cstack]
  3184                           
  3185                           
  3186                           ;main.c: 52:     SYSTEM_Initialize();
  3187  0E94  318A  22D4  318E   	fcall	_SYSTEM_Initialize
  3188  0E97                     l4402:	
  3189                           
  3190                           ;main.c: 58:     (INTCONbits.GIE = 1);
  3191  0E97  178B               	bsf	11,7	;volatile
  3192  0E98                     l4404:	
  3193                           
  3194                           ;main.c: 61:     (INTCONbits.PEIE = 1);
  3195  0E98  170B               	bsf	11,6	;volatile
  3196  0E99                     l4406:	
  3197                           
  3198                           ;main.c: 69:     MTOUCH_Proximity_Threshold_Set(Proximity0, 80);
  3199  0E99  3050               	movlw	80
  3200  0E9A  0020               	movlb	0	; select bank0
  3201  0E9B  00C9               	movwf	??_main
  3202  0E9C  0849               	movf	??_main,w
  3203  0E9D  00F1               	movwf	MTOUCH_Proximity_Threshold_Set@threshold
  3204  0E9E  3000               	movlw	0
  3205  0E9F  318B  23C1  318E   	fcall	_MTOUCH_Proximity_Threshold_Set
  3206  0EA2                     l4408:	
  3207                           
  3208                           ;main.c: 72:     {;main.c: 74:         if(MTOUCH_Service_Mainloop())
  3209  0EA2  318C  2439  318E   	fcall	_MTOUCH_Service_Mainloop
  3210  0EA5  3A00               	xorlw	0
  3211  0EA6  1903               	skipnz
  3212  0EA7  2EA9               	goto	u4101
  3213  0EA8  2EAA               	goto	u4100
  3214  0EA9                     u4101:	
  3215  0EA9  2ECC               	goto	l4422
  3216  0EAA                     u4100:	
  3217  0EAA                     l4410:	
  3218                           
  3219                           ;main.c: 75:         {;main.c: 78:             if(MTOUCH_Proximity_isActivated(Proximity
      +                          0))
  3220  0EAA  3000               	movlw	0
  3221  0EAB  318B  2329  318E   	fcall	_MTOUCH_Proximity_isActivated
  3222  0EAE  3A00               	xorlw	0
  3223  0EAF  1903               	skipnz
  3224  0EB0  2EB2               	goto	u4111
  3225  0EB1  2EB3               	goto	u4110
  3226  0EB2                     u4111:	
  3227  0EB2  2ECA               	goto	l735
  3228  0EB3                     u4110:	
  3229  0EB3                     l4412:	
  3230                           
  3231                           ;main.c: 79:             {;main.c: 81:                 if(EUSART_is_tx_ready())
  3232  0EB3  3189  21F6  318E   	fcall	_EUSART_is_tx_ready
  3233  0EB6  3A00               	xorlw	0
  3234  0EB7  1903               	skipnz
  3235  0EB8  2EBA               	goto	u4121
  3236  0EB9  2EBB               	goto	u4120
  3237  0EBA                     u4121:	
  3238  0EBA  2EC7               	goto	l4420
  3239  0EBB                     u4120:	
  3240  0EBB                     l728:	
  3241                           ;main.c: 82:                 {;main.c: 83:                     do { LATAbits.LATA4 = 1; 
      +                          } while(0);
  3242                           
  3243  0EBB  0022               	movlb	2	; select bank2
  3244  0EBC  160C               	bsf	12,4	;volatile
  3245  0EBD                     l4414:	
  3246                           
  3247                           ;main.c: 84:                     _delay((unsigned long)((10)*(8000000/4000000.0)));
  3248  0EBD  3006               	movlw	6
  3249  0EBE                     u4147:	
  3250  0EBE  0B89               	decfsz	9,f
  3251  0EBF  2EBE               	goto	u4147
  3252  0EC0  3200               	nop2
  3253  0EC1                     l4416:	
  3254                           
  3255                           ;main.c: 85:                     EUSART_Write('b');
  3256  0EC1  3062               	movlw	98
  3257  0EC2  318D  2510  318E   	fcall	_EUSART_Write
  3258  0EC5                     l4418:	
  3259  0EC5  0022               	movlb	2	; select bank2
  3260  0EC6  178E               	bsf	14,7	;volatile
  3261  0EC7                     l4420:	
  3262  0EC7  0022               	movlb	2	; select bank2
  3263  0EC8  140E               	bsf	14,0	;volatile
  3264  0EC9  2ECC               	goto	l4422
  3265  0ECA                     l735:	
  3266                           ;main.c: 91:             {;main.c: 93:                 do { LATCbits.LATC0 = 0; } while(
      +                          0);
  3267                           
  3268  0ECA  0022               	movlb	2	; select bank2
  3269  0ECB  100E               	bcf	14,0	;volatile
  3270  0ECC                     l4422:	
  3271                           
  3272                           ;main.c: 97:         if (EUSART_is_tx_done()) {
  3273  0ECC  3189  217F  318E   	fcall	_EUSART_is_tx_done
  3274  0ECF  3A00               	xorlw	0
  3275  0ED0  1903               	skipnz
  3276  0ED1  2ED3               	goto	u4131
  3277  0ED2  2ED4               	goto	u4130
  3278  0ED3                     u4131:	
  3279  0ED3  2EA2               	goto	l4408
  3280  0ED4                     u4130:	
  3281  0ED4                     l738:	
  3282                           ;main.c: 98:             do { LATAbits.LATA4 = 0; } while(0);
  3283                           
  3284  0ED4  0022               	movlb	2	; select bank2
  3285  0ED5  120C               	bcf	12,4	;volatile
  3286  0ED6                     l740:	
  3287                           ;main.c: 99:             do { LATCbits.LATC7 = 0; } while(0);
  3288                           
  3289  0ED6  138E               	bcf	14,7	;volatile
  3290  0ED7  2EA2               	goto	l4408
  3291  0ED8  3180  282D         	ljmp	start
  3292  0EDA                     __end_of_main:	
  3293                           
  3294                           	psect	text1
  3295  0AD4                     __ptext1:	
  3296 ;; *************** function _SYSTEM_Initialize *****************
  3297 ;; Defined at:
  3298 ;;		line 50 in file "mcc_generated_files/mcc.c"
  3299 ;; Parameters:    Size  Location     Type
  3300 ;;		None
  3301 ;; Auto vars:     Size  Location     Type
  3302 ;;		None
  3303 ;; Return value:  Size  Location     Type
  3304 ;;                  1    wreg      void 
  3305 ;; Registers used:
  3306 ;;		wreg, fsr0l, fsr0h, fsr1l, fsr1h, status,2, status,0, pclath, cstack
  3307 ;; Tracked objects:
  3308 ;;		On entry : 0/0
  3309 ;;		On exit  : 0/0
  3310 ;;		Unchanged: 0/0
  3311 ;; Data sizes:     COMMON   BANK0   BANK1   BANK2   BANK3   BANK4   BANK5   BANK6
  3312 ;;      Params:         0       0       0       0       0       0       0       0
  3313 ;;      Locals:         0       0       0       0       0       0       0       0
  3314 ;;      Temps:          0       0       0       0       0       0       0       0
  3315 ;;      Totals:         0       0       0       0       0       0       0       0
  3316 ;;Total ram usage:        0 bytes
  3317 ;; Hardware stack levels used:    1
  3318 ;; Hardware stack levels required when called:    9
  3319 ;; This function calls:
  3320 ;;		_EUSART_Initialize
  3321 ;;		_MTOUCH_Initialize
  3322 ;;		_OSCILLATOR_Initialize
  3323 ;;		_PIN_MANAGER_Initialize
  3324 ;;		_TMR2_Initialize
  3325 ;;		_WDT_Initialize
  3326 ;; This function is called by:
  3327 ;;		_main
  3328 ;; This function uses a non-reentrant model
  3329 ;;
  3330                           
  3331                           
  3332                           ;psect for function _SYSTEM_Initialize
  3333  0AD4                     _SYSTEM_Initialize:	
  3334  0AD4                     l4324:	
  3335                           ;incstack = 0
  3336                           ; Regs used in _SYSTEM_Initialize: [wreg-fsr1h+status,2+status,0+pclath+cstack]
  3337                           
  3338                           
  3339                           ;mcc_generated_files/mcc.c: 53:     PIN_MANAGER_Initialize();
  3340  0AD4  318B  23A7  318A   	fcall	_PIN_MANAGER_Initialize
  3341                           
  3342                           ;mcc_generated_files/mcc.c: 54:     OSCILLATOR_Initialize();
  3343  0AD7  3189  21B8  318A   	fcall	_OSCILLATOR_Initialize
  3344                           
  3345                           ;mcc_generated_files/mcc.c: 55:     WDT_Initialize();
  3346  0ADA  3189  2187  318A   	fcall	_WDT_Initialize
  3347                           
  3348                           ;mcc_generated_files/mcc.c: 56:     TMR2_Initialize();
  3349  0ADD  3189  21EE  318A   	fcall	_TMR2_Initialize
  3350                           
  3351                           ;mcc_generated_files/mcc.c: 57:     EUSART_Initialize();
  3352  0AE0  318E  2611  318A   	fcall	_EUSART_Initialize
  3353  0AE3                     l4326:	
  3354                           
  3355                           ;mcc_generated_files/mcc.c: 58:     MTOUCH_Initialize();
  3356  0AE3  318A  2221  318A   	fcall	_MTOUCH_Initialize
  3357  0AE6                     l627:	
  3358  0AE6  0008               	return
  3359  0AE7                     __end_of_SYSTEM_Initialize:	
  3360                           
  3361                           	psect	text2
  3362  0987                     __ptext2:	
  3363 ;; *************** function _WDT_Initialize *****************
  3364 ;; Defined at:
  3365 ;;		line 69 in file "mcc_generated_files/mcc.c"
  3366 ;; Parameters:    Size  Location     Type
  3367 ;;		None
  3368 ;; Auto vars:     Size  Location     Type
  3369 ;;		None
  3370 ;; Return value:  Size  Location     Type
  3371 ;;                  1    wreg      void 
  3372 ;; Registers used:
  3373 ;;		wreg
  3374 ;; Tracked objects:
  3375 ;;		On entry : 0/0
  3376 ;;		On exit  : 0/0
  3377 ;;		Unchanged: 0/0
  3378 ;; Data sizes:     COMMON   BANK0   BANK1   BANK2   BANK3   BANK4   BANK5   BANK6
  3379 ;;      Params:         0       0       0       0       0       0       0       0
  3380 ;;      Locals:         0       0       0       0       0       0       0       0
  3381 ;;      Temps:          0       0       0       0       0       0       0       0
  3382 ;;      Totals:         0       0       0       0       0       0       0       0
  3383 ;;Total ram usage:        0 bytes
  3384 ;; Hardware stack levels used:    1
  3385 ;; Hardware stack levels required when called:    4
  3386 ;; This function calls:
  3387 ;;		Nothing
  3388 ;; This function is called by:
  3389 ;;		_SYSTEM_Initialize
  3390 ;; This function uses a non-reentrant model
  3391 ;;
  3392                           
  3393                           
  3394                           ;psect for function _WDT_Initialize
  3395  0987                     _WDT_Initialize:	
  3396  0987                     l2320:	
  3397                           ;incstack = 0
  3398                           ; Regs used in _WDT_Initialize: [wreg]
  3399                           
  3400                           
  3401                           ;mcc_generated_files/mcc.c: 72:     WDTCON = 0x16;
  3402  0987  3016               	movlw	22
  3403  0988  0021               	movlb	1	; select bank1
  3404  0989  0097               	movwf	23	;volatile
  3405  098A                     l633:	
  3406  098A  0008               	return
  3407  098B                     __end_of_WDT_Initialize:	
  3408                           
  3409                           	psect	text3
  3410  09EE                     __ptext3:	
  3411 ;; *************** function _TMR2_Initialize *****************
  3412 ;; Defined at:
  3413 ;;		line 62 in file "mcc_generated_files/tmr2.c"
  3414 ;; Parameters:    Size  Location     Type
  3415 ;;		None
  3416 ;; Auto vars:     Size  Location     Type
  3417 ;;		None
  3418 ;; Return value:  Size  Location     Type
  3419 ;;                  1    wreg      void 
  3420 ;; Registers used:
  3421 ;;		wreg, status,2
  3422 ;; Tracked objects:
  3423 ;;		On entry : 0/0
  3424 ;;		On exit  : 0/0
  3425 ;;		Unchanged: 0/0
  3426 ;; Data sizes:     COMMON   BANK0   BANK1   BANK2   BANK3   BANK4   BANK5   BANK6
  3427 ;;      Params:         0       0       0       0       0       0       0       0
  3428 ;;      Locals:         0       0       0       0       0       0       0       0
  3429 ;;      Temps:          0       0       0       0       0       0       0       0
  3430 ;;      Totals:         0       0       0       0       0       0       0       0
  3431 ;;Total ram usage:        0 bytes
  3432 ;; Hardware stack levels used:    1
  3433 ;; Hardware stack levels required when called:    4
  3434 ;; This function calls:
  3435 ;;		Nothing
  3436 ;; This function is called by:
  3437 ;;		_SYSTEM_Initialize
  3438 ;; This function uses a non-reentrant model
  3439 ;;
  3440                           
  3441                           
  3442                           ;psect for function _TMR2_Initialize
  3443  09EE                     _TMR2_Initialize:	
  3444  09EE                     l2322:	
  3445                           ;incstack = 0
  3446                           ; Regs used in _TMR2_Initialize: [wreg+status,2]
  3447                           
  3448                           
  3449                           ;mcc_generated_files/tmr2.c: 67:     PR2 = 0xFF;
  3450  09EE  30FF               	movlw	255
  3451  09EF  0020               	movlb	0	; select bank0
  3452  09F0  009B               	movwf	27	;volatile
  3453  09F1                     l2324:	
  3454                           
  3455                           ;mcc_generated_files/tmr2.c: 70:     TMR2 = 0x00;
  3456  09F1  019A               	clrf	26	;volatile
  3457  09F2                     l2326:	
  3458                           
  3459                           ;mcc_generated_files/tmr2.c: 73:     PIR1bits.TMR2IF = 0;
  3460  09F2  1091               	bcf	17,1	;volatile
  3461  09F3                     l2328:	
  3462                           
  3463                           ;mcc_generated_files/tmr2.c: 76:     T2CON = 0x04;
  3464  09F3  3004               	movlw	4
  3465  09F4  009C               	movwf	28	;volatile
  3466  09F5                     l678:	
  3467  09F5  0008               	return
  3468  09F6                     __end_of_TMR2_Initialize:	
  3469                           
  3470                           	psect	text4
  3471  0BA7                     __ptext4:	
  3472 ;; *************** function _PIN_MANAGER_Initialize *****************
  3473 ;; Defined at:
  3474 ;;		line 55 in file "mcc_generated_files/pin_manager.c"
  3475 ;; Parameters:    Size  Location     Type
  3476 ;;		None
  3477 ;; Auto vars:     Size  Location     Type
  3478 ;;		None
  3479 ;; Return value:  Size  Location     Type
  3480 ;;                  1    wreg      void 
  3481 ;; Registers used:
  3482 ;;		wreg, status,2
  3483 ;; Tracked objects:
  3484 ;;		On entry : 0/0
  3485 ;;		On exit  : 0/0
  3486 ;;		Unchanged: 0/0
  3487 ;; Data sizes:     COMMON   BANK0   BANK1   BANK2   BANK3   BANK4   BANK5   BANK6
  3488 ;;      Params:         0       0       0       0       0       0       0       0
  3489 ;;      Locals:         0       0       0       0       0       0       0       0
  3490 ;;      Temps:          0       0       0       0       0       0       0       0
  3491 ;;      Totals:         0       0       0       0       0       0       0       0
  3492 ;;Total ram usage:        0 bytes
  3493 ;; Hardware stack levels used:    1
  3494 ;; Hardware stack levels required when called:    4
  3495 ;; This function calls:
  3496 ;;		Nothing
  3497 ;; This function is called by:
  3498 ;;		_SYSTEM_Initialize
  3499 ;; This function uses a non-reentrant model
  3500 ;;
  3501                           
  3502                           
  3503                           ;psect for function _PIN_MANAGER_Initialize
  3504  0BA7                     _PIN_MANAGER_Initialize:	
  3505  0BA7                     l2300:	
  3506                           ;incstack = 0
  3507                           ; Regs used in _PIN_MANAGER_Initialize: [wreg+status,2]
  3508                           
  3509                           
  3510                           ;mcc_generated_files/pin_manager.c: 60:     LATA = 0x00;
  3511  0BA7  0022               	movlb	2	; select bank2
  3512  0BA8  018C               	clrf	12	;volatile
  3513                           
  3514                           ;mcc_generated_files/pin_manager.c: 61:     LATB = 0x00;
  3515  0BA9  018D               	clrf	13	;volatile
  3516                           
  3517                           ;mcc_generated_files/pin_manager.c: 62:     LATC = 0x00;
  3518  0BAA  018E               	clrf	14	;volatile
  3519  0BAB                     l2302:	
  3520                           
  3521                           ;mcc_generated_files/pin_manager.c: 67:     TRISA = 0x2F;
  3522  0BAB  302F               	movlw	47
  3523  0BAC  0021               	movlb	1	; select bank1
  3524  0BAD  008C               	movwf	12	;volatile
  3525  0BAE                     l2304:	
  3526                           
  3527                           ;mcc_generated_files/pin_manager.c: 68:     TRISB = 0x70;
  3528  0BAE  3070               	movlw	112
  3529  0BAF  008D               	movwf	13	;volatile
  3530  0BB0                     l2306:	
  3531                           
  3532                           ;mcc_generated_files/pin_manager.c: 69:     TRISC = 0x6A;
  3533  0BB0  306A               	movlw	106
  3534  0BB1  008E               	movwf	14	;volatile
  3535  0BB2                     l2308:	
  3536                           
  3537                           ;mcc_generated_files/pin_manager.c: 74:     ANSELC = 0x7E;
  3538  0BB2  307E               	movlw	126
  3539  0BB3  0023               	movlb	3	; select bank3
  3540  0BB4  008E               	movwf	14	;volatile
  3541  0BB5                     l2310:	
  3542                           
  3543                           ;mcc_generated_files/pin_manager.c: 75:     ANSELB = 0x50;
  3544  0BB5  3050               	movlw	80
  3545  0BB6  008D               	movwf	13	;volatile
  3546  0BB7                     l2312:	
  3547                           
  3548                           ;mcc_generated_files/pin_manager.c: 76:     ANSELA = 0x27;
  3549  0BB7  3027               	movlw	39
  3550  0BB8  008C               	movwf	12	;volatile
  3551                           
  3552                           ;mcc_generated_files/pin_manager.c: 81:     WPUB = 0x00;
  3553  0BB9  0024               	movlb	4	; select bank4
  3554  0BBA  018D               	clrf	13	;volatile
  3555                           
  3556                           ;mcc_generated_files/pin_manager.c: 82:     WPUA = 0x00;
  3557  0BBB  018C               	clrf	12	;volatile
  3558  0BBC                     l2314:	
  3559                           
  3560                           ;mcc_generated_files/pin_manager.c: 83:     OPTION_REGbits.nWPUEN = 1;
  3561  0BBC  0021               	movlb	1	; select bank1
  3562  0BBD  1795               	bsf	21,7	;volatile
  3563                           
  3564                           ;mcc_generated_files/pin_manager.c: 89:     APFCON = 0x00;
  3565  0BBE  0022               	movlb	2	; select bank2
  3566  0BBF  019D               	clrf	29	;volatile
  3567  0BC0                     l662:	
  3568  0BC0  0008               	return
  3569  0BC1                     __end_of_PIN_MANAGER_Initialize:	
  3570                           
  3571                           	psect	text5
  3572  09B8                     __ptext5:	
  3573 ;; *************** function _OSCILLATOR_Initialize *****************
  3574 ;; Defined at:
  3575 ;;		line 61 in file "mcc_generated_files/mcc.c"
  3576 ;; Parameters:    Size  Location     Type
  3577 ;;		None
  3578 ;; Auto vars:     Size  Location     Type
  3579 ;;		None
  3580 ;; Return value:  Size  Location     Type
  3581 ;;                  1    wreg      void 
  3582 ;; Registers used:
  3583 ;;		wreg, status,2
  3584 ;; Tracked objects:
  3585 ;;		On entry : 0/0
  3586 ;;		On exit  : 0/0
  3587 ;;		Unchanged: 0/0
  3588 ;; Data sizes:     COMMON   BANK0   BANK1   BANK2   BANK3   BANK4   BANK5   BANK6
  3589 ;;      Params:         0       0       0       0       0       0       0       0
  3590 ;;      Locals:         0       0       0       0       0       0       0       0
  3591 ;;      Temps:          0       0       0       0       0       0       0       0
  3592 ;;      Totals:         0       0       0       0       0       0       0       0
  3593 ;;Total ram usage:        0 bytes
  3594 ;; Hardware stack levels used:    1
  3595 ;; Hardware stack levels required when called:    4
  3596 ;; This function calls:
  3597 ;;		Nothing
  3598 ;; This function is called by:
  3599 ;;		_SYSTEM_Initialize
  3600 ;; This function uses a non-reentrant model
  3601 ;;
  3602                           
  3603                           
  3604                           ;psect for function _OSCILLATOR_Initialize
  3605  09B8                     _OSCILLATOR_Initialize:	
  3606  09B8                     l2316:	
  3607                           ;incstack = 0
  3608                           ; Regs used in _OSCILLATOR_Initialize: [wreg+status,2]
  3609                           
  3610                           
  3611                           ;mcc_generated_files/mcc.c: 64:     OSCCON = 0x70;
  3612  09B8  3070               	movlw	112
  3613  09B9  0021               	movlb	1	; select bank1
  3614  09BA  0099               	movwf	25	;volatile
  3615  09BB                     l2318:	
  3616                           
  3617                           ;mcc_generated_files/mcc.c: 66:     BORCON = 0x00;
  3618  09BB  0022               	movlb	2	; select bank2
  3619  09BC  0196               	clrf	22	;volatile
  3620  09BD                     l630:	
  3621  09BD  0008               	return
  3622  09BE                     __end_of_OSCILLATOR_Initialize:	
  3623                           
  3624                           	psect	text6
  3625  0A21                     __ptext6:	
  3626 ;; *************** function _MTOUCH_Initialize *****************
  3627 ;; Defined at:
  3628 ;;		line 80 in file "mcc_generated_files/mtouch/mtouch.c"
  3629 ;; Parameters:    Size  Location     Type
  3630 ;;		None
  3631 ;; Auto vars:     Size  Location     Type
  3632 ;;		None
  3633 ;; Return value:  Size  Location     Type
  3634 ;;                  1    wreg      void 
  3635 ;; Registers used:
  3636 ;;		wreg, fsr0l, fsr0h, fsr1l, fsr1h, status,2, status,0, pclath, cstack
  3637 ;; Tracked objects:
  3638 ;;		On entry : 0/0
  3639 ;;		On exit  : 0/0
  3640 ;;		Unchanged: 0/0
  3641 ;; Data sizes:     COMMON   BANK0   BANK1   BANK2   BANK3   BANK4   BANK5   BANK6
  3642 ;;      Params:         0       0       0       0       0       0       0       0
  3643 ;;      Locals:         0       0       0       0       0       0       0       0
  3644 ;;      Temps:          0       0       0       0       0       0       0       0
  3645 ;;      Totals:         0       0       0       0       0       0       0       0
  3646 ;;Total ram usage:        0 bytes
  3647 ;; Hardware stack levels used:    1
  3648 ;; Hardware stack levels required when called:    8
  3649 ;; This function calls:
  3650 ;;		_MTOUCH_Proximity_InitializeAll
  3651 ;;		_MTOUCH_Sensor_InitializeAll
  3652 ;;		_MTOUCH_Sensor_Sampled_ResetAll
  3653 ;;		_MTOUCH_Sensor_Scan_Initialize
  3654 ;; This function is called by:
  3655 ;;		_SYSTEM_Initialize
  3656 ;; This function uses a non-reentrant model
  3657 ;;
  3658                           
  3659                           
  3660                           ;psect for function _MTOUCH_Initialize
  3661  0A21                     _MTOUCH_Initialize:	
  3662  0A21                     l4286:	
  3663                           ;incstack = 0
  3664                           ; Regs used in _MTOUCH_Initialize: [wreg-fsr1h+status,2+status,0+pclath+cstack]
  3665                           
  3666                           
  3667                           ;mcc_generated_files/mtouch/mtouch.c: 82:     MTOUCH_Sensor_InitializeAll();
  3668  0A21  318A  224C  318A   	fcall	_MTOUCH_Sensor_InitializeAll
  3669  0A24                     l4288:	
  3670                           
  3671                           ;mcc_generated_files/mtouch/mtouch.c: 83:     MTOUCH_Proximity_InitializeAll();
  3672  0A24  318A  228B  318A   	fcall	_MTOUCH_Proximity_InitializeAll
  3673  0A27                     l4290:	
  3674                           
  3675                           ;mcc_generated_files/mtouch/mtouch.c: 87:     MTOUCH_Sensor_Sampled_ResetAll();
  3676  0A27  318B  23FC  318A   	fcall	_MTOUCH_Sensor_Sampled_ResetAll
  3677  0A2A                     l4292:	
  3678                           
  3679                           ;mcc_generated_files/mtouch/mtouch.c: 88:     MTOUCH_Sensor_Scan_Initialize();
  3680  0A2A  318A  226A  318A   	fcall	_MTOUCH_Sensor_Scan_Initialize
  3681  0A2D                     l423:	
  3682  0A2D  0008               	return
  3683  0A2E                     __end_of_MTOUCH_Initialize:	
  3684                           
  3685                           	psect	text7
  3686  0A4C                     __ptext7:	
  3687 ;; *************** function _MTOUCH_Sensor_InitializeAll *****************
  3688 ;; Defined at:
  3689 ;;		line 206 in file "mcc_generated_files/mtouch/mtouch_sensor.c"
  3690 ;; Parameters:    Size  Location     Type
  3691 ;;		None
  3692 ;; Auto vars:     Size  Location     Type
  3693 ;;  sensor          1   10[COMMON] enum E2854
  3694 ;; Return value:  Size  Location     Type
  3695 ;;                  1    wreg      void 
  3696 ;; Registers used:
  3697 ;;		wreg, fsr1l, fsr1h, status,2, status,0, pclath, cstack
  3698 ;; Tracked objects:
  3699 ;;		On entry : 0/0
  3700 ;;		On exit  : 0/0
  3701 ;;		Unchanged: 0/0
  3702 ;; Data sizes:     COMMON   BANK0   BANK1   BANK2   BANK3   BANK4   BANK5   BANK6
  3703 ;;      Params:         0       0       0       0       0       0       0       0
  3704 ;;      Locals:         1       0       0       0       0       0       0       0
  3705 ;;      Temps:          1       0       0       0       0       0       0       0
  3706 ;;      Totals:         2       0       0       0       0       0       0       0
  3707 ;;Total ram usage:        2 bytes
  3708 ;; Hardware stack levels used:    1
  3709 ;; Hardware stack levels required when called:    7
  3710 ;; This function calls:
  3711 ;;		_MTOUCH_Sensor_Initialize
  3712 ;; This function is called by:
  3713 ;;		_MTOUCH_Initialize
  3714 ;; This function uses a non-reentrant model
  3715 ;;
  3716                           
  3717                           
  3718                           ;psect for function _MTOUCH_Sensor_InitializeAll
  3719  0A4C                     _MTOUCH_Sensor_InitializeAll:	
  3720  0A4C                     l4204:	
  3721                           ;incstack = 0
  3722                           ; Regs used in _MTOUCH_Sensor_InitializeAll: [wreg+fsr1l+fsr1h+status,2+status,0+pclath+
      +                          cstack]
  3723                           
  3724                           
  3725                           ;mcc_generated_files/mtouch/mtouch_sensor.c: 208:     enum mtouch_sensor_names sensor;;m
      +                          cc_generated_files/mtouch/mtouch_sensor.c: 210:     for (sensor = 0; sensor < 1u; sensor
      +                          ++)
  3726  0A4C  01FA               	clrf	MTOUCH_Sensor_InitializeAll@sensor
  3727  0A4D                     l4210:	
  3728                           
  3729                           ;mcc_generated_files/mtouch/mtouch_sensor.c: 211:     {;mcc_generated_files/mtouch/mtouc
      +                          h_sensor.c: 212:         MTOUCH_Sensor_Initialize(sensor);
  3730  0A4D  087A               	movf	MTOUCH_Sensor_InitializeAll@sensor,w
  3731  0A4E  318A  22FC  318A   	fcall	_MTOUCH_Sensor_Initialize
  3732  0A51                     l4212:	
  3733                           
  3734                           ;mcc_generated_files/mtouch/mtouch_sensor.c: 213:     }
  3735  0A51  3001               	movlw	1
  3736  0A52  00F9               	movwf	??_MTOUCH_Sensor_InitializeAll
  3737  0A53  0879               	movf	??_MTOUCH_Sensor_InitializeAll,w
  3738  0A54  07FA               	addwf	MTOUCH_Sensor_InitializeAll@sensor,f
  3739  0A55                     l4214:	
  3740  0A55  087A               	movf	MTOUCH_Sensor_InitializeAll@sensor,w
  3741  0A56  1903               	btfsc	3,2
  3742  0A57  2A59               	goto	u3881
  3743  0A58  2A5A               	goto	u3880
  3744  0A59                     u3881:	
  3745  0A59  2A4D               	goto	l4210
  3746  0A5A                     u3880:	
  3747  0A5A                     l134:	
  3748  0A5A  0008               	return
  3749  0A5B                     __end_of_MTOUCH_Sensor_InitializeAll:	
  3750                           
  3751                           	psect	text8
  3752  0AFC                     __ptext8:	
  3753 ;; *************** function _MTOUCH_Sensor_Initialize *****************
  3754 ;; Defined at:
  3755 ;;		line 191 in file "mcc_generated_files/mtouch/mtouch_sensor.c"
  3756 ;; Parameters:    Size  Location     Type
  3757 ;;  sensor          1    wreg     enum E2854
  3758 ;; Auto vars:     Size  Location     Type
  3759 ;;  sensor          1    8[COMMON] enum E2854
  3760 ;; Return value:  Size  Location     Type
  3761 ;;                  1    wreg      enum E2856
  3762 ;; Registers used:
  3763 ;;		wreg, fsr1l, fsr1h, status,2, status,0, pclath, cstack
  3764 ;; Tracked objects:
  3765 ;;		On entry : 0/0
  3766 ;;		On exit  : 0/0
  3767 ;;		Unchanged: 0/0
  3768 ;; Data sizes:     COMMON   BANK0   BANK1   BANK2   BANK3   BANK4   BANK5   BANK6
  3769 ;;      Params:         0       0       0       0       0       0       0       0
  3770 ;;      Locals:         1       0       0       0       0       0       0       0
  3771 ;;      Temps:          1       0       0       0       0       0       0       0
  3772 ;;      Totals:         2       0       0       0       0       0       0       0
  3773 ;;Total ram usage:        2 bytes
  3774 ;; Hardware stack levels used:    1
  3775 ;; Hardware stack levels required when called:    6
  3776 ;; This function calls:
  3777 ;;		_MTOUCH_Sensor_Calibrate
  3778 ;;		_MTOUCH_Sensor_Enable
  3779 ;;		_Sensor_Sampled_Reset
  3780 ;;		___bmul
  3781 ;; This function is called by:
  3782 ;;		_MTOUCH_Sensor_InitializeAll
  3783 ;; This function uses a non-reentrant model
  3784 ;;
  3785                           
  3786                           
  3787                           ;psect for function _MTOUCH_Sensor_Initialize
  3788  0AFC                     _MTOUCH_Sensor_Initialize:	
  3789                           
  3790                           ;incstack = 0
  3791                           ; Regs used in _MTOUCH_Sensor_Initialize: [wreg+fsr1l+fsr1h+status,2+status,0+pclath+cst
      +                          ack]
  3792                           ;MTOUCH_Sensor_Initialize@sensor stored from wreg
  3793  0AFC  00F8               	movwf	MTOUCH_Sensor_Initialize@sensor
  3794  0AFD                     l4120:	
  3795                           
  3796                           ;mcc_generated_files/mtouch/mtouch_sensor.c: 191: enum mtouch_sensor_error MTOUCH_Sensor
      +                          _Initialize(enum mtouch_sensor_names sensor);mcc_generated_files/mtouch/mtouch_sensor.c:
      +                           192: {;mcc_generated_files/mtouch/mtouch_sensor.c: 194:     MTOUCH_Sensor_Enable(sensor
      +                          );
  3797  0AFD  0878               	movf	MTOUCH_Sensor_Initialize@sensor,w
  3798  0AFE  318A  22C1  318A   	fcall	_MTOUCH_Sensor_Enable
  3799                           
  3800                           ;mcc_generated_files/mtouch/mtouch_sensor.c: 195:     MTOUCH_Sensor_Calibrate(sensor);
  3801  0B01  0878               	movf	MTOUCH_Sensor_Initialize@sensor,w
  3802  0B02  318A  22AE  318A   	fcall	_MTOUCH_Sensor_Calibrate
  3803                           
  3804                           ;mcc_generated_files/mtouch/mtouch_sensor.c: 196:     Sensor_Sampled_Reset(&mtouch_senso
      +                          r[sensor]);
  3805  0B05  3009               	movlw	9
  3806  0B06  00F7               	movwf	??_MTOUCH_Sensor_Initialize
  3807  0B07  0877               	movf	??_MTOUCH_Sensor_Initialize,w
  3808  0B08  00F1               	movwf	___bmul@multiplicand
  3809  0B09  0878               	movf	MTOUCH_Sensor_Initialize@sensor,w
  3810  0B0A  318A  22E7  318A   	fcall	___bmul
  3811  0B0D  3EBE               	addlw	(low (_mtouch_sensor| 0))& (0+255)
  3812  0B0E  3189  21DF  318A   	fcall	_Sensor_Sampled_Reset
  3813  0B11                     l129:	
  3814  0B11  0008               	return
  3815  0B12                     __end_of_MTOUCH_Sensor_Initialize:	
  3816                           
  3817                           	psect	text9
  3818  0AC1                     __ptext9:	
  3819 ;; *************** function _MTOUCH_Sensor_Enable *****************
  3820 ;; Defined at:
  3821 ;;		line 824 in file "mcc_generated_files/mtouch/mtouch_sensor.c"
  3822 ;; Parameters:    Size  Location     Type
  3823 ;;  sensor          1    wreg     enum E2854
  3824 ;; Auto vars:     Size  Location     Type
  3825 ;;  sensor          1    6[COMMON] enum E2854
  3826 ;; Return value:  Size  Location     Type
  3827 ;;                  1    wreg      void 
  3828 ;; Registers used:
  3829 ;;		wreg, fsr1l, fsr1h, status,2, status,0, pclath, cstack
  3830 ;; Tracked objects:
  3831 ;;		On entry : 0/0
  3832 ;;		On exit  : 0/0
  3833 ;;		Unchanged: 0/0
  3834 ;; Data sizes:     COMMON   BANK0   BANK1   BANK2   BANK3   BANK4   BANK5   BANK6
  3835 ;;      Params:         0       0       0       0       0       0       0       0
  3836 ;;      Locals:         1       0       0       0       0       0       0       0
  3837 ;;      Temps:          1       0       0       0       0       0       0       0
  3838 ;;      Totals:         2       0       0       0       0       0       0       0
  3839 ;;Total ram usage:        2 bytes
  3840 ;; Hardware stack levels used:    1
  3841 ;; Hardware stack levels required when called:    5
  3842 ;; This function calls:
  3843 ;;		___bmul
  3844 ;; This function is called by:
  3845 ;;		_MTOUCH_Sensor_Initialize
  3846 ;; This function uses a non-reentrant model
  3847 ;;
  3848                           
  3849                           
  3850                           ;psect for function _MTOUCH_Sensor_Enable
  3851  0AC1                     _MTOUCH_Sensor_Enable:	
  3852                           
  3853                           ;incstack = 0
  3854                           ; Regs used in _MTOUCH_Sensor_Enable: [wreg+fsr1l+fsr1h+status,2+status,0+pclath+cstack]
  3855                           ;MTOUCH_Sensor_Enable@sensor stored from wreg
  3856  0AC1  00F6               	movwf	MTOUCH_Sensor_Enable@sensor
  3857  0AC2                     l4056:	
  3858                           
  3859                           ;mcc_generated_files/mtouch/mtouch_sensor.c: 824: void MTOUCH_Sensor_Enable(enum mtouch_
      +                          sensor_names sensor);mcc_generated_files/mtouch/mtouch_sensor.c: 825: {;mcc_generated_fi
      +                          les/mtouch/mtouch_sensor.c: 826:     if(sensor < 1u)
  3860  0AC2  0876               	movf	MTOUCH_Sensor_Enable@sensor,w
  3861  0AC3  1D03               	btfss	3,2
  3862  0AC4  2AC6               	goto	u3641
  3863  0AC5  2AC7               	goto	u3640
  3864  0AC6                     u3641:	
  3865  0AC6  2AD3               	goto	l314
  3866  0AC7                     u3640:	
  3867  0AC7                     l4058:	
  3868                           
  3869                           ;mcc_generated_files/mtouch/mtouch_sensor.c: 827:         mtouch_sensor[sensor].enabled 
      +                          = 1;
  3870  0AC7  3009               	movlw	9
  3871  0AC8  00F5               	movwf	??_MTOUCH_Sensor_Enable
  3872  0AC9  0875               	movf	??_MTOUCH_Sensor_Enable,w
  3873  0ACA  00F1               	movwf	___bmul@multiplicand
  3874  0ACB  0876               	movf	MTOUCH_Sensor_Enable@sensor,w
  3875  0ACC  318A  22E7  318A   	fcall	___bmul
  3876  0ACF  3EC6               	addlw	(low ((_mtouch_sensor| 0+8)))& (0+255)
  3877  0AD0  0086               	movwf	6
  3878  0AD1  0187               	clrf	7
  3879  0AD2  1581               	bsf	1,3
  3880  0AD3                     l314:	
  3881  0AD3  0008               	return
  3882  0AD4                     __end_of_MTOUCH_Sensor_Enable:	
  3883                           
  3884                           	psect	text10
  3885  0AAE                     __ptext10:	
  3886 ;; *************** function _MTOUCH_Sensor_Calibrate *****************
  3887 ;; Defined at:
  3888 ;;		line 887 in file "mcc_generated_files/mtouch/mtouch_sensor.c"
  3889 ;; Parameters:    Size  Location     Type
  3890 ;;  sensor          1    wreg     enum E2854
  3891 ;; Auto vars:     Size  Location     Type
  3892 ;;  sensor          1    6[COMMON] enum E2854
  3893 ;; Return value:  Size  Location     Type
  3894 ;;                  1    wreg      void 
  3895 ;; Registers used:
  3896 ;;		wreg, fsr1l, fsr1h, status,2, status,0, pclath, cstack
  3897 ;; Tracked objects:
  3898 ;;		On entry : 0/0
  3899 ;;		On exit  : 0/0
  3900 ;;		Unchanged: 0/0
  3901 ;; Data sizes:     COMMON   BANK0   BANK1   BANK2   BANK3   BANK4   BANK5   BANK6
  3902 ;;      Params:         0       0       0       0       0       0       0       0
  3903 ;;      Locals:         1       0       0       0       0       0       0       0
  3904 ;;      Temps:          1       0       0       0       0       0       0       0
  3905 ;;      Totals:         2       0       0       0       0       0       0       0
  3906 ;;Total ram usage:        2 bytes
  3907 ;; Hardware stack levels used:    1
  3908 ;; Hardware stack levels required when called:    5
  3909 ;; This function calls:
  3910 ;;		___bmul
  3911 ;; This function is called by:
  3912 ;;		_MTOUCH_Sensor_Initialize
  3913 ;; This function uses a non-reentrant model
  3914 ;;
  3915                           
  3916                           
  3917                           ;psect for function _MTOUCH_Sensor_Calibrate
  3918  0AAE                     _MTOUCH_Sensor_Calibrate:	
  3919                           
  3920                           ;incstack = 0
  3921                           ; Regs used in _MTOUCH_Sensor_Calibrate: [wreg+fsr1l+fsr1h+status,2+status,0+pclath+csta
      +                          ck]
  3922                           ;MTOUCH_Sensor_Calibrate@sensor stored from wreg
  3923  0AAE  00F6               	movwf	MTOUCH_Sensor_Calibrate@sensor
  3924  0AAF                     l4060:	
  3925                           
  3926                           ;mcc_generated_files/mtouch/mtouch_sensor.c: 887: void MTOUCH_Sensor_Calibrate(enum mtou
      +                          ch_sensor_names sensor);mcc_generated_files/mtouch/mtouch_sensor.c: 888: {;mcc_generated
      +                          _files/mtouch/mtouch_sensor.c: 889:     if(sensor < 1u)
  3927  0AAF  0876               	movf	MTOUCH_Sensor_Calibrate@sensor,w
  3928  0AB0  1D03               	btfss	3,2
  3929  0AB1  2AB3               	goto	u3651
  3930  0AB2  2AB4               	goto	u3650
  3931  0AB3                     u3651:	
  3932  0AB3  2AC0               	goto	l342
  3933  0AB4                     u3650:	
  3934  0AB4                     l4062:	
  3935                           
  3936                           ;mcc_generated_files/mtouch/mtouch_sensor.c: 890:     {;mcc_generated_files/mtouch/mtouc
      +                          h_sensor.c: 891:         mtouch_sensor[sensor].calibrated = 0;
  3937  0AB4  3009               	movlw	9
  3938  0AB5  00F5               	movwf	??_MTOUCH_Sensor_Calibrate
  3939  0AB6  0875               	movf	??_MTOUCH_Sensor_Calibrate,w
  3940  0AB7  00F1               	movwf	___bmul@multiplicand
  3941  0AB8  0876               	movf	MTOUCH_Sensor_Calibrate@sensor,w
  3942  0AB9  318A  22E7  318A   	fcall	___bmul
  3943  0ABC  3EC6               	addlw	(low ((_mtouch_sensor| 0+8)))& (0+255)
  3944  0ABD  0086               	movwf	6
  3945  0ABE  0187               	clrf	7
  3946  0ABF  1101               	bcf	1,2
  3947  0AC0                     l342:	
  3948  0AC0  0008               	return
  3949  0AC1                     __end_of_MTOUCH_Sensor_Calibrate:	
  3950                           
  3951                           	psect	text11
  3952  0A8B                     __ptext11:	
  3953 ;; *************** function _MTOUCH_Proximity_InitializeAll *****************
  3954 ;; Defined at:
  3955 ;;		line 153 in file "mcc_generated_files/mtouch/mtouch_proximity.c"
  3956 ;; Parameters:    Size  Location     Type
  3957 ;;		None
  3958 ;; Auto vars:     Size  Location     Type
  3959 ;;		None
  3960 ;; Return value:  Size  Location     Type
  3961 ;;                  1    wreg      void 
  3962 ;; Registers used:
  3963 ;;		wreg, fsr0l, fsr0h, fsr1l, fsr1h, status,2, status,0, pclath, cstack
  3964 ;; Tracked objects:
  3965 ;;		On entry : 0/0
  3966 ;;		On exit  : 0/0
  3967 ;;		Unchanged: 0/0
  3968 ;; Data sizes:     COMMON   BANK0   BANK1   BANK2   BANK3   BANK4   BANK5   BANK6
  3969 ;;      Params:         0       0       0       0       0       0       0       0
  3970 ;;      Locals:         0       0       0       0       0       0       0       0
  3971 ;;      Temps:          0       0       0       0       0       0       0       0
  3972 ;;      Totals:         0       0       0       0       0       0       0       0
  3973 ;;Total ram usage:        0 bytes
  3974 ;; Hardware stack levels used:    1
  3975 ;; Hardware stack levels required when called:    5
  3976 ;; This function calls:
  3977 ;;		_MTOUCH_Proximity_Initialize
  3978 ;;		_memcpy
  3979 ;; This function is called by:
  3980 ;;		_MTOUCH_Initialize
  3981 ;; This function uses a non-reentrant model
  3982 ;;
  3983                           
  3984                           
  3985                           ;psect for function _MTOUCH_Proximity_InitializeAll
  3986  0A8B                     _MTOUCH_Proximity_InitializeAll:	
  3987  0A8B                     l3428:	
  3988                           ;incstack = 0
  3989                           ; Regs used in _MTOUCH_Proximity_InitializeAll: [wreg-fsr1h+status,2+status,0+pclath+cst
      +                          ack]
  3990                           
  3991                           
  3992                           ;mcc_generated_files/mtouch/mtouch_proximity.c: 155:     memcpy(mtouch_proximity,mtouch_
      +                          proximity_init,sizeof(mtouch_proximity_init));
  3993  0A8B  3000               	movlw	low (_mtouch_proximity_init| (0+32768))
  3994  0A8C  00F1               	movwf	memcpy@s1
  3995  0A8D  3090               	movlw	high (_mtouch_proximity_init| (0+32768))
  3996  0A8E  00F2               	movwf	memcpy@s1+1
  3997  0A8F  3012               	movlw	18
  3998  0A90  00F3               	movwf	memcpy@n
  3999  0A91  3000               	movlw	0
  4000  0A92  00F4               	movwf	memcpy@n+1
  4001  0A93  3058               	movlw	(low (_mtouch_proximity| 0))& (0+255)
  4002  0A94  318D  253A  318A   	fcall	_memcpy
  4003  0A97                     l3430:	
  4004                           
  4005                           ;mcc_generated_files/mtouch/mtouch_proximity.c: 157:     MTOUCH_Proximity_Initialize(Pro
      +                          ximity0);
  4006  0A97  3000               	movlw	0
  4007  0A98  318C  249A  318A   	fcall	_MTOUCH_Proximity_Initialize
  4008  0A9B                     l797:	
  4009  0A9B  0008               	return
  4010  0A9C                     __end_of_MTOUCH_Proximity_InitializeAll:	
  4011                           
  4012                           	psect	text12
  4013  0D3A                     __ptext12:	
  4014 ;; *************** function _memcpy *****************
  4015 ;; Defined at:
  4016 ;;		line 4 in file "C:\Program Files (x86)\Microchip\xc8\v2.10\pic\sources\c99\common\memcpy.c"
  4017 ;; Parameters:    Size  Location     Type
  4018 ;;  d1              1    wreg     PTR void 
  4019 ;;		 -> mtouch_proximity(18), 
  4020 ;;  s1              2    1[COMMON] PTR const void 
  4021 ;;		 -> mtouch_proximity_init(18), 
  4022 ;;  n               2    3[COMMON] unsigned int 
  4023 ;; Auto vars:     Size  Location     Type
  4024 ;;  d1              1    9[COMMON] PTR void 
  4025 ;;		 -> mtouch_proximity(18), 
  4026 ;;  s               2    6[COMMON] PTR const unsigned char 
  4027 ;;		 -> mtouch_proximity_init(18), 
  4028 ;;  d               1   10[COMMON] PTR unsigned char 
  4029 ;;		 -> mtouch_proximity(18), 
  4030 ;;  tmp             1    8[COMMON] unsigned char 
  4031 ;; Return value:  Size  Location     Type
  4032 ;;                  1    wreg      PTR void 
  4033 ;; Registers used:
  4034 ;;		wreg, fsr0l, fsr0h, fsr1l, fsr1h, status,2, status,0, pclath
  4035 ;; Tracked objects:
  4036 ;;		On entry : 0/0
  4037 ;;		On exit  : 0/0
  4038 ;;		Unchanged: 0/0
  4039 ;; Data sizes:     COMMON   BANK0   BANK1   BANK2   BANK3   BANK4   BANK5   BANK6
  4040 ;;      Params:         4       0       0       0       0       0       0       0
  4041 ;;      Locals:         5       0       0       0       0       0       0       0
  4042 ;;      Temps:          1       0       0       0       0       0       0       0
  4043 ;;      Totals:        10       0       0       0       0       0       0       0
  4044 ;;Total ram usage:       10 bytes
  4045 ;; Hardware stack levels used:    1
  4046 ;; Hardware stack levels required when called:    4
  4047 ;; This function calls:
  4048 ;;		Nothing
  4049 ;; This function is called by:
  4050 ;;		_MTOUCH_Proximity_InitializeAll
  4051 ;; This function uses a non-reentrant model
  4052 ;;
  4053                           
  4054                           
  4055                           ;psect for function _memcpy
  4056  0D3A                     _memcpy:	
  4057                           
  4058                           ;incstack = 0
  4059                           ; Regs used in _memcpy: [wreg-fsr1h+status,2+status,0+pclath]
  4060                           ;memcpy@d1 stored from wreg
  4061  0D3A  00F9               	movwf	memcpy@d1
  4062  0D3B                     l3270:	
  4063  0D3B  0872               	movf	memcpy@s1+1,w
  4064  0D3C  00F7               	movwf	memcpy@s+1
  4065  0D3D  0871               	movf	memcpy@s1,w
  4066  0D3E  00F6               	movwf	memcpy@s
  4067  0D3F  0879               	movf	memcpy@d1,w
  4068  0D40  00F5               	movwf	??_memcpy
  4069  0D41  0875               	movf	??_memcpy,w
  4070  0D42  00FA               	movwf	memcpy@d
  4071  0D43  2D5B               	goto	l3280
  4072  0D44                     l3272:	
  4073  0D44  0876               	movf	memcpy@s,w
  4074  0D45  0084               	movwf	4
  4075  0D46  0877               	movf	memcpy@s+1,w
  4076  0D47  0085               	movwf	5
  4077  0D48  0800               	movf	0,w	;code access
  4078  0D49  00F5               	movwf	??_memcpy
  4079  0D4A  0875               	movf	??_memcpy,w
  4080  0D4B  00F8               	movwf	memcpy@tmp
  4081  0D4C                     l3274:	
  4082  0D4C  3001               	movlw	1
  4083  0D4D  07F6               	addwf	memcpy@s,f
  4084  0D4E  3000               	movlw	0
  4085  0D4F  3DF7               	addwfc	memcpy@s+1,f
  4086  0D50                     l3276:	
  4087  0D50  0878               	movf	memcpy@tmp,w
  4088  0D51  00F5               	movwf	??_memcpy
  4089  0D52  087A               	movf	memcpy@d,w
  4090  0D53  0086               	movwf	6
  4091  0D54  0187               	clrf	7
  4092  0D55  0875               	movf	??_memcpy,w
  4093  0D56  0081               	movwf	1
  4094  0D57                     l3278:	
  4095  0D57  3001               	movlw	1
  4096  0D58  00F5               	movwf	??_memcpy
  4097  0D59  0875               	movf	??_memcpy,w
  4098  0D5A  07FA               	addwf	memcpy@d,f
  4099  0D5B                     l3280:	
  4100  0D5B  3001               	movlw	1
  4101  0D5C  02F3               	subwf	memcpy@n,f
  4102  0D5D  3000               	movlw	0
  4103  0D5E  3BF4               	subwfb	memcpy@n+1,f
  4104  0D5F  0A73               	incf	memcpy@n,w
  4105  0D60  1D03               	skipz
  4106  0D61  2D66               	goto	u2531
  4107  0D62  0A74               	incf	memcpy@n+1,w
  4108  0D63  1D03               	btfss	3,2
  4109  0D64  2D66               	goto	u2531
  4110  0D65  2D67               	goto	u2530
  4111  0D66                     u2531:	
  4112  0D66  2D44               	goto	l3272
  4113  0D67                     u2530:	
  4114  0D67                     l1454:	
  4115  0D67  0008               	return
  4116  0D68                     __end_of_memcpy:	
  4117                           
  4118                           	psect	text13
  4119  0E11                     __ptext13:	
  4120 ;; *************** function _EUSART_Initialize *****************
  4121 ;; Defined at:
  4122 ;;		line 88 in file "mcc_generated_files/eusart.c"
  4123 ;; Parameters:    Size  Location     Type
  4124 ;;		None
  4125 ;; Auto vars:     Size  Location     Type
  4126 ;;		None
  4127 ;; Return value:  Size  Location     Type
  4128 ;;                  1    wreg      void 
  4129 ;; Registers used:
  4130 ;;		wreg, status,2, status,0, pclath, cstack
  4131 ;; Tracked objects:
  4132 ;;		On entry : 0/0
  4133 ;;		On exit  : 0/0
  4134 ;;		Unchanged: 0/0
  4135 ;; Data sizes:     COMMON   BANK0   BANK1   BANK2   BANK3   BANK4   BANK5   BANK6
  4136 ;;      Params:         0       0       0       0       0       0       0       0
  4137 ;;      Locals:         0       0       0       0       0       0       0       0
  4138 ;;      Temps:          1       0       0       0       0       0       0       0
  4139 ;;      Totals:         1       0       0       0       0       0       0       0
  4140 ;;Total ram usage:        1 bytes
  4141 ;; Hardware stack levels used:    1
  4142 ;; Hardware stack levels required when called:    5
  4143 ;; This function calls:
  4144 ;;		_EUSART_SetErrorHandler
  4145 ;;		_EUSART_SetFramingErrorHandler
  4146 ;;		_EUSART_SetOverrunErrorHandler
  4147 ;;		_EUSART_SetRxInterruptHandler
  4148 ;;		_EUSART_SetTxInterruptHandler
  4149 ;; This function is called by:
  4150 ;;		_SYSTEM_Initialize
  4151 ;; This function uses a non-reentrant model
  4152 ;;
  4153                           
  4154                           
  4155                           ;psect for function _EUSART_Initialize
  4156  0E11                     _EUSART_Initialize:	
  4157  0E11                     l3502:	
  4158                           ;incstack = 0
  4159                           ; Regs used in _EUSART_Initialize: [wreg+status,2+status,0+pclath+cstack]
  4160                           
  4161                           
  4162                           ;mcc_generated_files/eusart.c: 91:     PIE1bits.RCIE = 0;
  4163  0E11  0021               	movlb	1	; select bank1
  4164  0E12  1291               	bcf	17,5	;volatile
  4165  0E13                     l3504:	
  4166                           
  4167                           ;mcc_generated_files/eusart.c: 92:     EUSART_SetRxInterruptHandler(EUSART_Receive_ISR);
  4168  0E13  309B               	movlw	low _EUSART_Receive_ISR
  4169  0E14  00F1               	movwf	EUSART_SetRxInterruptHandler@interruptHandler
  4170  0E15  300D               	movlw	high _EUSART_Receive_ISR
  4171  0E16  00F2               	movwf	EUSART_SetRxInterruptHandler@interruptHandler+1
  4172  0E17  3189  21AC  318E   	fcall	_EUSART_SetRxInterruptHandler
  4173  0E1A                     l3506:	
  4174                           
  4175                           ;mcc_generated_files/eusart.c: 93:     PIE1bits.TXIE = 0;
  4176  0E1A  0021               	movlb	1	; select bank1
  4177  0E1B  1211               	bcf	17,4	;volatile
  4178                           
  4179                           ;mcc_generated_files/eusart.c: 94:     EUSART_SetTxInterruptHandler(EUSART_Transmit_ISR)
      +                          ;
  4180  0E1C  3078               	movlw	low _EUSART_Transmit_ISR
  4181  0E1D  00F1               	movwf	EUSART_SetTxInterruptHandler@interruptHandler
  4182  0E1E  300C               	movlw	high _EUSART_Transmit_ISR
  4183  0E1F  00F2               	movwf	EUSART_SetTxInterruptHandler@interruptHandler+1
  4184  0E20  3189  21B2  318E   	fcall	_EUSART_SetTxInterruptHandler
  4185  0E23                     l3508:	
  4186                           
  4187                           ;mcc_generated_files/eusart.c: 98:     BAUDCON = 0x08;
  4188  0E23  3008               	movlw	8
  4189  0E24  0023               	movlb	3	; select bank3
  4190  0E25  009F               	movwf	31	;volatile
  4191  0E26                     l3510:	
  4192                           
  4193                           ;mcc_generated_files/eusart.c: 101:     RCSTA = 0x90;
  4194  0E26  3090               	movlw	144
  4195  0E27  009D               	movwf	29	;volatile
  4196  0E28                     l3512:	
  4197                           
  4198                           ;mcc_generated_files/eusart.c: 104:     TXSTA = 0x24;
  4199  0E28  3024               	movlw	36
  4200  0E29  009E               	movwf	30	;volatile
  4201  0E2A                     l3514:	
  4202                           
  4203                           ;mcc_generated_files/eusart.c: 107:     SPBRGL = 0x67;
  4204  0E2A  3067               	movlw	103
  4205  0E2B  009B               	movwf	27	;volatile
  4206  0E2C                     l3516:	
  4207                           
  4208                           ;mcc_generated_files/eusart.c: 110:     SPBRGH = 0x00;
  4209  0E2C  019C               	clrf	28	;volatile
  4210  0E2D                     l3518:	
  4211                           
  4212                           ;mcc_generated_files/eusart.c: 113:     EUSART_SetFramingErrorHandler(EUSART_DefaultFram
      +                          ingErrorHandler);
  4213  0E2D  306D               	movlw	low _EUSART_DefaultFramingErrorHandler
  4214  0E2E  00F1               	movwf	EUSART_SetFramingErrorHandler@interruptHandler
  4215  0E2F  3009               	movlw	high _EUSART_DefaultFramingErrorHandler
  4216  0E30  00F2               	movwf	EUSART_SetFramingErrorHandler@interruptHandler+1
  4217  0E31  3189  21A0  318E   	fcall	_EUSART_SetFramingErrorHandler
  4218  0E34                     l3520:	
  4219                           
  4220                           ;mcc_generated_files/eusart.c: 114:     EUSART_SetOverrunErrorHandler(EUSART_DefaultOver
      +                          runErrorHandler);
  4221  0E34  307B               	movlw	low _EUSART_DefaultOverrunErrorHandler
  4222  0E35  00F1               	movwf	EUSART_SetOverrunErrorHandler@interruptHandler
  4223  0E36  3009               	movlw	high _EUSART_DefaultOverrunErrorHandler
  4224  0E37  00F2               	movwf	EUSART_SetOverrunErrorHandler@interruptHandler+1
  4225  0E38  3189  21A6  318E   	fcall	_EUSART_SetOverrunErrorHandler
  4226  0E3B                     l3522:	
  4227                           
  4228                           ;mcc_generated_files/eusart.c: 115:     EUSART_SetErrorHandler(EUSART_DefaultErrorHandle
      +                          r);
  4229  0E3B  3077               	movlw	low _EUSART_DefaultErrorHandler
  4230  0E3C  00F1               	movwf	EUSART_SetErrorHandler@interruptHandler
  4231  0E3D  3009               	movlw	high _EUSART_DefaultErrorHandler
  4232  0E3E  00F2               	movwf	EUSART_SetErrorHandler@interruptHandler+1
  4233  0E3F  3189  219A  318E   	fcall	_EUSART_SetErrorHandler
  4234                           
  4235                           ;mcc_generated_files/eusart.c: 117:     eusartRxLastError.status = 0;
  4236  0E42  0020               	movlb	0	; select bank0
  4237  0E43  01D0               	clrf	_eusartRxLastError	;volatile
  4238                           
  4239                           ;mcc_generated_files/eusart.c: 120:     eusartTxHead = 0;
  4240  0E44  01D4               	clrf	_eusartTxHead	;volatile
  4241                           
  4242                           ;mcc_generated_files/eusart.c: 121:     eusartTxTail = 0;
  4243  0E45  01D3               	clrf	_eusartTxTail	;volatile
  4244  0E46                     l3524:	
  4245                           
  4246                           ;mcc_generated_files/eusart.c: 122:     eusartTxBufferRemaining = sizeof(eusartTxBuffer)
      +                          ;
  4247  0E46  3008               	movlw	8
  4248  0E47  00F3               	movwf	??_EUSART_Initialize
  4249  0E48  0873               	movf	??_EUSART_Initialize,w
  4250  0E49  00EC               	movwf	_eusartTxBufferRemaining	;volatile
  4251  0E4A                     l3526:	
  4252                           
  4253                           ;mcc_generated_files/eusart.c: 124:     eusartRxHead = 0;
  4254  0E4A  01FC               	clrf	_eusartRxHead	;volatile
  4255  0E4B                     l3528:	
  4256                           
  4257                           ;mcc_generated_files/eusart.c: 125:     eusartRxTail = 0;
  4258  0E4B  01D2               	clrf	_eusartRxTail	;volatile
  4259  0E4C                     l3530:	
  4260                           
  4261                           ;mcc_generated_files/eusart.c: 126:     eusartRxCount = 0;
  4262  0E4C  01D1               	clrf	_eusartRxCount	;volatile
  4263  0E4D                     l3532:	
  4264                           
  4265                           ;mcc_generated_files/eusart.c: 129:     PIE1bits.RCIE = 1;
  4266  0E4D  0021               	movlb	1	; select bank1
  4267  0E4E  1691               	bsf	17,5	;volatile
  4268  0E4F                     l510:	
  4269  0E4F  0008               	return
  4270  0E50                     __end_of_EUSART_Initialize:	
  4271                           
  4272                           	psect	text14
  4273  09B2                     __ptext14:	
  4274 ;; *************** function _EUSART_SetTxInterruptHandler *****************
  4275 ;; Defined at:
  4276 ;;		line 285 in file "mcc_generated_files/eusart.c"
  4277 ;; Parameters:    Size  Location     Type
  4278 ;;  interruptHan    2    1[COMMON] PTR FTN()void 
  4279 ;;		 -> EUSART_Transmit_ISR(1), 
  4280 ;; Auto vars:     Size  Location     Type
  4281 ;;		None
  4282 ;; Return value:  Size  Location     Type
  4283 ;;                  1    wreg      void 
  4284 ;; Registers used:
  4285 ;;		wreg
  4286 ;; Tracked objects:
  4287 ;;		On entry : 0/0
  4288 ;;		On exit  : 0/0
  4289 ;;		Unchanged: 0/0
  4290 ;; Data sizes:     COMMON   BANK0   BANK1   BANK2   BANK3   BANK4   BANK5   BANK6
  4291 ;;      Params:         2       0       0       0       0       0       0       0
  4292 ;;      Locals:         0       0       0       0       0       0       0       0
  4293 ;;      Temps:          0       0       0       0       0       0       0       0
  4294 ;;      Totals:         2       0       0       0       0       0       0       0
  4295 ;;Total ram usage:        2 bytes
  4296 ;; Hardware stack levels used:    1
  4297 ;; Hardware stack levels required when called:    4
  4298 ;; This function calls:
  4299 ;;		Nothing
  4300 ;; This function is called by:
  4301 ;;		_EUSART_Initialize
  4302 ;; This function uses a non-reentrant model
  4303 ;;
  4304                           
  4305                           
  4306                           ;psect for function _EUSART_SetTxInterruptHandler
  4307  09B2                     _EUSART_SetTxInterruptHandler:	
  4308  09B2                     l3436:	
  4309                           ;incstack = 0
  4310                           ; Regs used in _EUSART_SetTxInterruptHandler: [wreg]
  4311                           
  4312                           
  4313                           ;mcc_generated_files/eusart.c: 286:     EUSART_TxDefaultInterruptHandler = interruptHand
      +                          ler;
  4314  09B2  0872               	movf	EUSART_SetTxInterruptHandler@interruptHandler+1,w
  4315  09B3  0020               	movlb	0	; select bank0
  4316  09B4  00EB               	movwf	_EUSART_TxDefaultInterruptHandler+1
  4317  09B5  0871               	movf	EUSART_SetTxInterruptHandler@interruptHandler,w
  4318  09B6  00EA               	movwf	_EUSART_TxDefaultInterruptHandler
  4319  09B7                     l582:	
  4320  09B7  0008               	return
  4321  09B8                     __end_of_EUSART_SetTxInterruptHandler:	
  4322                           
  4323                           	psect	text15
  4324  09AC                     __ptext15:	
  4325 ;; *************** function _EUSART_SetRxInterruptHandler *****************
  4326 ;; Defined at:
  4327 ;;		line 289 in file "mcc_generated_files/eusart.c"
  4328 ;; Parameters:    Size  Location     Type
  4329 ;;  interruptHan    2    1[COMMON] PTR FTN()void 
  4330 ;;		 -> EUSART_Receive_ISR(1), 
  4331 ;; Auto vars:     Size  Location     Type
  4332 ;;		None
  4333 ;; Return value:  Size  Location     Type
  4334 ;;                  1    wreg      void 
  4335 ;; Registers used:
  4336 ;;		wreg
  4337 ;; Tracked objects:
  4338 ;;		On entry : 0/0
  4339 ;;		On exit  : 0/0
  4340 ;;		Unchanged: 0/0
  4341 ;; Data sizes:     COMMON   BANK0   BANK1   BANK2   BANK3   BANK4   BANK5   BANK6
  4342 ;;      Params:         2       0       0       0       0       0       0       0
  4343 ;;      Locals:         0       0       0       0       0       0       0       0
  4344 ;;      Temps:          0       0       0       0       0       0       0       0
  4345 ;;      Totals:         2       0       0       0       0       0       0       0
  4346 ;;Total ram usage:        2 bytes
  4347 ;; Hardware stack levels used:    1
  4348 ;; Hardware stack levels required when called:    4
  4349 ;; This function calls:
  4350 ;;		Nothing
  4351 ;; This function is called by:
  4352 ;;		_EUSART_Initialize
  4353 ;; This function uses a non-reentrant model
  4354 ;;
  4355                           
  4356                           
  4357                           ;psect for function _EUSART_SetRxInterruptHandler
  4358  09AC                     _EUSART_SetRxInterruptHandler:	
  4359  09AC                     l3434:	
  4360                           ;incstack = 0
  4361                           ; Regs used in _EUSART_SetRxInterruptHandler: [wreg]
  4362                           
  4363                           
  4364                           ;mcc_generated_files/eusart.c: 290:     EUSART_RxDefaultInterruptHandler = interruptHand
      +                          ler;
  4365  09AC  0872               	movf	EUSART_SetRxInterruptHandler@interruptHandler+1,w
  4366  09AD  0021               	movlb	1	; select bank1
  4367  09AE  00CE               	movwf	(_EUSART_RxDefaultInterruptHandler+1)^(0+128)
  4368  09AF  0871               	movf	EUSART_SetRxInterruptHandler@interruptHandler,w
  4369  09B0  00CD               	movwf	_EUSART_RxDefaultInterruptHandler^(0+128)
  4370  09B1                     l585:	
  4371  09B1  0008               	return
  4372  09B2                     __end_of_EUSART_SetRxInterruptHandler:	
  4373                           
  4374                           	psect	text16
  4375  09A6                     __ptext16:	
  4376 ;; *************** function _EUSART_SetOverrunErrorHandler *****************
  4377 ;; Defined at:
  4378 ;;		line 277 in file "mcc_generated_files/eusart.c"
  4379 ;; Parameters:    Size  Location     Type
  4380 ;;  interruptHan    2    1[COMMON] PTR FTN()void 
  4381 ;;		 -> EUSART_DefaultOverrunErrorHandler(1), 
  4382 ;; Auto vars:     Size  Location     Type
  4383 ;;		None
  4384 ;; Return value:  Size  Location     Type
  4385 ;;                  1    wreg      void 
  4386 ;; Registers used:
  4387 ;;		wreg
  4388 ;; Tracked objects:
  4389 ;;		On entry : 0/0
  4390 ;;		On exit  : 0/0
  4391 ;;		Unchanged: 0/0
  4392 ;; Data sizes:     COMMON   BANK0   BANK1   BANK2   BANK3   BANK4   BANK5   BANK6
  4393 ;;      Params:         2       0       0       0       0       0       0       0
  4394 ;;      Locals:         0       0       0       0       0       0       0       0
  4395 ;;      Temps:          0       0       0       0       0       0       0       0
  4396 ;;      Totals:         2       0       0       0       0       0       0       0
  4397 ;;Total ram usage:        2 bytes
  4398 ;; Hardware stack levels used:    1
  4399 ;; Hardware stack levels required when called:    4
  4400 ;; This function calls:
  4401 ;;		Nothing
  4402 ;; This function is called by:
  4403 ;;		_EUSART_Initialize
  4404 ;; This function uses a non-reentrant model
  4405 ;;
  4406                           
  4407                           
  4408                           ;psect for function _EUSART_SetOverrunErrorHandler
  4409  09A6                     _EUSART_SetOverrunErrorHandler:	
  4410  09A6                     l3440:	
  4411                           ;incstack = 0
  4412                           ; Regs used in _EUSART_SetOverrunErrorHandler: [wreg]
  4413                           
  4414                           
  4415                           ;mcc_generated_files/eusart.c: 278:     EUSART_OverrunErrorHandler = interruptHandler;
  4416  09A6  0872               	movf	EUSART_SetOverrunErrorHandler@interruptHandler+1,w
  4417  09A7  0021               	movlb	1	; select bank1
  4418  09A8  00CA               	movwf	(_EUSART_OverrunErrorHandler+1)^(0+128)
  4419  09A9  0871               	movf	EUSART_SetOverrunErrorHandler@interruptHandler,w
  4420  09AA  00C9               	movwf	_EUSART_OverrunErrorHandler^(0+128)
  4421  09AB                     l576:	
  4422  09AB  0008               	return
  4423  09AC                     __end_of_EUSART_SetOverrunErrorHandler:	
  4424                           
  4425                           	psect	text17
  4426  09A0                     __ptext17:	
  4427 ;; *************** function _EUSART_SetFramingErrorHandler *****************
  4428 ;; Defined at:
  4429 ;;		line 273 in file "mcc_generated_files/eusart.c"
  4430 ;; Parameters:    Size  Location     Type
  4431 ;;  interruptHan    2    1[COMMON] PTR FTN()void 
  4432 ;;		 -> EUSART_DefaultFramingErrorHandler(1), 
  4433 ;; Auto vars:     Size  Location     Type
  4434 ;;		None
  4435 ;; Return value:  Size  Location     Type
  4436 ;;                  1    wreg      void 
  4437 ;; Registers used:
  4438 ;;		wreg
  4439 ;; Tracked objects:
  4440 ;;		On entry : 0/0
  4441 ;;		On exit  : 0/0
  4442 ;;		Unchanged: 0/0
  4443 ;; Data sizes:     COMMON   BANK0   BANK1   BANK2   BANK3   BANK4   BANK5   BANK6
  4444 ;;      Params:         2       0       0       0       0       0       0       0
  4445 ;;      Locals:         0       0       0       0       0       0       0       0
  4446 ;;      Temps:          0       0       0       0       0       0       0       0
  4447 ;;      Totals:         2       0       0       0       0       0       0       0
  4448 ;;Total ram usage:        2 bytes
  4449 ;; Hardware stack levels used:    1
  4450 ;; Hardware stack levels required when called:    4
  4451 ;; This function calls:
  4452 ;;		Nothing
  4453 ;; This function is called by:
  4454 ;;		_EUSART_Initialize
  4455 ;; This function uses a non-reentrant model
  4456 ;;
  4457                           
  4458                           
  4459                           ;psect for function _EUSART_SetFramingErrorHandler
  4460  09A0                     _EUSART_SetFramingErrorHandler:	
  4461  09A0                     l3438:	
  4462                           ;incstack = 0
  4463                           ; Regs used in _EUSART_SetFramingErrorHandler: [wreg]
  4464                           
  4465                           
  4466                           ;mcc_generated_files/eusart.c: 274:     EUSART_FramingErrorHandler = interruptHandler;
  4467  09A0  0872               	movf	EUSART_SetFramingErrorHandler@interruptHandler+1,w
  4468  09A1  0021               	movlb	1	; select bank1
  4469  09A2  00CC               	movwf	(_EUSART_FramingErrorHandler+1)^(0+128)
  4470  09A3  0871               	movf	EUSART_SetFramingErrorHandler@interruptHandler,w
  4471  09A4  00CB               	movwf	_EUSART_FramingErrorHandler^(0+128)
  4472  09A5                     l573:	
  4473  09A5  0008               	return
  4474  09A6                     __end_of_EUSART_SetFramingErrorHandler:	
  4475                           
  4476                           	psect	text18
  4477  099A                     __ptext18:	
  4478 ;; *************** function _EUSART_SetErrorHandler *****************
  4479 ;; Defined at:
  4480 ;;		line 281 in file "mcc_generated_files/eusart.c"
  4481 ;; Parameters:    Size  Location     Type
  4482 ;;  interruptHan    2    1[COMMON] PTR FTN()void 
  4483 ;;		 -> EUSART_DefaultErrorHandler(1), 
  4484 ;; Auto vars:     Size  Location     Type
  4485 ;;		None
  4486 ;; Return value:  Size  Location     Type
  4487 ;;                  1    wreg      void 
  4488 ;; Registers used:
  4489 ;;		wreg
  4490 ;; Tracked objects:
  4491 ;;		On entry : 0/0
  4492 ;;		On exit  : 0/0
  4493 ;;		Unchanged: 0/0
  4494 ;; Data sizes:     COMMON   BANK0   BANK1   BANK2   BANK3   BANK4   BANK5   BANK6
  4495 ;;      Params:         2       0       0       0       0       0       0       0
  4496 ;;      Locals:         0       0       0       0       0       0       0       0
  4497 ;;      Temps:          0       0       0       0       0       0       0       0
  4498 ;;      Totals:         2       0       0       0       0       0       0       0
  4499 ;;Total ram usage:        2 bytes
  4500 ;; Hardware stack levels used:    1
  4501 ;; Hardware stack levels required when called:    4
  4502 ;; This function calls:
  4503 ;;		Nothing
  4504 ;; This function is called by:
  4505 ;;		_EUSART_Initialize
  4506 ;; This function uses a non-reentrant model
  4507 ;;
  4508                           
  4509                           
  4510                           ;psect for function _EUSART_SetErrorHandler
  4511  099A                     _EUSART_SetErrorHandler:	
  4512  099A                     l3442:	
  4513                           ;incstack = 0
  4514                           ; Regs used in _EUSART_SetErrorHandler: [wreg]
  4515                           
  4516                           
  4517                           ;mcc_generated_files/eusart.c: 282:     EUSART_ErrorHandler = interruptHandler;
  4518  099A  0872               	movf	EUSART_SetErrorHandler@interruptHandler+1,w
  4519  099B  0021               	movlb	1	; select bank1
  4520  099C  00C8               	movwf	(_EUSART_ErrorHandler+1)^(0+128)
  4521  099D  0871               	movf	EUSART_SetErrorHandler@interruptHandler,w
  4522  099E  00C7               	movwf	_EUSART_ErrorHandler^(0+128)
  4523  099F                     l579:	
  4524  099F  0008               	return
  4525  09A0                     __end_of_EUSART_SetErrorHandler:	
  4526                           
  4527                           	psect	text19
  4528  0C39                     __ptext19:	
  4529 ;; *************** function _MTOUCH_Service_Mainloop *****************
  4530 ;; Defined at:
  4531 ;;		line 98 in file "mcc_generated_files/mtouch/mtouch.c"
  4532 ;; Parameters:    Size  Location     Type
  4533 ;;		None
  4534 ;; Auto vars:     Size  Location     Type
  4535 ;;		None
  4536 ;; Return value:  Size  Location     Type
  4537 ;;                  1    wreg      _Bool 
  4538 ;; Registers used:
  4539 ;;		wreg, fsr0l, fsr0h, fsr1l, fsr1h, status,2, status,0, pclath, cstack
  4540 ;; Tracked objects:
  4541 ;;		On entry : 0/0
  4542 ;;		On exit  : 0/0
  4543 ;;		Unchanged: 0/0
  4544 ;; Data sizes:     COMMON   BANK0   BANK1   BANK2   BANK3   BANK4   BANK5   BANK6
  4545 ;;      Params:         0       0       0       0       0       0       0       0
  4546 ;;      Locals:         0       0       0       0       0       0       0       0
  4547 ;;      Temps:          0       1       0       0       0       0       0       0
  4548 ;;      Totals:         0       1       0       0       0       0       0       0
  4549 ;;Total ram usage:        1 bytes
  4550 ;; Hardware stack levels used:    1
  4551 ;; Hardware stack levels required when called:   11
  4552 ;; This function calls:
  4553 ;;		_MTOUCH_Proximity_ServiceAll
  4554 ;;		_MTOUCH_Sensor_SampleAll
  4555 ;;		_MTOUCH_Sensor_Sampled_ResetAll
  4556 ;;		_MTOUCH_Tick
  4557 ;;		_MTOUCH_needReburst
  4558 ;; This function is called by:
  4559 ;;		_main
  4560 ;;		_touch_example
  4561 ;; This function uses a non-reentrant model
  4562 ;;
  4563                           
  4564                           
  4565                           ;psect for function _MTOUCH_Service_Mainloop
  4566  0C39                     _MTOUCH_Service_Mainloop:	
  4567  0C39                     l4296:	
  4568                           ;incstack = 0
  4569                           ; Regs used in _MTOUCH_Service_Mainloop: [wreg-fsr1h+status,2+status,0+pclath+cstack]
  4570                           
  4571                           
  4572                           ;mcc_generated_files/mtouch/mtouch.c: 102:     mtouch_time_toScan = 1;
  4573  0C39  0020               	movlb	0	; select bank0
  4574  0C3A  01D5               	clrf	_mtouch_time_toScan
  4575  0C3B  0AD5               	incf	_mtouch_time_toScan,f
  4576  0C3C                     l4298:	
  4577  0C3C                     l4300:	
  4578                           ;mcc_generated_files/mtouch/mtouch.c: 104:     if(mtouch_time_toScan)
  4579                           
  4580                           
  4581                           ;mcc_generated_files/mtouch/mtouch.c: 105:     {;mcc_generated_files/mtouch/mtouch.c: 10
      +                          6:         if(MTOUCH_Sensor_SampleAll() == 0)
  4582  0C3C  318B  235A  318C   	fcall	_MTOUCH_Sensor_SampleAll
  4583  0C3F  3A00               	xorlw	0
  4584  0C40  1D03               	skipz
  4585  0C41  2C43               	goto	u3981
  4586  0C42  2C44               	goto	u3980
  4587  0C43                     u3981:	
  4588  0C43  2C46               	goto	l4306
  4589  0C44                     u3980:	
  4590  0C44                     l4302:	
  4591                           
  4592                           ;mcc_generated_files/mtouch/mtouch.c: 107:         return 0;
  4593  0C44  3000               	movlw	0
  4594  0C45  2C57               	goto	l428
  4595  0C46                     l4306:	
  4596                           
  4597                           ;mcc_generated_files/mtouch/mtouch.c: 110:             MTOUCH_Proximity_ServiceAll();
  4598  0C46  3189  218B  318C   	fcall	_MTOUCH_Proximity_ServiceAll
  4599  0C49                     l4308:	
  4600                           
  4601                           ;mcc_generated_files/mtouch/mtouch.c: 114:             mtouch_time_toScan = MTOUCH_needR
      +                          eburst();
  4602  0C49  3180  2002  318C   	fcall	_MTOUCH_needReburst
  4603  0C4C  0020               	movlb	0	; select bank0
  4604  0C4D  00C8               	movwf	??_MTOUCH_Service_Mainloop
  4605  0C4E  0848               	movf	??_MTOUCH_Service_Mainloop,w
  4606  0C4F  00D5               	movwf	_mtouch_time_toScan
  4607  0C50                     l4310:	
  4608                           
  4609                           ;mcc_generated_files/mtouch/mtouch.c: 115:             MTOUCH_Sensor_Sampled_ResetAll();
  4610  0C50  318B  23FC  318C   	fcall	_MTOUCH_Sensor_Sampled_ResetAll
  4611  0C53                     l4312:	
  4612                           
  4613                           ;mcc_generated_files/mtouch/mtouch.c: 116:             MTOUCH_Tick();
  4614  0C53  3189  2183  318C   	fcall	_MTOUCH_Tick
  4615  0C56                     l4314:	
  4616                           
  4617                           ;mcc_generated_files/mtouch/mtouch.c: 117:             return 1;
  4618  0C56  3001               	movlw	1
  4619  0C57                     l428:	
  4620  0C57  0008               	return
  4621  0C58                     __end_of_MTOUCH_Service_Mainloop:	
  4622                           
  4623                           	psect	text20
  4624  0002                     __ptext20:	
  4625 ;; *************** function _MTOUCH_needReburst *****************
  4626 ;; Defined at:
  4627 ;;		line 140 in file "mcc_generated_files/mtouch/mtouch.c"
  4628 ;; Parameters:    Size  Location     Type
  4629 ;;		None
  4630 ;; Auto vars:     Size  Location     Type
  4631 ;;  needReburst     1    0        _Bool 
  4632 ;; Return value:  Size  Location     Type
  4633 ;;                  1    wreg      _Bool 
  4634 ;; Registers used:
  4635 ;;		wreg, status,2
  4636 ;; Tracked objects:
  4637 ;;		On entry : 0/0
  4638 ;;		On exit  : 0/0
  4639 ;;		Unchanged: 0/0
  4640 ;; Data sizes:     COMMON   BANK0   BANK1   BANK2   BANK3   BANK4   BANK5   BANK6
  4641 ;;      Params:         0       0       0       0       0       0       0       0
  4642 ;;      Locals:         1       0       0       0       0       0       0       0
  4643 ;;      Temps:          0       0       0       0       0       0       0       0
  4644 ;;      Totals:         1       0       0       0       0       0       0       0
  4645 ;;Total ram usage:        1 bytes
  4646 ;; Hardware stack levels used:    1
  4647 ;; Hardware stack levels required when called:    4
  4648 ;; This function calls:
  4649 ;;		Nothing
  4650 ;; This function is called by:
  4651 ;;		_MTOUCH_Service_Mainloop
  4652 ;; This function uses a non-reentrant model
  4653 ;;
  4654                           
  4655                           
  4656                           ;psect for function _MTOUCH_needReburst
  4657  0002                     _MTOUCH_needReburst:	
  4658  0002                     l3494:	
  4659                           ;incstack = 0
  4660                           ; Regs used in _MTOUCH_needReburst: [wreg+status,2]
  4661                           
  4662  0002                     l3496:	
  4663                           
  4664                           ;mcc_generated_files/mtouch/mtouch.c: 144:     return needReburst;
  4665  0002  3000               	movlw	0
  4666  0003                     l435:	
  4667  0003  0008               	return
  4668  0004                     __end_of_MTOUCH_needReburst:	
  4669                           
  4670                           	psect	text21
  4671  0983                     __ptext21:	
  4672 ;; *************** function _MTOUCH_Tick *****************
  4673 ;; Defined at:
  4674 ;;		line 130 in file "mcc_generated_files/mtouch/mtouch.c"
  4675 ;; Parameters:    Size  Location     Type
  4676 ;;		None
  4677 ;; Auto vars:     Size  Location     Type
  4678 ;;		None
  4679 ;; Return value:  Size  Location     Type
  4680 ;;                  1    wreg      void 
  4681 ;; Registers used:
  4682 ;;		wreg, fsr1l, fsr1h, status,2, status,0, pclath, cstack
  4683 ;; Tracked objects:
  4684 ;;		On entry : 0/0
  4685 ;;		On exit  : 0/0
  4686 ;;		Unchanged: 0/0
  4687 ;; Data sizes:     COMMON   BANK0   BANK1   BANK2   BANK3   BANK4   BANK5   BANK6
  4688 ;;      Params:         0       0       0       0       0       0       0       0
  4689 ;;      Locals:         0       0       0       0       0       0       0       0
  4690 ;;      Temps:          0       0       0       0       0       0       0       0
  4691 ;;      Totals:         0       0       0       0       0       0       0       0
  4692 ;;Total ram usage:        0 bytes
  4693 ;; Hardware stack levels used:    1
  4694 ;; Hardware stack levels required when called:    6
  4695 ;; This function calls:
  4696 ;;		_MTOUCH_Proximity_Tick
  4697 ;; This function is called by:
  4698 ;;		_MTOUCH_Service_Mainloop
  4699 ;; This function uses a non-reentrant model
  4700 ;;
  4701                           
  4702                           
  4703                           ;psect for function _MTOUCH_Tick
  4704  0983                     _MTOUCH_Tick:	
  4705  0983                     l3500:	
  4706                           ;incstack = 0
  4707                           ; Regs used in _MTOUCH_Tick: [wreg+fsr1l+fsr1h+status,2+status,0+pclath+cstack]
  4708                           
  4709                           
  4710                           ;mcc_generated_files/mtouch/mtouch.c: 132:     MTOUCH_Proximity_Tick();
  4711  0983  3189  2195  3189   	fcall	_MTOUCH_Proximity_Tick
  4712  0986                     l432:	
  4713  0986  0008               	return
  4714  0987                     __end_of_MTOUCH_Tick:	
  4715                           
  4716                           	psect	text22
  4717  0995                     __ptext22:	
  4718 ;; *************** function _MTOUCH_Proximity_Tick *****************
  4719 ;; Defined at:
  4720 ;;		line 264 in file "mcc_generated_files/mtouch/mtouch_proximity.c"
  4721 ;; Parameters:    Size  Location     Type
  4722 ;;		None
  4723 ;; Auto vars:     Size  Location     Type
  4724 ;;		None
  4725 ;; Return value:  Size  Location     Type
  4726 ;;                  1    wreg      void 
  4727 ;; Registers used:
  4728 ;;		wreg, fsr1l, fsr1h, status,2, status,0, pclath, cstack
  4729 ;; Tracked objects:
  4730 ;;		On entry : 0/0
  4731 ;;		On exit  : 0/0
  4732 ;;		Unchanged: 0/0
  4733 ;; Data sizes:     COMMON   BANK0   BANK1   BANK2   BANK3   BANK4   BANK5   BANK6
  4734 ;;      Params:         0       0       0       0       0       0       0       0
  4735 ;;      Locals:         0       0       0       0       0       0       0       0
  4736 ;;      Temps:          0       0       0       0       0       0       0       0
  4737 ;;      Totals:         0       0       0       0       0       0       0       0
  4738 ;;Total ram usage:        0 bytes
  4739 ;; Hardware stack levels used:    1
  4740 ;; Hardware stack levels required when called:    5
  4741 ;; This function calls:
  4742 ;;		_Proximity_Tick_helper
  4743 ;; This function is called by:
  4744 ;;		_MTOUCH_Tick
  4745 ;; This function uses a non-reentrant model
  4746 ;;
  4747                           
  4748                           
  4749                           ;psect for function _MTOUCH_Proximity_Tick
  4750  0995                     _MTOUCH_Proximity_Tick:	
  4751  0995                     l3432:	
  4752                           ;incstack = 0
  4753                           ; Regs used in _MTOUCH_Proximity_Tick: [wreg+fsr1l+fsr1h+status,2+status,0+pclath+cstack
      +                          ]
  4754                           
  4755                           
  4756                           ;mcc_generated_files/mtouch/mtouch_proximity.c: 266:     Proximity_Tick_helper(&mtouch_p
      +                          roximity[0]);
  4757  0995  3058               	movlw	(low (_mtouch_proximity| 0))& (0+255)
  4758  0996  318C  24C1  3189   	fcall	_Proximity_Tick_helper
  4759  0999                     l829:	
  4760  0999  0008               	return
  4761  099A                     __end_of_MTOUCH_Proximity_Tick:	
  4762                           
  4763                           	psect	text23
  4764  0CC1                     __ptext23:	
  4765 ;; *************** function _Proximity_Tick_helper *****************
  4766 ;; Defined at:
  4767 ;;		line 268 in file "mcc_generated_files/mtouch/mtouch_proximity.c"
  4768 ;; Parameters:    Size  Location     Type
  4769 ;;  prox            1    wreg     PTR struct .
  4770 ;;		 -> mtouch_proximity(18), 
  4771 ;; Auto vars:     Size  Location     Type
  4772 ;;  prox            1    3[COMMON] PTR struct .
  4773 ;;		 -> mtouch_proximity(18), 
  4774 ;; Return value:  Size  Location     Type
  4775 ;;                  1    wreg      void 
  4776 ;; Registers used:
  4777 ;;		wreg, fsr1l, fsr1h, status,2, status,0
  4778 ;; Tracked objects:
  4779 ;;		On entry : 0/0
  4780 ;;		On exit  : 0/0
  4781 ;;		Unchanged: 0/0
  4782 ;; Data sizes:     COMMON   BANK0   BANK1   BANK2   BANK3   BANK4   BANK5   BANK6
  4783 ;;      Params:         0       0       0       0       0       0       0       0
  4784 ;;      Locals:         1       0       0       0       0       0       0       0
  4785 ;;      Temps:          2       0       0       0       0       0       0       0
  4786 ;;      Totals:         3       0       0       0       0       0       0       0
  4787 ;;Total ram usage:        3 bytes
  4788 ;; Hardware stack levels used:    1
  4789 ;; Hardware stack levels required when called:    4
  4790 ;; This function calls:
  4791 ;;		Nothing
  4792 ;; This function is called by:
  4793 ;;		_MTOUCH_Proximity_Tick
  4794 ;; This function uses a non-reentrant model
  4795 ;;
  4796                           
  4797                           
  4798                           ;psect for function _Proximity_Tick_helper
  4799  0CC1                     _Proximity_Tick_helper:	
  4800                           
  4801                           ;incstack = 0
  4802                           ; Regs used in _Proximity_Tick_helper: [wreg+fsr1l+fsr1h+status,2+status,0]
  4803                           ;Proximity_Tick_helper@prox stored from wreg
  4804  0CC1  00F3               	movwf	Proximity_Tick_helper@prox
  4805  0CC2                     l3360:	
  4806                           
  4807                           ;mcc_generated_files/mtouch/mtouch_proximity.c: 268: static void Proximity_Tick_helper(m
      +                          touch_proximity_t* prox);mcc_generated_files/mtouch/mtouch_proximity.c: 269: {;mcc_gener
      +                          ated_files/mtouch/mtouch_proximity.c: 271:     if ((prox->state) == MTOUCH_PROXIMITY_STA
      +                          TE_activated)
  4808  0CC2  0873               	movf	Proximity_Tick_helper@prox,w
  4809  0CC3  3E02               	addlw	2
  4810  0CC4  0086               	movwf	6
  4811  0CC5  0187               	clrf	7
  4812  0CC6  3002               	movlw	2
  4813  0CC7  0601               	xorwf	1,w
  4814  0CC8  1D03               	btfss	3,2
  4815  0CC9  2CCB               	goto	u2741
  4816  0CCA  2CCC               	goto	u2740
  4817  0CCB                     u2741:	
  4818  0CCB  2CE7               	goto	l834
  4819  0CCC                     u2740:	
  4820  0CCC                     l3362:	
  4821                           
  4822                           ;mcc_generated_files/mtouch/mtouch_proximity.c: 272:     {;mcc_generated_files/mtouch/mt
      +                          ouch_proximity.c: 273:         (prox->counter)++;
  4823  0CCC  0873               	movf	Proximity_Tick_helper@prox,w
  4824  0CCD  3E0C               	addlw	12
  4825  0CCE  0086               	movwf	6
  4826  0CCF  0187               	clrf	7
  4827  0CD0  3001               	movlw	1
  4828  0CD1  0781               	addwf	1,f
  4829  0CD2  3141               	addfsr 1,1
  4830  0CD3  1803               	skipnc
  4831  0CD4  0A81               	incf	1,f
  4832                           
  4833                           ;mcc_generated_files/mtouch/mtouch_proximity.c: 274:         if (prox->counter == (mtouc
      +                          h_prox_statecounter_t)0)
  4834  0CD5  0873               	movf	Proximity_Tick_helper@prox,w
  4835  0CD6  3E0C               	addlw	12
  4836  0CD7  0086               	movwf	6
  4837  0CD8  0187               	clrf	7
  4838  0CD9  0016               	moviw fsr1++
  4839  0CDA  0401               	iorwf	1,w
  4840  0CDB  1D03               	btfss	3,2
  4841  0CDC  2CDE               	goto	u2751
  4842  0CDD  2CDF               	goto	u2750
  4843  0CDE                     u2751:	
  4844  0CDE  2CE7               	goto	l834
  4845  0CDF                     u2750:	
  4846  0CDF                     l3364:	
  4847                           
  4848                           ;mcc_generated_files/mtouch/mtouch_proximity.c: 275:         {;mcc_generated_files/mtouc
      +                          h/mtouch_proximity.c: 276:             prox->counter = (mtouch_prox_statecounter_t)0xFFF
      +                          F;
  4849  0CDF  0873               	movf	Proximity_Tick_helper@prox,w
  4850  0CE0  3E0C               	addlw	12
  4851  0CE1  0086               	movwf	6
  4852  0CE2  0187               	clrf	7
  4853  0CE3  30FF               	movlw	255
  4854  0CE4  3FC0               	movwi [0]fsr1
  4855  0CE5  30FF               	movlw	255
  4856  0CE6  3FC1               	movwi [1]fsr1
  4857  0CE7                     l834:	
  4858  0CE7  0008               	return
  4859  0CE8                     __end_of_Proximity_Tick_helper:	
  4860                           
  4861                           	psect	text24
  4862  0BFC                     __ptext24:	
  4863 ;; *************** function _MTOUCH_Sensor_Sampled_ResetAll *****************
  4864 ;; Defined at:
  4865 ;;		line 933 in file "mcc_generated_files/mtouch/mtouch_sensor.c"
  4866 ;; Parameters:    Size  Location     Type
  4867 ;;		None
  4868 ;; Auto vars:     Size  Location     Type
  4869 ;;  sensor          1    3[COMMON] PTR struct .
  4870 ;;		 -> mtouch_sensor(9), 
  4871 ;; Return value:  Size  Location     Type
  4872 ;;                  1    wreg      void 
  4873 ;; Registers used:
  4874 ;;		wreg, fsr1l, fsr1h, status,2, status,0, pclath, cstack
  4875 ;; Tracked objects:
  4876 ;;		On entry : 0/0
  4877 ;;		On exit  : 0/0
  4878 ;;		Unchanged: 0/0
  4879 ;; Data sizes:     COMMON   BANK0   BANK1   BANK2   BANK3   BANK4   BANK5   BANK6
  4880 ;;      Params:         0       0       0       0       0       0       0       0
  4881 ;;      Locals:         1       0       0       0       0       0       0       0
  4882 ;;      Temps:          1       0       0       0       0       0       0       0
  4883 ;;      Totals:         2       0       0       0       0       0       0       0
  4884 ;;Total ram usage:        2 bytes
  4885 ;; Hardware stack levels used:    1
  4886 ;; Hardware stack levels required when called:    5
  4887 ;; This function calls:
  4888 ;;		_Sensor_Sampled_Reset
  4889 ;; This function is called by:
  4890 ;;		_MTOUCH_Initialize
  4891 ;;		_MTOUCH_Service_Mainloop
  4892 ;; This function uses a non-reentrant model
  4893 ;;
  4894                           
  4895                           
  4896                           ;psect for function _MTOUCH_Sensor_Sampled_ResetAll
  4897  0BFC                     _MTOUCH_Sensor_Sampled_ResetAll:	
  4898  0BFC                     l3418:	
  4899                           ;incstack = 0
  4900                           ; Regs used in _MTOUCH_Sensor_Sampled_ResetAll: [wreg+fsr1l+fsr1h+status,2+status,0+pcla
      +                          th+cstack]
  4901                           
  4902                           
  4903                           ;mcc_generated_files/mtouch/mtouch_sensor.c: 935:     mtouch_sensor_t* sensor;;mcc_gener
      +                          ated_files/mtouch/mtouch_sensor.c: 936:     for(sensor = &mtouch_sensor[0];sensor<= &mto
      +                          uch_sensor[1u -1];sensor++)
  4904  0BFC  30BE               	movlw	(low (_mtouch_sensor| 0))& (0+255)
  4905  0BFD  00F2               	movwf	??_MTOUCH_Sensor_Sampled_ResetAll
  4906  0BFE  0872               	movf	??_MTOUCH_Sensor_Sampled_ResetAll,w
  4907  0BFF  00F3               	movwf	MTOUCH_Sensor_Sampled_ResetAll@sensor
  4908  0C00  30BE               	movlw	(low (_mtouch_sensor| 0))& (0+255)
  4909  0C01  00F2               	movwf	??_MTOUCH_Sensor_Sampled_ResetAll
  4910  0C02  0873               	movf	MTOUCH_Sensor_Sampled_ResetAll@sensor,w
  4911  0C03  0272               	subwf	??_MTOUCH_Sensor_Sampled_ResetAll,w
  4912  0C04  1803               	skipnc
  4913  0C05  2C07               	goto	u2811
  4914  0C06  2C08               	goto	u2810
  4915  0C07                     u2811:	
  4916  0C07  2C09               	goto	l3422
  4917  0C08                     u2810:	
  4918  0C08  2C19               	goto	l364
  4919  0C09                     l3422:	
  4920                           
  4921                           ;mcc_generated_files/mtouch/mtouch_sensor.c: 937:     {;mcc_generated_files/mtouch/mtouc
      +                          h_sensor.c: 938:         Sensor_Sampled_Reset(sensor);
  4922  0C09  0873               	movf	MTOUCH_Sensor_Sampled_ResetAll@sensor,w
  4923  0C0A  3189  21DF  318B   	fcall	_Sensor_Sampled_Reset
  4924  0C0D                     l3424:	
  4925                           
  4926                           ;mcc_generated_files/mtouch/mtouch_sensor.c: 939:     }
  4927  0C0D  3009               	movlw	9
  4928  0C0E  00F2               	movwf	??_MTOUCH_Sensor_Sampled_ResetAll
  4929  0C0F  0872               	movf	??_MTOUCH_Sensor_Sampled_ResetAll,w
  4930  0C10  07F3               	addwf	MTOUCH_Sensor_Sampled_ResetAll@sensor,f
  4931  0C11                     l3426:	
  4932  0C11  30BE               	movlw	(low (_mtouch_sensor| 0))& (0+255)
  4933  0C12  00F2               	movwf	??_MTOUCH_Sensor_Sampled_ResetAll
  4934  0C13  0873               	movf	MTOUCH_Sensor_Sampled_ResetAll@sensor,w
  4935  0C14  0272               	subwf	??_MTOUCH_Sensor_Sampled_ResetAll,w
  4936  0C15  1803               	skipnc
  4937  0C16  2C18               	goto	u2821
  4938  0C17  2C19               	goto	u2820
  4939  0C18                     u2821:	
  4940  0C18  2C09               	goto	l3422
  4941  0C19                     u2820:	
  4942  0C19                     l364:	
  4943  0C19  0008               	return
  4944  0C1A                     __end_of_MTOUCH_Sensor_Sampled_ResetAll:	
  4945                           
  4946                           	psect	text25
  4947  09DF                     __ptext25:	
  4948 ;; *************** function _Sensor_Sampled_Reset *****************
  4949 ;; Defined at:
  4950 ;;		line 947 in file "mcc_generated_files/mtouch/mtouch_sensor.c"
  4951 ;; Parameters:    Size  Location     Type
  4952 ;;  sensor          1    wreg     PTR struct .
  4953 ;;		 -> mtouch_sensor(9), 
  4954 ;; Auto vars:     Size  Location     Type
  4955 ;;  sensor          1    1[COMMON] PTR struct .
  4956 ;;		 -> mtouch_sensor(9), 
  4957 ;; Return value:  Size  Location     Type
  4958 ;;                  1    wreg      void 
  4959 ;; Registers used:
  4960 ;;		wreg, fsr1l, fsr1h, status,2, status,0
  4961 ;; Tracked objects:
  4962 ;;		On entry : 0/0
  4963 ;;		On exit  : 0/0
  4964 ;;		Unchanged: 0/0
  4965 ;; Data sizes:     COMMON   BANK0   BANK1   BANK2   BANK3   BANK4   BANK5   BANK6
  4966 ;;      Params:         0       0       0       0       0       0       0       0
  4967 ;;      Locals:         1       0       0       0       0       0       0       0
  4968 ;;      Temps:          0       0       0       0       0       0       0       0
  4969 ;;      Totals:         1       0       0       0       0       0       0       0
  4970 ;;Total ram usage:        1 bytes
  4971 ;; Hardware stack levels used:    1
  4972 ;; Hardware stack levels required when called:    4
  4973 ;; This function calls:
  4974 ;;		Nothing
  4975 ;; This function is called by:
  4976 ;;		_MTOUCH_Sensor_Initialize
  4977 ;;		_MTOUCH_Sensor_Sampled_ResetAll
  4978 ;; This function uses a non-reentrant model
  4979 ;;
  4980                           
  4981                           
  4982                           ;psect for function _Sensor_Sampled_Reset
  4983  09DF                     _Sensor_Sampled_Reset:	
  4984                           
  4985                           ;incstack = 0
  4986                           ; Regs used in _Sensor_Sampled_Reset: [wreg+fsr1l+fsr1h+status,2+status,0]
  4987                           ;Sensor_Sampled_Reset@sensor stored from wreg
  4988  09DF  00F1               	movwf	Sensor_Sampled_Reset@sensor
  4989  09E0                     l3078:	
  4990                           
  4991                           ;mcc_generated_files/mtouch/mtouch_sensor.c: 947: static __attribute__((inline)) void Se
      +                          nsor_Sampled_Reset(mtouch_sensor_t* sensor);mcc_generated_files/mtouch/mtouch_sensor.c: 
      +                          948: {;mcc_generated_files/mtouch/mtouch_sensor.c: 949:     sensor->sampled = 0;
  4992  09E0  0871               	movf	Sensor_Sampled_Reset@sensor,w
  4993  09E1  3E08               	addlw	8
  4994  09E2  0086               	movwf	6
  4995  09E3  0187               	clrf	7
  4996  09E4  1001               	bcf	1,0
  4997  09E5                     l370:	
  4998  09E5  0008               	return
  4999  09E6                     __end_of_Sensor_Sampled_Reset:	
  5000                           
  5001                           	psect	text26
  5002  0B5A                     __ptext26:	
  5003 ;; *************** function _MTOUCH_Sensor_SampleAll *****************
  5004 ;; Defined at:
  5005 ;;		line 241 in file "mcc_generated_files/mtouch/mtouch_sensor.c"
  5006 ;; Parameters:    Size  Location     Type
  5007 ;;		None
  5008 ;; Auto vars:     Size  Location     Type
  5009 ;;  group           1   39[BANK0 ] unsigned char 
  5010 ;; Return value:  Size  Location     Type
  5011 ;;                  1    wreg      _Bool 
  5012 ;; Registers used:
  5013 ;;		wreg, fsr0l, fsr0h, fsr1l, fsr1h, status,2, status,0, pclath, cstack
  5014 ;; Tracked objects:
  5015 ;;		On entry : 0/0
  5016 ;;		On exit  : 0/0
  5017 ;;		Unchanged: 0/0
  5018 ;; Data sizes:     COMMON   BANK0   BANK1   BANK2   BANK3   BANK4   BANK5   BANK6
  5019 ;;      Params:         0       0       0       0       0       0       0       0
  5020 ;;      Locals:         0       1       0       0       0       0       0       0
  5021 ;;      Temps:          0       1       0       0       0       0       0       0
  5022 ;;      Totals:         0       2       0       0       0       0       0       0
  5023 ;;Total ram usage:        2 bytes
  5024 ;; Hardware stack levels used:    1
  5025 ;; Hardware stack levels required when called:   10
  5026 ;; This function calls:
  5027 ;;		_Sensor_Service
  5028 ;; This function is called by:
  5029 ;;		_MTOUCH_Service_Mainloop
  5030 ;; This function uses a non-reentrant model
  5031 ;;
  5032                           
  5033                           
  5034                           ;psect for function _MTOUCH_Sensor_SampleAll
  5035  0B5A                     _MTOUCH_Sensor_SampleAll:	
  5036  0B5A                     l4268:	
  5037                           ;incstack = 0
  5038                           ; Regs used in _MTOUCH_Sensor_SampleAll: [wreg-fsr1h+status,2+status,0+pclath+cstack]
  5039                           
  5040                           
  5041                           ;mcc_generated_files/mtouch/mtouch_sensor.c: 243:     uint8_t group;;mcc_generated_files
      +                          /mtouch/mtouch_sensor.c: 244:     for (group = 0; group < 1u; group++)
  5042  0B5A  0020               	movlb	0	; select bank0
  5043  0B5B  01C7               	clrf	MTOUCH_Sensor_SampleAll@group
  5044  0B5C                     l4274:	
  5045                           
  5046                           ;mcc_generated_files/mtouch/mtouch_sensor.c: 245:     {;mcc_generated_files/mtouch/mtouc
      +                          h_sensor.c: 246:         if(Sensor_Service(group)!= MTOUCH_SENSOR_ERROR_none)
  5047  0B5C  0847               	movf	MTOUCH_Sensor_SampleAll@group,w
  5048  0B5D  3185  252A  318B   	fcall	_Sensor_Service
  5049  0B60  3A00               	xorlw	0
  5050  0B61  1903               	skipnz
  5051  0B62  2B64               	goto	u3961
  5052  0B63  2B65               	goto	u3960
  5053  0B64                     u3961:	
  5054  0B64  2B67               	goto	l4280
  5055  0B65                     u3960:	
  5056  0B65                     l4276:	
  5057                           
  5058                           ;mcc_generated_files/mtouch/mtouch_sensor.c: 247:             return 0;
  5059  0B65  3000               	movlw	0
  5060  0B66  2B72               	goto	l143
  5061  0B67                     l4280:	
  5062                           
  5063                           ;mcc_generated_files/mtouch/mtouch_sensor.c: 248:     }
  5064  0B67  3001               	movlw	1
  5065  0B68  0020               	movlb	0	; select bank0
  5066  0B69  00C6               	movwf	??_MTOUCH_Sensor_SampleAll
  5067  0B6A  0846               	movf	??_MTOUCH_Sensor_SampleAll,w
  5068  0B6B  07C7               	addwf	MTOUCH_Sensor_SampleAll@group,f
  5069  0B6C  0847               	movf	MTOUCH_Sensor_SampleAll@group,w
  5070  0B6D  1903               	btfsc	3,2
  5071  0B6E  2B70               	goto	u3971
  5072  0B6F  2B71               	goto	u3970
  5073  0B70                     u3971:	
  5074  0B70  2B5C               	goto	l4274
  5075  0B71                     u3970:	
  5076  0B71                     l4282:	
  5077                           
  5078                           ;mcc_generated_files/mtouch/mtouch_sensor.c: 249:     return 1;
  5079  0B71  3001               	movlw	1
  5080  0B72                     l143:	
  5081  0B72  0008               	return
  5082  0B73                     __end_of_MTOUCH_Sensor_SampleAll:	
  5083                           
  5084                           	psect	text27
  5085  052A                     __ptext27:	
  5086 ;; *************** function _Sensor_Service *****************
  5087 ;; Defined at:
  5088 ;;		line 286 in file "mcc_generated_files/mtouch/mtouch_sensor.c"
  5089 ;; Parameters:    Size  Location     Type
  5090 ;;  scanGroup       1    wreg     unsigned char 
  5091 ;; Auto vars:     Size  Location     Type
  5092 ;;  scanGroup       1   34[BANK0 ] unsigned char 
  5093 ;;  sensor_adc2     1   37[BANK0 ] PTR struct .
  5094 ;;		 -> NULL(0), 
  5095 ;;  sensor_adc1     1   36[BANK0 ] PTR struct .
  5096 ;;		 -> mtouch_sensor(9), 
  5097 ;;  error           1   35[BANK0 ] enum E2856
  5098 ;; Return value:  Size  Location     Type
  5099 ;;                  1    wreg      enum E2856
  5100 ;; Registers used:
  5101 ;;		wreg, fsr0l, fsr0h, fsr1l, fsr1h, status,2, status,0, pclath, cstack
  5102 ;; Tracked objects:
  5103 ;;		On entry : 0/0
  5104 ;;		On exit  : 0/0
  5105 ;;		Unchanged: 0/0
  5106 ;; Data sizes:     COMMON   BANK0   BANK1   BANK2   BANK3   BANK4   BANK5   BANK6
  5107 ;;      Params:         0       0       0       0       0       0       0       0
  5108 ;;      Locals:         0       4       0       0       0       0       0       0
  5109 ;;      Temps:          0       3       0       0       0       0       0       0
  5110 ;;      Totals:         0       7       0       0       0       0       0       0
  5111 ;;Total ram usage:        7 bytes
  5112 ;; Hardware stack levels used:    1
  5113 ;; Hardware stack levels required when called:    9
  5114 ;; This function calls:
  5115 ;;		_Sensor_Acquisition
  5116 ;;		_Sensor_DefaultCallback
  5117 ;;		_Sensor_RawSample_Update
  5118 ;;		_Sensor_isEnabled
  5119 ;;		_Sensor_setSampled
  5120 ;; This function is called by:
  5121 ;;		_MTOUCH_Sensor_SampleAll
  5122 ;; This function uses a non-reentrant model
  5123 ;;
  5124                           
  5125                           
  5126                           ;psect for function _Sensor_Service
  5127  052A                     _Sensor_Service:	
  5128                           
  5129                           ;incstack = 0
  5130                           ; Regs used in _Sensor_Service: [wreg-fsr1h+status,2+status,0+pclath+cstack]
  5131                           ;Sensor_Service@scanGroup stored from wreg
  5132  052A  0020               	movlb	0	; select bank0
  5133  052B  00C2               	movwf	Sensor_Service@scanGroup
  5134  052C                     l4216:	
  5135                           
  5136                           ;mcc_generated_files/mtouch/mtouch_sensor.c: 286: static enum mtouch_sensor_error Sensor
      +                          _Service(uint8_t scanGroup);mcc_generated_files/mtouch/mtouch_sensor.c: 287: {;mcc_gener
      +                          ated_files/mtouch/mtouch_sensor.c: 288:     mtouch_sensor_t* sensor_adc1;;mcc_generated_
      +                          files/mtouch/mtouch_sensor.c: 289:     mtouch_sensor_t* sensor_adc2;;mcc_generated_files
      +                          /mtouch/mtouch_sensor.c: 291:     sensor_adc1 = (mtouch_sensor_t*)sensor_scan_group[scan
      +                          Group].sensor_adc1;
  5137  052C  0842               	movf	Sensor_Service@scanGroup,w
  5138  052D  00BF               	movwf	??_Sensor_Service
  5139  052E  01C0               	clrf	??_Sensor_Service+1
  5140  052F  35BF               	lslf	??_Sensor_Service,f
  5141  0530  0DC0               	rlf	??_Sensor_Service+1,f
  5142  0531  3017               	movlw	low (_sensor_scan_group| (0+32768))
  5143  0532  073F               	addwf	??_Sensor_Service,w
  5144  0533  0084               	movwf	4
  5145  0534  3090               	movlw	high (_sensor_scan_group| (0+32768))
  5146  0535  3D40               	addwfc	??_Sensor_Service+1,w
  5147  0536  0085               	movwf	5
  5148  0537  0800               	movf	0,w	;code access
  5149  0538  00C1               	movwf	??_Sensor_Service+2
  5150  0539  0841               	movf	??_Sensor_Service+2,w
  5151  053A  00C4               	movwf	Sensor_Service@sensor_adc1
  5152                           
  5153                           ;mcc_generated_files/mtouch/mtouch_sensor.c: 292:     sensor_adc2 = (mtouch_sensor_t*)se
      +                          nsor_scan_group[scanGroup].sensor_adc2;
  5154  053B  0842               	movf	Sensor_Service@scanGroup,w
  5155  053C  00BF               	movwf	??_Sensor_Service
  5156  053D  01C0               	clrf	??_Sensor_Service+1
  5157  053E  35BF               	lslf	??_Sensor_Service,f
  5158  053F  0DC0               	rlf	??_Sensor_Service+1,f
  5159  0540  3018               	movlw	low ((_sensor_scan_group+1)| (0+32768))
  5160  0541  073F               	addwf	??_Sensor_Service,w
  5161  0542  0084               	movwf	4
  5162  0543  3090               	movlw	high ((_sensor_scan_group+1)| (0+32768))
  5163  0544  3D40               	addwfc	??_Sensor_Service+1,w
  5164  0545  0085               	movwf	5
  5165  0546  0800               	movf	0,w	;code access
  5166  0547  00C1               	movwf	??_Sensor_Service+2
  5167  0548  0841               	movf	??_Sensor_Service+2,w
  5168  0549  00C5               	movwf	Sensor_Service@sensor_adc2
  5169  054A                     l4218:	
  5170                           
  5171                           ;mcc_generated_files/mtouch/mtouch_sensor.c: 294:     enum mtouch_sensor_error error = S
      +                          ensor_Acquisition(sensor_adc1,sensor_adc2);
  5172  054A  0845               	movf	Sensor_Service@sensor_adc2,w
  5173  054B  00BF               	movwf	??_Sensor_Service
  5174  054C  083F               	movf	??_Sensor_Service,w
  5175  054D  00BB               	movwf	Sensor_Acquisition@sensor_adc2
  5176  054E  0844               	movf	Sensor_Service@sensor_adc1,w
  5177  054F  3187  2763  3185   	fcall	_Sensor_Acquisition
  5178  0552  0020               	movlb	0	; select bank0
  5179  0553  00C0               	movwf	??_Sensor_Service+1
  5180  0554  0840               	movf	??_Sensor_Service+1,w
  5181  0555  00C3               	movwf	Sensor_Service@error
  5182                           
  5183                           ;mcc_generated_files/mtouch/mtouch_sensor.c: 297:     switch(error)
  5184  0556  2D9F               	goto	l4242
  5185  0557                     l4220:	
  5186                           
  5187                           ;mcc_generated_files/mtouch/mtouch_sensor.c: 300:         {;mcc_generated_files/mtouch/m
      +                          touch_sensor.c: 301:             if(Sensor_isEnabled(sensor_adc1))
  5188  0557  0844               	movf	Sensor_Service@sensor_adc1,w
  5189  0558  318A  229C  3185   	fcall	_Sensor_isEnabled
  5190  055B  3A00               	xorlw	0
  5191  055C  1903               	skipnz
  5192  055D  2D5F               	goto	u3891
  5193  055E  2D60               	goto	u3890
  5194  055F                     u3891:	
  5195  055F  2D7A               	goto	l4230
  5196  0560                     u3890:	
  5197  0560                     l4222:	
  5198                           
  5199                           ;mcc_generated_files/mtouch/mtouch_sensor.c: 302:             {;mcc_generated_files/mtou
      +                          ch/mtouch_sensor.c: 307:                 if(!lowpowerActivated)
  5200  0560  0020               	movlb	0	; select bank0
  5201  0561  0857               	movf	_lowpowerActivated,w
  5202  0562  1D03               	btfss	3,2
  5203  0563  2D65               	goto	u3901
  5204  0564  2D66               	goto	u3900
  5205  0565                     u3901:	
  5206  0565  2D6A               	goto	l4226
  5207  0566                     u3900:	
  5208  0566                     l4224:	
  5209                           
  5210                           ;mcc_generated_files/mtouch/mtouch_sensor.c: 308:                 {;mcc_generated_files/
      +                          mtouch/mtouch_sensor.c: 309:                     Sensor_RawSample_Update(sensor_adc1);
  5211  0566  0844               	movf	Sensor_Service@sensor_adc1,w
  5212  0567  318C  24E8  3185   	fcall	_Sensor_RawSample_Update
  5213  056A                     l4226:	
  5214                           
  5215                           ;mcc_generated_files/mtouch/mtouch_sensor.c: 311:                 Sensor_setSampled(sens
      +                          or_adc1);
  5216  056A  0020               	movlb	0	; select bank0
  5217  056B  0844               	movf	Sensor_Service@sensor_adc1,w
  5218  056C  3189  21D8  3185   	fcall	_Sensor_setSampled
  5219  056F                     l4228:	
  5220                           
  5221                           ;mcc_generated_files/mtouch/mtouch_sensor.c: 312:                 callback_sampled(senso
      +                          r_adc1->sensor);
  5222  056F  0020               	movlb	0	; select bank0
  5223  0570  0844               	movf	Sensor_Service@sensor_adc1,w
  5224  0571  0086               	movwf	6
  5225  0572  0187               	clrf	7
  5226  0573  0801               	movf	1,w
  5227  0574  00BF               	movwf	??_Sensor_Service
  5228  0575  083F               	movf	??_Sensor_Service,w
  5229  0576  00F1               	movwf	Sensor_DefaultCallback@sensor
  5230  0577  3187  27FF  3185   	fcall	_Sensor_DefaultCallback
  5231  057A                     l4230:	
  5232                           
  5233                           ;mcc_generated_files/mtouch/mtouch_sensor.c: 314:             if(Sensor_isEnabled(sensor
      +                          _adc2))
  5234  057A  0020               	movlb	0	; select bank0
  5235  057B  0845               	movf	Sensor_Service@sensor_adc2,w
  5236  057C  318A  229C  3185   	fcall	_Sensor_isEnabled
  5237  057F  3A00               	xorlw	0
  5238  0580  1903               	skipnz
  5239  0581  2D83               	goto	u3911
  5240  0582  2D84               	goto	u3910
  5241  0583                     u3911:	
  5242  0583  2DC2               	goto	l4244
  5243  0584                     u3910:	
  5244  0584                     l4232:	
  5245                           
  5246                           ;mcc_generated_files/mtouch/mtouch_sensor.c: 315:             {;mcc_generated_files/mtou
      +                          ch/mtouch_sensor.c: 316:                 if(!lowpowerActivated)
  5247  0584  0020               	movlb	0	; select bank0
  5248  0585  0857               	movf	_lowpowerActivated,w
  5249  0586  1D03               	btfss	3,2
  5250  0587  2D89               	goto	u3921
  5251  0588  2D8A               	goto	u3920
  5252  0589                     u3921:	
  5253  0589  2D8E               	goto	l4236
  5254  058A                     u3920:	
  5255  058A                     l4234:	
  5256                           
  5257                           ;mcc_generated_files/mtouch/mtouch_sensor.c: 317:                 {;mcc_generated_files/
      +                          mtouch/mtouch_sensor.c: 318:                     Sensor_RawSample_Update(sensor_adc2);
  5258  058A  0845               	movf	Sensor_Service@sensor_adc2,w
  5259  058B  318C  24E8  3185   	fcall	_Sensor_RawSample_Update
  5260  058E                     l4236:	
  5261                           
  5262                           ;mcc_generated_files/mtouch/mtouch_sensor.c: 320:                 Sensor_setSampled(sens
      +                          or_adc2);
  5263  058E  0020               	movlb	0	; select bank0
  5264  058F  0845               	movf	Sensor_Service@sensor_adc2,w
  5265  0590  3189  21D8  3185   	fcall	_Sensor_setSampled
  5266  0593                     l4238:	
  5267                           
  5268                           ;mcc_generated_files/mtouch/mtouch_sensor.c: 321:                 callback_sampled(senso
      +                          r_adc2->sensor);
  5269  0593  0020               	movlb	0	; select bank0
  5270  0594  0845               	movf	Sensor_Service@sensor_adc2,w
  5271  0595  0086               	movwf	6
  5272  0596  0187               	clrf	7
  5273  0597  0801               	movf	1,w
  5274  0598  00BF               	movwf	??_Sensor_Service
  5275  0599  083F               	movf	??_Sensor_Service,w
  5276  059A  00F1               	movwf	Sensor_DefaultCallback@sensor
  5277  059B  3187  27FF  3185   	fcall	_Sensor_DefaultCallback
  5278  059E  2DC2               	goto	l4244
  5279  059F                     l4242:	
  5280  059F  0843               	movf	Sensor_Service@error,w
  5281  05A0  00BF               	movwf	??_Sensor_Service
  5282  05A1  01C0               	clrf	??_Sensor_Service+1
  5283  05A2  1BBF               	btfsc	??_Sensor_Service,7
  5284  05A3  03C0               	decf	??_Sensor_Service+1,f
  5285                           
  5286                           ; Switch on 2 bytes has been partitioned into a top level switch of size 1, and 2 sub-sw
      +                          itches
  5287                           ; Switch size 1, requested type "simple"
  5288                           ; Number of cases is 2, Range of values is 0 to 255
  5289                           ; switch strategies available:
  5290                           ; Name         Instructions Cycles
  5291                           ; simple_byte            7     4 (average)
  5292                           ; jumptable            260     6 (fixed)
  5293                           ;	Chosen strategy is simple_byte
  5294  05A4  0840               	movf	??_Sensor_Service+1,w
  5295  05A5  3A00               	xorlw	0	; case 0
  5296  05A6  1903               	skipnz
  5297  05A7  2DAC               	goto	l4464
  5298  05A8  3AFF               	xorlw	255	; case 255
  5299  05A9  1903               	skipnz
  5300  05AA  2DB1               	goto	l4466
  5301  05AB  2DC2               	goto	l4244
  5302  05AC                     l4464:	
  5303                           
  5304                           ; Switch size 1, requested type "simple"
  5305                           ; Number of cases is 1, Range of values is 0 to 0
  5306                           ; switch strategies available:
  5307                           ; Name         Instructions Cycles
  5308                           ; simple_byte            4     3 (average)
  5309                           ; direct_byte            8     6 (fixed)
  5310                           ; jumptable            260     6 (fixed)
  5311                           ;	Chosen strategy is simple_byte
  5312  05AC  083F               	movf	??_Sensor_Service,w
  5313  05AD  3A00               	xorlw	0	; case 0
  5314  05AE  1903               	skipnz
  5315  05AF  2D57               	goto	l4220
  5316  05B0  2DC2               	goto	l4244
  5317  05B1                     l4466:	
  5318                           
  5319                           ; Switch size 1, requested type "simple"
  5320                           ; Number of cases is 5, Range of values is 251 to 255
  5321                           ; switch strategies available:
  5322                           ; Name         Instructions Cycles
  5323                           ; direct_byte           15     5 (fixed)
  5324                           ; simple_byte           16     9 (average)
  5325                           ; jumptable            263     9 (fixed)
  5326                           ;	Chosen strategy is simple_byte
  5327  05B1  083F               	movf	??_Sensor_Service,w
  5328  05B2  3AFB               	xorlw	251	; case 251
  5329  05B3  1903               	skipnz
  5330  05B4  2DC2               	goto	l4244
  5331  05B5  3A07               	xorlw	7	; case 252
  5332  05B6  1903               	skipnz
  5333  05B7  2DC2               	goto	l4244
  5334  05B8  3A01               	xorlw	1	; case 253
  5335  05B9  1903               	skipnz
  5336  05BA  2DC2               	goto	l4244
  5337  05BB  3A03               	xorlw	3	; case 254
  5338  05BC  1903               	skipnz
  5339  05BD  2DC2               	goto	l4244
  5340  05BE  3A01               	xorlw	1	; case 255
  5341  05BF  1903               	skipnz
  5342  05C0  2DC2               	goto	l4244
  5343  05C1  2DC2               	goto	l4244
  5344  05C2                     l4244:	
  5345                           
  5346                           ;mcc_generated_files/mtouch/mtouch_sensor.c: 334:     return error;
  5347  05C2  0020               	movlb	0	; select bank0
  5348  05C3  0843               	movf	Sensor_Service@error,w
  5349  05C4                     l171:	
  5350  05C4  0008               	return
  5351  05C5                     __end_of_Sensor_Service:	
  5352                           
  5353                           	psect	text28
  5354  09D8                     __ptext28:	
  5355 ;; *************** function _Sensor_setSampled *****************
  5356 ;; Defined at:
  5357 ;;		line 952 in file "mcc_generated_files/mtouch/mtouch_sensor.c"
  5358 ;; Parameters:    Size  Location     Type
  5359 ;;  sensor          1    wreg     PTR struct .
  5360 ;;		 -> NULL(0), mtouch_sensor(9), 
  5361 ;; Auto vars:     Size  Location     Type
  5362 ;;  sensor          1    1[COMMON] PTR struct .
  5363 ;;		 -> NULL(0), mtouch_sensor(9), 
  5364 ;; Return value:  Size  Location     Type
  5365 ;;                  1    wreg      void 
  5366 ;; Registers used:
  5367 ;;		wreg, fsr1l, fsr1h, status,2, status,0
  5368 ;; Tracked objects:
  5369 ;;		On entry : 0/0
  5370 ;;		On exit  : 0/0
  5371 ;;		Unchanged: 0/0
  5372 ;; Data sizes:     COMMON   BANK0   BANK1   BANK2   BANK3   BANK4   BANK5   BANK6
  5373 ;;      Params:         0       0       0       0       0       0       0       0
  5374 ;;      Locals:         1       0       0       0       0       0       0       0
  5375 ;;      Temps:          0       0       0       0       0       0       0       0
  5376 ;;      Totals:         1       0       0       0       0       0       0       0
  5377 ;;Total ram usage:        1 bytes
  5378 ;; Hardware stack levels used:    1
  5379 ;; Hardware stack levels required when called:    4
  5380 ;; This function calls:
  5381 ;;		Nothing
  5382 ;; This function is called by:
  5383 ;;		_Sensor_Service
  5384 ;; This function uses a non-reentrant model
  5385 ;;
  5386                           
  5387                           
  5388                           ;psect for function _Sensor_setSampled
  5389  09D8                     _Sensor_setSampled:	
  5390                           
  5391                           ;incstack = 0
  5392                           ; Regs used in _Sensor_setSampled: [wreg+fsr1l+fsr1h+status,2+status,0]
  5393                           ;Sensor_setSampled@sensor stored from wreg
  5394  09D8  00F1               	movwf	Sensor_setSampled@sensor
  5395  09D9                     l3252:	
  5396                           
  5397                           ;mcc_generated_files/mtouch/mtouch_sensor.c: 952: static __attribute__((inline)) void Se
      +                          nsor_setSampled(mtouch_sensor_t* sensor);mcc_generated_files/mtouch/mtouch_sensor.c: 953
      +                          : {;mcc_generated_files/mtouch/mtouch_sensor.c: 954:     sensor->sampled = 1;
  5398  09D9  0871               	movf	Sensor_setSampled@sensor,w
  5399  09DA  3E08               	addlw	8
  5400  09DB  0086               	movwf	6
  5401  09DC  0187               	clrf	7
  5402  09DD  1401               	bsf	1,0
  5403  09DE                     l373:	
  5404  09DE  0008               	return
  5405  09DF                     __end_of_Sensor_setSampled:	
  5406                           
  5407                           	psect	text29
  5408  0CE8                     __ptext29:	
  5409 ;; *************** function _Sensor_RawSample_Update *****************
  5410 ;; Defined at:
  5411 ;;		line 785 in file "mcc_generated_files/mtouch/mtouch_sensor.c"
  5412 ;; Parameters:    Size  Location     Type
  5413 ;;  sensor          1    wreg     PTR struct .
  5414 ;;		 -> NULL(0), mtouch_sensor(9), 
  5415 ;; Auto vars:     Size  Location     Type
  5416 ;;  sensor          1    7[COMMON] PTR struct .
  5417 ;;		 -> NULL(0), mtouch_sensor(9), 
  5418 ;;  adcIndex        1    6[COMMON] unsigned char 
  5419 ;; Return value:  Size  Location     Type
  5420 ;;                  1    wreg      void 
  5421 ;; Registers used:
  5422 ;;		wreg, fsr0l, fsr0h, fsr1l, fsr1h, status,2, status,0, pclath, cstack
  5423 ;; Tracked objects:
  5424 ;;		On entry : 0/0
  5425 ;;		On exit  : 0/0
  5426 ;;		Unchanged: 0/0
  5427 ;; Data sizes:     COMMON   BANK0   BANK1   BANK2   BANK3   BANK4   BANK5   BANK6
  5428 ;;      Params:         0       0       0       0       0       0       0       0
  5429 ;;      Locals:         2       0       0       0       0       0       0       0
  5430 ;;      Temps:          1       0       0       0       0       0       0       0
  5431 ;;      Totals:         3       0       0       0       0       0       0       0
  5432 ;;Total ram usage:        3 bytes
  5433 ;; Hardware stack levels used:    1
  5434 ;; Hardware stack levels required when called:    5
  5435 ;; This function calls:
  5436 ;;		_Sensor_getScanGroupIndex
  5437 ;; This function is called by:
  5438 ;;		_Sensor_Service
  5439 ;; This function uses a non-reentrant model
  5440 ;;
  5441                           
  5442                           
  5443                           ;psect for function _Sensor_RawSample_Update
  5444  0CE8                     _Sensor_RawSample_Update:	
  5445                           
  5446                           ;incstack = 0
  5447                           ; Regs used in _Sensor_RawSample_Update: [wreg-fsr1h+status,2+status,0+pclath+cstack]
  5448                           ;Sensor_RawSample_Update@sensor stored from wreg
  5449  0CE8  00F7               	movwf	Sensor_RawSample_Update@sensor
  5450  0CE9                     l3240:	
  5451                           
  5452                           ;mcc_generated_files/mtouch/mtouch_sensor.c: 785: static void Sensor_RawSample_Update(mt
      +                          ouch_sensor_t* sensor);mcc_generated_files/mtouch/mtouch_sensor.c: 786: {;mcc_generated_
      +                          files/mtouch/mtouch_sensor.c: 787:     uint8_t adcIndex = Sensor_getScanGroupIndex(senso
      +                          r);
  5453  0CE9  0877               	movf	Sensor_RawSample_Update@sensor,w
  5454  0CEA  318D  2568  318C   	fcall	_Sensor_getScanGroupIndex
  5455  0CED  00F5               	movwf	??_Sensor_RawSample_Update
  5456  0CEE  0875               	movf	??_Sensor_RawSample_Update,w
  5457  0CEF  00F6               	movwf	Sensor_RawSample_Update@adcIndex
  5458  0CF0                     l3242:	
  5459                           
  5460                           ;mcc_generated_files/mtouch/mtouch_sensor.c: 789:     if (INTCONbits.GIE == (uint8_t)1)
  5461  0CF0  1F8B               	btfss	11,7	;volatile
  5462  0CF1  2CF3               	goto	u2511
  5463  0CF2  2CF4               	goto	u2510
  5464  0CF3                     u2511:	
  5465  0CF3  2D03               	goto	l3250
  5466  0CF4                     u2510:	
  5467  0CF4                     l3244:	
  5468                           
  5469                           ;mcc_generated_files/mtouch/mtouch_sensor.c: 790:     {;mcc_generated_files/mtouch/mtouc
      +                          h_sensor.c: 791:         INTCONbits.GIE = (uint8_t)0;
  5470  0CF4  138B               	bcf	11,7	;volatile
  5471  0CF5                     l3246:	
  5472                           
  5473                           ;mcc_generated_files/mtouch/mtouch_sensor.c: 792:         sensor->rawSample = packet_sam
      +                          ple[adcIndex];
  5474  0CF5  3576               	lslf	Sensor_RawSample_Update@adcIndex,w
  5475  0CF6  3E4A               	addlw	(low (_packet_sample| 0))& (0+255)
  5476  0CF7  0086               	movwf	6
  5477  0CF8  0187               	clrf	7
  5478  0CF9  0877               	movf	Sensor_RawSample_Update@sensor,w
  5479  0CFA  3E06               	addlw	6
  5480  0CFB  0084               	movwf	4
  5481  0CFC  0185               	clrf	5
  5482  0CFD  3F40               	moviw [0]fsr1
  5483  0CFE  3F80               	movwi [0]fsr0
  5484  0CFF  3F41               	moviw [1]fsr1
  5485  0D00  3F81               	movwi [1]fsr0
  5486  0D01                     l3248:	
  5487                           
  5488                           ;mcc_generated_files/mtouch/mtouch_sensor.c: 793:         INTCONbits.GIE = (uint8_t)1;
  5489  0D01  178B               	bsf	11,7	;volatile
  5490                           
  5491                           ;mcc_generated_files/mtouch/mtouch_sensor.c: 794:     }
  5492  0D02  2D0F               	goto	l300
  5493  0D03                     l3250:	
  5494                           
  5495                           ;mcc_generated_files/mtouch/mtouch_sensor.c: 796:     {;mcc_generated_files/mtouch/mtouc
      +                          h_sensor.c: 797:         sensor->rawSample = packet_sample[adcIndex];
  5496  0D03  3576               	lslf	Sensor_RawSample_Update@adcIndex,w
  5497  0D04  3E4A               	addlw	(low (_packet_sample| 0))& (0+255)
  5498  0D05  0086               	movwf	6
  5499  0D06  0187               	clrf	7
  5500  0D07  0877               	movf	Sensor_RawSample_Update@sensor,w
  5501  0D08  3E06               	addlw	6
  5502  0D09  0084               	movwf	4
  5503  0D0A  0185               	clrf	5
  5504  0D0B  3F40               	moviw [0]fsr1
  5505  0D0C  3F80               	movwi [0]fsr0
  5506  0D0D  3F41               	moviw [1]fsr1
  5507  0D0E  3F81               	movwi [1]fsr0
  5508  0D0F                     l300:	
  5509  0D0F  0008               	return
  5510  0D10                     __end_of_Sensor_RawSample_Update:	
  5511                           
  5512                           	psect	text30
  5513  07FF                     __ptext30:	
  5514 ;; *************** function _Sensor_DefaultCallback *****************
  5515 ;; Defined at:
  5516 ;;		line 806 in file "mcc_generated_files/mtouch/mtouch_sensor.c"
  5517 ;; Parameters:    Size  Location     Type
  5518 ;;  sensor          1    1[COMMON] enum E2854
  5519 ;; Auto vars:     Size  Location     Type
  5520 ;;		None
  5521 ;; Return value:  Size  Location     Type
  5522 ;;                  1    wreg      void 
  5523 ;; Registers used:
  5524 ;;		None
  5525 ;; Tracked objects:
  5526 ;;		On entry : 0/0
  5527 ;;		On exit  : 0/0
  5528 ;;		Unchanged: 0/0
  5529 ;; Data sizes:     COMMON   BANK0   BANK1   BANK2   BANK3   BANK4   BANK5   BANK6
  5530 ;;      Params:         1       0       0       0       0       0       0       0
  5531 ;;      Locals:         0       0       0       0       0       0       0       0
  5532 ;;      Temps:          0       0       0       0       0       0       0       0
  5533 ;;      Totals:         1       0       0       0       0       0       0       0
  5534 ;;Total ram usage:        1 bytes
  5535 ;; Hardware stack levels used:    1
  5536 ;; Hardware stack levels required when called:    4
  5537 ;; This function calls:
  5538 ;;		Nothing
  5539 ;; This function is called by:
  5540 ;;		_Sensor_Service
  5541 ;; This function uses a non-reentrant model
  5542 ;;
  5543                           
  5544                           
  5545                           ;psect for function _Sensor_DefaultCallback
  5546  07FF                     _Sensor_DefaultCallback:	
  5547  07FF                     l303:	
  5548                           ;incstack = 0
  5549                           ; Regs used in _Sensor_DefaultCallback: []
  5550                           
  5551  07FF  0008               	return
  5552  0800                     __end_of_Sensor_DefaultCallback:	
  5553                           
  5554                           	psect	text31
  5555  0763                     __ptext31:	
  5556 ;; *************** function _Sensor_Acquisition *****************
  5557 ;; Defined at:
  5558 ;;		line 355 in file "mcc_generated_files/mtouch/mtouch_sensor.c"
  5559 ;; Parameters:    Size  Location     Type
  5560 ;;  sensor_adc1     1    wreg     PTR struct .
  5561 ;;		 -> mtouch_sensor(9), 
  5562 ;;  sensor_adc2     1   27[BANK0 ] PTR struct .
  5563 ;;		 -> NULL(0), 
  5564 ;; Auto vars:     Size  Location     Type
  5565 ;;  sensor_adc1     1   30[BANK0 ] PTR struct .
  5566 ;;		 -> mtouch_sensor(9), 
  5567 ;;  retry           1   29[BANK0 ] unsigned char 
  5568 ;; Return value:  Size  Location     Type
  5569 ;;                  1    wreg      enum E2856
  5570 ;; Registers used:
  5571 ;;		wreg, fsr0l, fsr0h, fsr1l, fsr1h, status,2, status,0, pclath, cstack
  5572 ;; Tracked objects:
  5573 ;;		On entry : 0/0
  5574 ;;		On exit  : 0/0
  5575 ;;		Unchanged: 0/0
  5576 ;; Data sizes:     COMMON   BANK0   BANK1   BANK2   BANK3   BANK4   BANK5   BANK6
  5577 ;;      Params:         0       1       0       0       0       0       0       0
  5578 ;;      Locals:         0       2       0       0       0       0       0       0
  5579 ;;      Temps:          0       1       0       0       0       0       0       0
  5580 ;;      Totals:         0       4       0       0       0       0       0       0
  5581 ;;Total ram usage:        4 bytes
  5582 ;; Hardware stack levels used:    1
  5583 ;; Hardware stack levels required when called:    8
  5584 ;; This function calls:
  5585 ;;		_Sensor_Acq_ExecutePacket
  5586 ;;		_Sensor_Scanfrequency_Evaluation
  5587 ;;		_Sensor_isActive
  5588 ;;		_Sensor_isCalibrated
  5589 ;;		_Sensor_postAcquisitionProcess
  5590 ;; This function is called by:
  5591 ;;		_Sensor_Service
  5592 ;; This function uses a non-reentrant model
  5593 ;;
  5594                           
  5595                           
  5596                           ;psect for function _Sensor_Acquisition
  5597  0763                     _Sensor_Acquisition:	
  5598                           
  5599                           ;incstack = 0
  5600                           ; Regs used in _Sensor_Acquisition: [wreg-fsr1h+status,2+status,0+pclath+cstack]
  5601                           ;Sensor_Acquisition@sensor_adc1 stored from wreg
  5602  0763  0020               	movlb	0	; select bank0
  5603  0764  00BE               	movwf	Sensor_Acquisition@sensor_adc1
  5604  0765                     l4124:	
  5605                           
  5606                           ;mcc_generated_files/mtouch/mtouch_sensor.c: 355: static enum mtouch_sensor_error Sensor
      +                          _Acquisition(mtouch_sensor_t* sensor_adc1,mtouch_sensor_t* sensor_adc2);mcc_generated_fi
      +                          les/mtouch/mtouch_sensor.c: 356: {;mcc_generated_files/mtouch/mtouch_sensor.c: 357:     
      +                          uint8_t retry = (uint8_t)5;
  5607  0765  3005               	movlw	5
  5608  0766  00BC               	movwf	??_Sensor_Acquisition
  5609  0767  083C               	movf	??_Sensor_Acquisition,w
  5610  0768  00BD               	movwf	Sensor_Acquisition@retry
  5611  0769                     l4126:	
  5612                           
  5613                           ;mcc_generated_files/mtouch/mtouch_sensor.c: 360:     if (sensor_adc1 == ((void*)0) && s
      +                          ensor_adc2 == ((void*)0))
  5614  0769  083E               	movf	Sensor_Acquisition@sensor_adc1,w
  5615  076A  1D03               	btfss	3,2
  5616  076B  2F6D               	goto	u3741
  5617  076C  2F6E               	goto	u3740
  5618  076D                     u3741:	
  5619  076D  2F7F               	goto	l4140
  5620  076E                     u3740:	
  5621  076E                     l4128:	
  5622  076E  083B               	movf	Sensor_Acquisition@sensor_adc2,w
  5623  076F  1D03               	btfss	3,2
  5624  0770  2F72               	goto	u3751
  5625  0771  2F73               	goto	u3750
  5626  0772                     u3751:	
  5627  0772  2F7F               	goto	l4140
  5628  0773                     u3750:	
  5629  0773                     l4130:	
  5630                           
  5631                           ;mcc_generated_files/mtouch/mtouch_sensor.c: 361:     {;mcc_generated_files/mtouch/mtouc
      +                          h_sensor.c: 362:         return MTOUCH_SENSOR_ERROR_invalid_index;
  5632  0773  30FF               	movlw	255
  5633  0774  2FD3               	goto	l182
  5634  0775                     l4134:	
  5635                           
  5636                           ;mcc_generated_files/mtouch/mtouch_sensor.c: 371:     {;mcc_generated_files/mtouch/mtouc
      +                          h_sensor.c: 372:         retry--;
  5637  0775  3001               	movlw	1
  5638  0776  0020               	movlb	0	; select bank0
  5639  0777  02BD               	subwf	Sensor_Acquisition@retry,f
  5640                           
  5641                           ;mcc_generated_files/mtouch/mtouch_sensor.c: 373:         if(retry == 0)
  5642  0778  083D               	movf	Sensor_Acquisition@retry,w
  5643  0779  1D03               	btfss	3,2
  5644  077A  2F7C               	goto	u3761
  5645  077B  2F7D               	goto	u3760
  5646  077C                     u3761:	
  5647  077C  2F7F               	goto	l4140
  5648  077D                     u3760:	
  5649  077D                     l4136:	
  5650                           
  5651                           ;mcc_generated_files/mtouch/mtouch_sensor.c: 374:         {;mcc_generated_files/mtouch/m
      +                          touch_sensor.c: 375:             return MTOUCH_SENSOR_ERROR_tooManyRetries;
  5652  077D  30FC               	movlw	252
  5653  077E  2FD3               	goto	l182
  5654  077F                     l4140:	
  5655                           
  5656                           ;mcc_generated_files/mtouch/mtouch_sensor.c: 370:     while(Sensor_Acq_ExecutePacket(sen
      +                          sor_adc1,sensor_adc2))
  5657  077F  083B               	movf	Sensor_Acquisition@sensor_adc2,w
  5658  0780  00BC               	movwf	??_Sensor_Acquisition
  5659  0781  083C               	movf	??_Sensor_Acquisition,w
  5660  0782  00FB               	movwf	Sensor_Acq_ExecutePacket@sensor_adc2
  5661  0783  083E               	movf	Sensor_Acquisition@sensor_adc1,w
  5662  0784  3180  205C  3187   	fcall	_Sensor_Acq_ExecutePacket
  5663  0787  3A00               	xorlw	0
  5664  0788  1D03               	skipz
  5665  0789  2F8B               	goto	u3771
  5666  078A  2F8C               	goto	u3770
  5667  078B                     u3771:	
  5668  078B  2F75               	goto	l4134
  5669  078C                     u3770:	
  5670  078C                     l4142:	
  5671                           
  5672                           ;mcc_generated_files/mtouch/mtouch_sensor.c: 379:     if(sensor_adc1 != ((void*)0))
  5673  078C  0020               	movlb	0	; select bank0
  5674  078D  083E               	movf	Sensor_Acquisition@sensor_adc1,w
  5675  078E  1903               	btfsc	3,2
  5676  078F  2F91               	goto	u3781
  5677  0790  2F92               	goto	u3780
  5678  0791                     u3781:	
  5679  0791  2F96               	goto	l4146
  5680  0792                     u3780:	
  5681  0792                     l4144:	
  5682                           
  5683                           ;mcc_generated_files/mtouch/mtouch_sensor.c: 380:     {;mcc_generated_files/mtouch/mtouc
      +                          h_sensor.c: 381:         Sensor_postAcquisitionProcess(sensor_adc1);
  5684  0792  083E               	movf	Sensor_Acquisition@sensor_adc1,w
  5685  0793  318D  25D4  3187   	fcall	_Sensor_postAcquisitionProcess
  5686  0796                     l4146:	
  5687                           
  5688                           ;mcc_generated_files/mtouch/mtouch_sensor.c: 384:     if(sensor_adc2 !=((void*)0))
  5689  0796  0020               	movlb	0	; select bank0
  5690  0797  083B               	movf	Sensor_Acquisition@sensor_adc2,w
  5691  0798  1903               	btfsc	3,2
  5692  0799  2F9B               	goto	u3791
  5693  079A  2F9C               	goto	u3790
  5694  079B                     u3791:	
  5695  079B  2FA0               	goto	l4150
  5696  079C                     u3790:	
  5697  079C                     l4148:	
  5698                           
  5699                           ;mcc_generated_files/mtouch/mtouch_sensor.c: 385:     {;mcc_generated_files/mtouch/mtouc
      +                          h_sensor.c: 386:         Sensor_postAcquisitionProcess(sensor_adc2);
  5700  079C  083B               	movf	Sensor_Acquisition@sensor_adc2,w
  5701  079D  318D  25D4  3187   	fcall	_Sensor_postAcquisitionProcess
  5702  07A0                     l4150:	
  5703                           
  5704                           ;mcc_generated_files/mtouch/mtouch_sensor.c: 389:     if((Sensor_isActive(sensor_adc1) &
      +                          & Sensor_isCalibrated(sensor_adc1))
  5705  07A0  0020               	movlb	0	; select bank0
  5706  07A1  083E               	movf	Sensor_Acquisition@sensor_adc1,w
  5707  07A2  318A  223D  3187   	fcall	_Sensor_isActive
  5708  07A5  3A00               	xorlw	0
  5709  07A6  1903               	skipnz
  5710  07A7  2FA9               	goto	u3801
  5711  07A8  2FAA               	goto	u3800
  5712  07A9                     u3801:	
  5713  07A9  2FB4               	goto	l4154
  5714  07AA                     u3800:	
  5715  07AA                     l4152:	
  5716  07AA  0020               	movlb	0	; select bank0
  5717  07AB  083E               	movf	Sensor_Acquisition@sensor_adc1,w
  5718  07AC  3189  21FF  3187   	fcall	_Sensor_isCalibrated
  5719  07AF  3A00               	xorlw	0
  5720  07B0  1D03               	skipz
  5721  07B1  2FB3               	goto	u3811
  5722  07B2  2FB4               	goto	u3810
  5723  07B3                     u3811:	
  5724  07B3  2FC8               	goto	l4158
  5725  07B4                     u3810:	
  5726  07B4                     l4154:	
  5727  07B4  0020               	movlb	0	; select bank0
  5728  07B5  083B               	movf	Sensor_Acquisition@sensor_adc2,w
  5729  07B6  318A  223D  3187   	fcall	_Sensor_isActive
  5730  07B9  3A00               	xorlw	0
  5731  07BA  1903               	skipnz
  5732  07BB  2FBD               	goto	u3821
  5733  07BC  2FBE               	goto	u3820
  5734  07BD                     u3821:	
  5735  07BD  2FD2               	goto	l4162
  5736  07BE                     u3820:	
  5737  07BE                     l4156:	
  5738  07BE  0020               	movlb	0	; select bank0
  5739  07BF  083B               	movf	Sensor_Acquisition@sensor_adc2,w
  5740  07C0  3189  21FF  3187   	fcall	_Sensor_isCalibrated
  5741  07C3  3A00               	xorlw	0
  5742  07C4  1903               	skipnz
  5743  07C5  2FC7               	goto	u3831
  5744  07C6  2FC8               	goto	u3830
  5745  07C7                     u3831:	
  5746  07C7  2FD2               	goto	l4162
  5747  07C8                     u3830:	
  5748  07C8                     l4158:	
  5749                           
  5750                           ;mcc_generated_files/mtouch/mtouch_sensor.c: 391:     {;mcc_generated_files/mtouch/mtouc
      +                          h_sensor.c: 392:         return Sensor_Scanfrequency_Evaluation(sensor_adc1,sensor_adc2)
      +                          ;
  5751  07C8  0020               	movlb	0	; select bank0
  5752  07C9  083B               	movf	Sensor_Acquisition@sensor_adc2,w
  5753  07CA  00BC               	movwf	??_Sensor_Acquisition
  5754  07CB  083C               	movf	??_Sensor_Acquisition,w
  5755  07CC  00AE               	movwf	Sensor_Scanfrequency_Evaluation@sensor_adc2
  5756  07CD  083E               	movf	Sensor_Acquisition@sensor_adc1,w
  5757  07CE  3186  26E2  3187   	fcall	_Sensor_Scanfrequency_Evaluation
  5758  07D1  2FD3               	goto	l182
  5759  07D2                     l4162:	
  5760                           
  5761                           ;mcc_generated_files/mtouch/mtouch_sensor.c: 395:     return MTOUCH_SENSOR_ERROR_none;
  5762  07D2  3000               	movlw	0
  5763  07D3                     l182:	
  5764  07D3  0008               	return
  5765  07D4                     __end_of_Sensor_Acquisition:	
  5766                           
  5767                           	psect	text32
  5768  0DD4                     __ptext32:	
  5769 ;; *************** function _Sensor_postAcquisitionProcess *****************
  5770 ;; Defined at:
  5771 ;;		line 398 in file "mcc_generated_files/mtouch/mtouch_sensor.c"
  5772 ;; Parameters:    Size  Location     Type
  5773 ;;  sensor          1    wreg     PTR struct .
  5774 ;;		 -> NULL(0), mtouch_sensor(9), 
  5775 ;; Auto vars:     Size  Location     Type
  5776 ;;  sensor          1    9[COMMON] PTR struct .
  5777 ;;		 -> NULL(0), mtouch_sensor(9), 
  5778 ;;  deviation       2    6[COMMON] unsigned short 
  5779 ;;  adcIndex        1    8[COMMON] unsigned char 
  5780 ;; Return value:  Size  Location     Type
  5781 ;;                  1    wreg      void 
  5782 ;; Registers used:
  5783 ;;		wreg, fsr0l, fsr0h, fsr1l, fsr1h, status,2, status,0, pclath, cstack
  5784 ;; Tracked objects:
  5785 ;;		On entry : 0/0
  5786 ;;		On exit  : 0/0
  5787 ;;		Unchanged: 0/0
  5788 ;; Data sizes:     COMMON   BANK0   BANK1   BANK2   BANK3   BANK4   BANK5   BANK6
  5789 ;;      Params:         0       0       0       0       0       0       0       0
  5790 ;;      Locals:         4       0       0       0       0       0       0       0
  5791 ;;      Temps:          1       0       0       0       0       0       0       0
  5792 ;;      Totals:         5       0       0       0       0       0       0       0
  5793 ;;Total ram usage:        5 bytes
  5794 ;; Hardware stack levels used:    1
  5795 ;; Hardware stack levels required when called:    5
  5796 ;; This function calls:
  5797 ;;		_Sensor_getScanGroupIndex
  5798 ;;		_Sensor_isEnabled
  5799 ;;		_Sensor_setActive
  5800 ;;		_Sensor_setInactive
  5801 ;;		_abs
  5802 ;; This function is called by:
  5803 ;;		_Sensor_Acquisition
  5804 ;; This function uses a non-reentrant model
  5805 ;;
  5806                           
  5807                           
  5808                           ;psect for function _Sensor_postAcquisitionProcess
  5809  0DD4                     _Sensor_postAcquisitionProcess:	
  5810                           
  5811                           ;incstack = 0
  5812                           ; Regs used in _Sensor_postAcquisitionProcess: [wreg-fsr1h+status,2+status,0+pclath+csta
      +                          ck]
  5813                           ;Sensor_postAcquisitionProcess@sensor stored from wreg
  5814  0DD4  00F9               	movwf	Sensor_postAcquisitionProcess@sensor
  5815  0DD5                     l3080:	
  5816                           
  5817                           ;mcc_generated_files/mtouch/mtouch_sensor.c: 398: static void Sensor_postAcquisitionProc
      +                          ess(mtouch_sensor_t* sensor);mcc_generated_files/mtouch/mtouch_sensor.c: 399: {;mcc_gene
      +                          rated_files/mtouch/mtouch_sensor.c: 400:     mtouch_sensor_sample_t deviation;;mcc_gener
      +                          ated_files/mtouch/mtouch_sensor.c: 401:     uint8_t adcIndex = Sensor_getScanGroupIndex(
      +                          sensor);
  5818  0DD5  0879               	movf	Sensor_postAcquisitionProcess@sensor,w
  5819  0DD6  318D  2568  318D   	fcall	_Sensor_getScanGroupIndex
  5820  0DD9  00F5               	movwf	??_Sensor_postAcquisitionProcess
  5821  0DDA  0875               	movf	??_Sensor_postAcquisitionProcess,w
  5822  0DDB  00F8               	movwf	Sensor_postAcquisitionProcess@adcIndex
  5823  0DDC                     l3082:	
  5824                           
  5825                           ;mcc_generated_files/mtouch/mtouch_sensor.c: 403:     if(Sensor_isEnabled(sensor))
  5826  0DDC  0879               	movf	Sensor_postAcquisitionProcess@sensor,w
  5827  0DDD  318A  229C  318D   	fcall	_Sensor_isEnabled
  5828  0DE0  3A00               	xorlw	0
  5829  0DE1  1903               	skipnz
  5830  0DE2  2DE4               	goto	u2261
  5831  0DE3  2DE5               	goto	u2260
  5832  0DE4                     u2261:	
  5833  0DE4  2DFC               	goto	l3086
  5834  0DE5                     u2260:	
  5835  0DE5                     l3084:	
  5836                           
  5837                           ;mcc_generated_files/mtouch/mtouch_sensor.c: 404:         deviation = (mtouch_sensor_sam
      +                          ple_t)abs(packet_sample[adcIndex] - sensor->rawSample);
  5838  0DE5  0879               	movf	Sensor_postAcquisitionProcess@sensor,w
  5839  0DE6  3E06               	addlw	6
  5840  0DE7  0086               	movwf	6
  5841  0DE8  0187               	clrf	7
  5842  0DE9  3578               	lslf	Sensor_postAcquisitionProcess@adcIndex,w
  5843  0DEA  3E4A               	addlw	(low (_packet_sample| 0))& (0+255)
  5844  0DEB  0084               	movwf	4
  5845  0DEC  0185               	clrf	5
  5846  0DED  3F40               	moviw [0]fsr1
  5847  0DEE  0200               	subwf	0,w
  5848  0DEF  00F1               	movwf	abs@a
  5849  0DF0  3101               	addfsr 0,1
  5850  0DF1  3F41               	moviw [1]fsr1
  5851  0DF2  3B00               	subwfb	0,w
  5852  0DF3  00F2               	movwf	abs@a+1
  5853  0DF4  318B  238D  318D   	fcall	_abs
  5854  0DF7  0872               	movf	?_abs+1,w
  5855  0DF8  00F7               	movwf	Sensor_postAcquisitionProcess@deviation+1
  5856  0DF9  0871               	movf	?_abs,w
  5857  0DFA  00F6               	movwf	Sensor_postAcquisitionProcess@deviation
  5858  0DFB  2DFE               	goto	l3088
  5859  0DFC                     l3086:	
  5860                           
  5861                           ;mcc_generated_files/mtouch/mtouch_sensor.c: 406:         deviation = 0;
  5862  0DFC  01F6               	clrf	Sensor_postAcquisitionProcess@deviation
  5863  0DFD  01F7               	clrf	Sensor_postAcquisitionProcess@deviation+1
  5864  0DFE                     l3088:	
  5865                           
  5866                           ;mcc_generated_files/mtouch/mtouch_sensor.c: 408:     if(deviation > 100u)
  5867  0DFE  3000               	movlw	0
  5868  0DFF  0277               	subwf	Sensor_postAcquisitionProcess@deviation+1,w
  5869  0E00  3065               	movlw	101
  5870  0E01  1903               	skipnz
  5871  0E02  0276               	subwf	Sensor_postAcquisitionProcess@deviation,w
  5872  0E03  1C03               	skipc
  5873  0E04  2E06               	goto	u2271
  5874  0E05  2E07               	goto	u2270
  5875  0E06                     u2271:	
  5876  0E06  2E0C               	goto	l3092
  5877  0E07                     u2270:	
  5878  0E07                     l3090:	
  5879                           
  5880                           ;mcc_generated_files/mtouch/mtouch_sensor.c: 409:         Sensor_setActive(sensor);
  5881  0E07  0879               	movf	Sensor_postAcquisitionProcess@sensor,w
  5882  0E08  3189  21CA  318D   	fcall	_Sensor_setActive
  5883  0E0B  2E10               	goto	l200
  5884  0E0C                     l3092:	
  5885                           
  5886                           ;mcc_generated_files/mtouch/mtouch_sensor.c: 411:         Sensor_setInactive(sensor);
  5887  0E0C  0879               	movf	Sensor_postAcquisitionProcess@sensor,w
  5888  0E0D  3189  21D1  318D   	fcall	_Sensor_setInactive
  5889  0E10                     l200:	
  5890  0E10  0008               	return
  5891  0E11                     __end_of_Sensor_postAcquisitionProcess:	
  5892                           
  5893                           	psect	text33
  5894  09D1                     __ptext33:	
  5895 ;; *************** function _Sensor_setInactive *****************
  5896 ;; Defined at:
  5897 ;;		line 860 in file "mcc_generated_files/mtouch/mtouch_sensor.c"
  5898 ;; Parameters:    Size  Location     Type
  5899 ;;  sensor          1    wreg     PTR struct .
  5900 ;;		 -> NULL(0), mtouch_sensor(9), 
  5901 ;; Auto vars:     Size  Location     Type
  5902 ;;  sensor          1    1[COMMON] PTR struct .
  5903 ;;		 -> NULL(0), mtouch_sensor(9), 
  5904 ;; Return value:  Size  Location     Type
  5905 ;;                  1    wreg      void 
  5906 ;; Registers used:
  5907 ;;		wreg, fsr1l, fsr1h, status,2, status,0
  5908 ;; Tracked objects:
  5909 ;;		On entry : 0/0
  5910 ;;		On exit  : 0/0
  5911 ;;		Unchanged: 0/0
  5912 ;; Data sizes:     COMMON   BANK0   BANK1   BANK2   BANK3   BANK4   BANK5   BANK6
  5913 ;;      Params:         0       0       0       0       0       0       0       0
  5914 ;;      Locals:         1       0       0       0       0       0       0       0
  5915 ;;      Temps:          0       0       0       0       0       0       0       0
  5916 ;;      Totals:         1       0       0       0       0       0       0       0
  5917 ;;Total ram usage:        1 bytes
  5918 ;; Hardware stack levels used:    1
  5919 ;; Hardware stack levels required when called:    4
  5920 ;; This function calls:
  5921 ;;		Nothing
  5922 ;; This function is called by:
  5923 ;;		_Sensor_postAcquisitionProcess
  5924 ;; This function uses a non-reentrant model
  5925 ;;
  5926                           
  5927                           
  5928                           ;psect for function _Sensor_setInactive
  5929  09D1                     _Sensor_setInactive:	
  5930                           
  5931                           ;incstack = 0
  5932                           ; Regs used in _Sensor_setInactive: [wreg+fsr1l+fsr1h+status,2+status,0]
  5933                           ;Sensor_setInactive@sensor stored from wreg
  5934  09D1  00F1               	movwf	Sensor_setInactive@sensor
  5935  09D2                     l3052:	
  5936                           
  5937                           ;mcc_generated_files/mtouch/mtouch_sensor.c: 860: static __attribute__((inline)) void Se
      +                          nsor_setInactive(mtouch_sensor_t* sensor);mcc_generated_files/mtouch/mtouch_sensor.c: 86
      +                          1: {;mcc_generated_files/mtouch/mtouch_sensor.c: 862:     sensor->active = 0;
  5938  09D2  0871               	movf	Sensor_setInactive@sensor,w
  5939  09D3  3E08               	addlw	8
  5940  09D4  0086               	movwf	6
  5941  09D5  0187               	clrf	7
  5942  09D6  1081               	bcf	1,1
  5943  09D7                     l330:	
  5944  09D7  0008               	return
  5945  09D8                     __end_of_Sensor_setInactive:	
  5946                           
  5947                           	psect	text34
  5948  09CA                     __ptext34:	
  5949 ;; *************** function _Sensor_setActive *****************
  5950 ;; Defined at:
  5951 ;;		line 855 in file "mcc_generated_files/mtouch/mtouch_sensor.c"
  5952 ;; Parameters:    Size  Location     Type
  5953 ;;  sensor          1    wreg     PTR struct .
  5954 ;;		 -> NULL(0), mtouch_sensor(9), 
  5955 ;; Auto vars:     Size  Location     Type
  5956 ;;  sensor          1    1[COMMON] PTR struct .
  5957 ;;		 -> NULL(0), mtouch_sensor(9), 
  5958 ;; Return value:  Size  Location     Type
  5959 ;;                  1    wreg      void 
  5960 ;; Registers used:
  5961 ;;		wreg, fsr1l, fsr1h, status,2, status,0
  5962 ;; Tracked objects:
  5963 ;;		On entry : 0/0
  5964 ;;		On exit  : 0/0
  5965 ;;		Unchanged: 0/0
  5966 ;; Data sizes:     COMMON   BANK0   BANK1   BANK2   BANK3   BANK4   BANK5   BANK6
  5967 ;;      Params:         0       0       0       0       0       0       0       0
  5968 ;;      Locals:         1       0       0       0       0       0       0       0
  5969 ;;      Temps:          0       0       0       0       0       0       0       0
  5970 ;;      Totals:         1       0       0       0       0       0       0       0
  5971 ;;Total ram usage:        1 bytes
  5972 ;; Hardware stack levels used:    1
  5973 ;; Hardware stack levels required when called:    4
  5974 ;; This function calls:
  5975 ;;		Nothing
  5976 ;; This function is called by:
  5977 ;;		_Sensor_postAcquisitionProcess
  5978 ;; This function uses a non-reentrant model
  5979 ;;
  5980                           
  5981                           
  5982                           ;psect for function _Sensor_setActive
  5983  09CA                     _Sensor_setActive:	
  5984                           
  5985                           ;incstack = 0
  5986                           ; Regs used in _Sensor_setActive: [wreg+fsr1l+fsr1h+status,2+status,0]
  5987                           ;Sensor_setActive@sensor stored from wreg
  5988  09CA  00F1               	movwf	Sensor_setActive@sensor
  5989  09CB                     l3050:	
  5990                           
  5991                           ;mcc_generated_files/mtouch/mtouch_sensor.c: 855: static __attribute__((inline)) void Se
      +                          nsor_setActive(mtouch_sensor_t* sensor);mcc_generated_files/mtouch/mtouch_sensor.c: 856:
      +                           {;mcc_generated_files/mtouch/mtouch_sensor.c: 857:     sensor->active = 1;
  5992  09CB  0871               	movf	Sensor_setActive@sensor,w
  5993  09CC  3E08               	addlw	8
  5994  09CD  0086               	movwf	6
  5995  09CE  0187               	clrf	7
  5996  09CF  1481               	bsf	1,1
  5997  09D0                     l327:	
  5998  09D0  0008               	return
  5999  09D1                     __end_of_Sensor_setActive:	
  6000                           
  6001                           	psect	text35
  6002  06E2                     __ptext35:	
  6003 ;; *************** function _Sensor_Scanfrequency_Evaluation *****************
  6004 ;; Defined at:
  6005 ;;		line 716 in file "mcc_generated_files/mtouch/mtouch_sensor.c"
  6006 ;; Parameters:    Size  Location     Type
  6007 ;;  sensor_adc1     1    wreg     PTR struct .
  6008 ;;		 -> mtouch_sensor(9), 
  6009 ;;  sensor_adc2     1   14[BANK0 ] PTR struct .
  6010 ;;		 -> NULL(0), 
  6011 ;; Auto vars:     Size  Location     Type
  6012 ;;  sensor_adc1     1   17[BANK0 ] PTR struct .
  6013 ;;		 -> mtouch_sensor(9), 
  6014 ;;  best_packet_    4   22[BANK0 ] unsigned short [2]
  6015 ;;  packet_noise    2   18[BANK0 ] unsigned short 
  6016 ;;  i               1   26[BANK0 ] unsigned char 
  6017 ;;  retry           1   21[BANK0 ] unsigned char 
  6018 ;;  best_sample_    1   20[BANK0 ] unsigned char 
  6019 ;; Return value:  Size  Location     Type
  6020 ;;                  1    wreg      enum E2856
  6021 ;; Registers used:
  6022 ;;		wreg, fsr0l, fsr0h, fsr1l, fsr1h, status,2, status,0, pclath, cstack
  6023 ;; Tracked objects:
  6024 ;;		On entry : 0/0
  6025 ;;		On exit  : 0/0
  6026 ;;		Unchanged: 0/0
  6027 ;; Data sizes:     COMMON   BANK0   BANK1   BANK2   BANK3   BANK4   BANK5   BANK6
  6028 ;;      Params:         0       1       0       0       0       0       0       0
  6029 ;;      Locals:         0      10       0       0       0       0       0       0
  6030 ;;      Temps:          0       2       0       0       0       0       0       0
  6031 ;;      Totals:         0      13       0       0       0       0       0       0
  6032 ;;Total ram usage:       13 bytes
  6033 ;; Hardware stack levels used:    1
  6034 ;; Hardware stack levels required when called:    7
  6035 ;; This function calls:
  6036 ;;		_Sensor_Acq_ExecutePacket
  6037 ;; This function is called by:
  6038 ;;		_Sensor_Acquisition
  6039 ;; This function uses a non-reentrant model
  6040 ;;
  6041                           
  6042                           
  6043                           ;psect for function _Sensor_Scanfrequency_Evaluation
  6044  06E2                     _Sensor_Scanfrequency_Evaluation:	
  6045                           
  6046                           ;incstack = 0
  6047                           ; Regs used in _Sensor_Scanfrequency_Evaluation: [wreg-fsr1h+status,2+status,0+pclath+cs
      +                          tack]
  6048                           ;Sensor_Scanfrequency_Evaluation@sensor_adc1 stored from wreg
  6049  06E2  0020               	movlb	0	; select bank0
  6050  06E3  00B1               	movwf	Sensor_Scanfrequency_Evaluation@sensor_adc1
  6051  06E4                     l4064:	
  6052                           
  6053                           ;mcc_generated_files/mtouch/mtouch_sensor.c: 716: static enum mtouch_sensor_error Sensor
      +                          _Scanfrequency_Evaluation(mtouch_sensor_t* sensor_adc1,mtouch_sensor_t* sensor_adc2);mcc
      +                          _generated_files/mtouch/mtouch_sensor.c: 717: {;mcc_generated_files/mtouch/mtouch_sensor
      +                          .c: 718:     uint8_t i;;mcc_generated_files/mtouch/mtouch_sensor.c: 719:     const mtouc
      +                          h_sensor_sampleperiod_t frequency_hop[5] = {0,13,28,30,23};;mcc_generated_files/mtouch/m
      +                          touch_sensor.c: 720:     mtouch_sensor_packetnoise_t packet_noise_Max;;mcc_generated_fil
      +                          es/mtouch/mtouch_sensor.c: 721:     mtouch_sensor_sampleperiod_t best_sample_period;
  6054  06E4  084F               	movf	_packet_noise+1,w
  6055  06E5  00B0               	movwf	??_Sensor_Scanfrequency_Evaluation+1
  6056  06E6  084E               	movf	_packet_noise,w
  6057  06E7  00AF               	movwf	??_Sensor_Scanfrequency_Evaluation
  6058  06E8  36B0               	lsrf	??_Sensor_Scanfrequency_Evaluation+1,f
  6059  06E9  0CAF               	rrf	??_Sensor_Scanfrequency_Evaluation,f
  6060  06EA  36B0               	lsrf	??_Sensor_Scanfrequency_Evaluation+1,f
  6061  06EB  0CAF               	rrf	??_Sensor_Scanfrequency_Evaluation,f
  6062  06EC  084E               	movf	_packet_noise,w
  6063  06ED  072F               	addwf	??_Sensor_Scanfrequency_Evaluation,w
  6064  06EE  00B2               	movwf	Sensor_Scanfrequency_Evaluation@packet_noise_Max
  6065  06EF  084F               	movf	_packet_noise+1,w
  6066  06F0  3D30               	addwfc	??_Sensor_Scanfrequency_Evaluation+1,w
  6067  06F1  00B3               	movwf	Sensor_Scanfrequency_Evaluation@packet_noise_Max+1
  6068  06F2                     l4066:	
  6069                           
  6070                           ;mcc_generated_files/mtouch/mtouch_sensor.c: 726:     best_sample_period = sample_period
      +                          ;
  6071  06F2  086F               	movf	_sample_period,w
  6072  06F3  00AF               	movwf	??_Sensor_Scanfrequency_Evaluation
  6073  06F4  082F               	movf	??_Sensor_Scanfrequency_Evaluation,w
  6074  06F5  00B4               	movwf	Sensor_Scanfrequency_Evaluation@best_sample_period
  6075  06F6                     l4068:	
  6076                           
  6077                           ;mcc_generated_files/mtouch/mtouch_sensor.c: 727:     best_packet_sample[0] = packet_sam
      +                          ple[0];
  6078  06F6  084B               	movf	_packet_sample+1,w
  6079  06F7  00B7               	movwf	Sensor_Scanfrequency_Evaluation@best_packet_sample+1
  6080  06F8  084A               	movf	_packet_sample,w
  6081  06F9  00B6               	movwf	Sensor_Scanfrequency_Evaluation@best_packet_sample
  6082  06FA                     l4070:	
  6083                           
  6084                           ;mcc_generated_files/mtouch/mtouch_sensor.c: 728:     best_packet_sample[1] = packet_sam
      +                          ple[1];
  6085  06FA  084D               	movf	_packet_sample+3,w
  6086  06FB  00B9               	movwf	Sensor_Scanfrequency_Evaluation@best_packet_sample+3
  6087  06FC  084C               	movf	_packet_sample+2,w
  6088  06FD  00B8               	movwf	Sensor_Scanfrequency_Evaluation@best_packet_sample+2
  6089  06FE                     l4072:	
  6090                           
  6091                           ;mcc_generated_files/mtouch/mtouch_sensor.c: 730:     for(i=(uint8_t)0;i<(uint8_t)5;i++)
  6092  06FE  01BA               	clrf	Sensor_Scanfrequency_Evaluation@i
  6093  06FF                     l4078:	
  6094                           
  6095                           ;mcc_generated_files/mtouch/mtouch_sensor.c: 731:     {;mcc_generated_files/mtouch/mtouc
      +                          h_sensor.c: 732:         sample_period += frequency_hop[i];
  6096  06FF  083A               	movf	Sensor_Scanfrequency_Evaluation@i,w
  6097  0700  3E12               	addlw	low (Sensor_Scanfrequency_Evaluation@frequency_hop| (0+32768))
  6098  0701  0084               	movwf	4
  6099  0702  3090               	movlw	high (Sensor_Scanfrequency_Evaluation@frequency_hop| (0+32768))
  6100  0703  1803               	skipnc
  6101  0704  3E01               	addlw	1
  6102  0705  0085               	movwf	5
  6103  0706  0800               	movf	0,w	;code access
  6104  0707  00AF               	movwf	??_Sensor_Scanfrequency_Evaluation
  6105  0708  082F               	movf	??_Sensor_Scanfrequency_Evaluation,w
  6106  0709  07EF               	addwf	_sample_period,f
  6107  070A                     l4082:	
  6108                           ;mcc_generated_files/mtouch/mtouch_sensor.c: 733:         if(sample_period > ((mtouch_se
      +                          nsor_sampleperiod_t)255))
  6109                           
  6110  070A  30AE               	movlw	174
  6111  070B  026F               	subwf	_sample_period,w
  6112  070C  1803               	skipnc
  6113  070D  2F0F               	goto	u3661
  6114  070E  2F10               	goto	u3660
  6115  070F                     u3661:	
  6116  070F  2F14               	goto	l4086
  6117  0710                     u3660:	
  6118  0710                     l4084:	
  6119                           
  6120                           ;mcc_generated_files/mtouch/mtouch_sensor.c: 739:         {;mcc_generated_files/mtouch/m
      +                          touch_sensor.c: 740:             sample_period += ((mtouch_sensor_sampleperiod_t)(mtouch
      +                          _sensor_time_t)32 +(mtouch_sensor_time_t)32 +(mtouch_sensor_time_t)110);
  6121  0710  30AE               	movlw	174
  6122  0711  00AF               	movwf	??_Sensor_Scanfrequency_Evaluation
  6123  0712  082F               	movf	??_Sensor_Scanfrequency_Evaluation,w
  6124  0713  07EF               	addwf	_sample_period,f
  6125  0714                     l4086:	
  6126                           
  6127                           ;mcc_generated_files/mtouch/mtouch_sensor.c: 743:         retry = (uint8_t)5;
  6128  0714  3005               	movlw	5
  6129  0715  00AF               	movwf	??_Sensor_Scanfrequency_Evaluation
  6130  0716  082F               	movf	??_Sensor_Scanfrequency_Evaluation,w
  6131  0717  00B5               	movwf	Sensor_Scanfrequency_Evaluation@retry
  6132                           
  6133                           ;mcc_generated_files/mtouch/mtouch_sensor.c: 745:         while(Sensor_Acq_ExecutePacket
      +                          (sensor_adc1,sensor_adc2))
  6134  0718  2F23               	goto	l4094
  6135  0719                     l4088:	
  6136                           
  6137                           ;mcc_generated_files/mtouch/mtouch_sensor.c: 746:         {;mcc_generated_files/mtouch/m
      +                          touch_sensor.c: 747:             retry--;
  6138  0719  3001               	movlw	1
  6139  071A  0020               	movlb	0	; select bank0
  6140  071B  02B5               	subwf	Sensor_Scanfrequency_Evaluation@retry,f
  6141                           
  6142                           ;mcc_generated_files/mtouch/mtouch_sensor.c: 748:             if(retry == 0)
  6143  071C  0835               	movf	Sensor_Scanfrequency_Evaluation@retry,w
  6144  071D  1D03               	btfss	3,2
  6145  071E  2F20               	goto	u3671
  6146  071F  2F21               	goto	u3670
  6147  0720                     u3671:	
  6148  0720  2F23               	goto	l4094
  6149  0721                     u3670:	
  6150  0721                     l4090:	
  6151                           
  6152                           ;mcc_generated_files/mtouch/mtouch_sensor.c: 749:             {;mcc_generated_files/mtou
      +                          ch/mtouch_sensor.c: 750:                 return MTOUCH_SENSOR_ERROR_tooManyRetries;
  6153  0721  30FC               	movlw	252
  6154  0722  2F62               	goto	l288
  6155  0723                     l4094:	
  6156                           
  6157                           ;mcc_generated_files/mtouch/mtouch_sensor.c: 745:         while(Sensor_Acq_ExecutePacket
      +                          (sensor_adc1,sensor_adc2))
  6158  0723  082E               	movf	Sensor_Scanfrequency_Evaluation@sensor_adc2,w
  6159  0724  00AF               	movwf	??_Sensor_Scanfrequency_Evaluation
  6160  0725  082F               	movf	??_Sensor_Scanfrequency_Evaluation,w
  6161  0726  00FB               	movwf	Sensor_Acq_ExecutePacket@sensor_adc2
  6162  0727  0831               	movf	Sensor_Scanfrequency_Evaluation@sensor_adc1,w
  6163  0728  3180  205C  3186   	fcall	_Sensor_Acq_ExecutePacket
  6164  072B  3A00               	xorlw	0
  6165  072C  1D03               	skipz
  6166  072D  2F2F               	goto	u3681
  6167  072E  2F30               	goto	u3680
  6168  072F                     u3681:	
  6169  072F  2F19               	goto	l4088
  6170  0730                     u3680:	
  6171  0730                     l4096:	
  6172                           
  6173                           ;mcc_generated_files/mtouch/mtouch_sensor.c: 754:         if(packet_noise_Max < packet_n
      +                          oise)
  6174  0730  0020               	movlb	0	; select bank0
  6175  0731  084F               	movf	_packet_noise+1,w
  6176  0732  0233               	subwf	Sensor_Scanfrequency_Evaluation@packet_noise_Max+1,w
  6177  0733  1D03               	skipz
  6178  0734  2F37               	goto	u3695
  6179  0735  084E               	movf	_packet_noise,w
  6180  0736  0232               	subwf	Sensor_Scanfrequency_Evaluation@packet_noise_Max,w
  6181  0737                     u3695:	
  6182  0737  1803               	skipnc
  6183  0738  2F3A               	goto	u3691
  6184  0739  2F3B               	goto	u3690
  6185  073A                     u3691:	
  6186  073A  2F4B               	goto	l4100
  6187  073B                     u3690:	
  6188  073B                     l4098:	
  6189                           
  6190                           ;mcc_generated_files/mtouch/mtouch_sensor.c: 755:         {;mcc_generated_files/mtouch/m
      +                          touch_sensor.c: 756:             packet_noise_Max = packet_noise;
  6191  073B  084F               	movf	_packet_noise+1,w
  6192  073C  00B3               	movwf	Sensor_Scanfrequency_Evaluation@packet_noise_Max+1
  6193  073D  084E               	movf	_packet_noise,w
  6194  073E  00B2               	movwf	Sensor_Scanfrequency_Evaluation@packet_noise_Max
  6195                           
  6196                           ;mcc_generated_files/mtouch/mtouch_sensor.c: 757:             best_sample_period = sampl
      +                          e_period;
  6197  073F  086F               	movf	_sample_period,w
  6198  0740  00AF               	movwf	??_Sensor_Scanfrequency_Evaluation
  6199  0741  082F               	movf	??_Sensor_Scanfrequency_Evaluation,w
  6200  0742  00B4               	movwf	Sensor_Scanfrequency_Evaluation@best_sample_period
  6201                           
  6202                           ;mcc_generated_files/mtouch/mtouch_sensor.c: 758:             best_packet_sample[0] = pa
      +                          cket_sample[0];
  6203  0743  084B               	movf	_packet_sample+1,w
  6204  0744  00B7               	movwf	Sensor_Scanfrequency_Evaluation@best_packet_sample+1
  6205  0745  084A               	movf	_packet_sample,w
  6206  0746  00B6               	movwf	Sensor_Scanfrequency_Evaluation@best_packet_sample
  6207                           
  6208                           ;mcc_generated_files/mtouch/mtouch_sensor.c: 759:             best_packet_sample[1] = pa
      +                          cket_sample[1];
  6209  0747  084D               	movf	_packet_sample+3,w
  6210  0748  00B9               	movwf	Sensor_Scanfrequency_Evaluation@best_packet_sample+3
  6211  0749  084C               	movf	_packet_sample+2,w
  6212  074A  00B8               	movwf	Sensor_Scanfrequency_Evaluation@best_packet_sample+2
  6213  074B                     l4100:	
  6214                           
  6215                           ;mcc_generated_files/mtouch/mtouch_sensor.c: 761:     }
  6216  074B  3001               	movlw	1
  6217  074C  00AF               	movwf	??_Sensor_Scanfrequency_Evaluation
  6218  074D  082F               	movf	??_Sensor_Scanfrequency_Evaluation,w
  6219  074E  07BA               	addwf	Sensor_Scanfrequency_Evaluation@i,f
  6220  074F                     l4102:	
  6221  074F  3005               	movlw	5
  6222  0750  023A               	subwf	Sensor_Scanfrequency_Evaluation@i,w
  6223  0751  1C03               	skipc
  6224  0752  2F54               	goto	u3701
  6225  0753  2F55               	goto	u3700
  6226  0754                     u3701:	
  6227  0754  2EFF               	goto	l4078
  6228  0755                     u3700:	
  6229  0755                     l4104:	
  6230                           
  6231                           ;mcc_generated_files/mtouch/mtouch_sensor.c: 763:     sample_period = best_sample_period
      +                          ;
  6232  0755  0834               	movf	Sensor_Scanfrequency_Evaluation@best_sample_period,w
  6233  0756  00AF               	movwf	??_Sensor_Scanfrequency_Evaluation
  6234  0757  082F               	movf	??_Sensor_Scanfrequency_Evaluation,w
  6235  0758  00EF               	movwf	_sample_period
  6236                           
  6237                           ;mcc_generated_files/mtouch/mtouch_sensor.c: 764:     packet_sample[0] = best_packet_sam
      +                          ple[0];
  6238  0759  0837               	movf	Sensor_Scanfrequency_Evaluation@best_packet_sample+1,w
  6239  075A  00CB               	movwf	_packet_sample+1
  6240  075B  0836               	movf	Sensor_Scanfrequency_Evaluation@best_packet_sample,w
  6241  075C  00CA               	movwf	_packet_sample
  6242                           
  6243                           ;mcc_generated_files/mtouch/mtouch_sensor.c: 765:     packet_sample[1] = best_packet_sam
      +                          ple[1];
  6244  075D  0839               	movf	Sensor_Scanfrequency_Evaluation@best_packet_sample+3,w
  6245  075E  00CD               	movwf	_packet_sample+3
  6246  075F  0838               	movf	Sensor_Scanfrequency_Evaluation@best_packet_sample+2,w
  6247  0760  00CC               	movwf	_packet_sample+2
  6248                           
  6249                           ;mcc_generated_files/mtouch/mtouch_sensor.c: 767:     return MTOUCH_SENSOR_ERROR_none;
  6250  0761  3000               	movlw	0
  6251  0762                     l288:	
  6252  0762  0008               	return
  6253  0763                     __end_of_Sensor_Scanfrequency_Evaluation:	
  6254                           
  6255                           	psect	text36
  6256  005C                     __ptext36:	
  6257 ;; *************** function _Sensor_Acq_ExecutePacket *****************
  6258 ;; Defined at:
  6259 ;;		line 454 in file "mcc_generated_files/mtouch/mtouch_sensor.c"
  6260 ;; Parameters:    Size  Location     Type
  6261 ;;  sensor_adc1     1    wreg     PTR struct .
  6262 ;;		 -> mtouch_sensor(9), 
  6263 ;;  sensor_adc2     1   11[COMMON] PTR struct .
  6264 ;;		 -> NULL(0), 
  6265 ;; Auto vars:     Size  Location     Type
  6266 ;;  sensor_adc1     1   13[BANK0 ] PTR struct .
  6267 ;;		 -> mtouch_sensor(9), 
  6268 ;;  last_b          2   10[BANK0 ] unsigned short 
  6269 ;;  last_a          2    8[BANK0 ] unsigned short 
  6270 ;;  packet_count    1   12[BANK0 ] unsigned char 
  6271 ;;  activeSensor    1    7[BANK0 ] unsigned char 
  6272 ;;  ADxIF_flag      1    6[BANK0 ] unsigned char 
  6273 ;;  sensor2Force    1    5[BANK0 ] unsigned char 
  6274 ;;  sensor1Force    1    4[BANK0 ] unsigned char 
  6275 ;;  AD2CON2_temp    1    3[BANK0 ] unsigned char 
  6276 ;;  AD1CON2_temp    1    2[BANK0 ] unsigned char 
  6277 ;;  ADCOMCON_tem    1    1[BANK0 ] unsigned char 
  6278 ;; Return value:  Size  Location     Type
  6279 ;;                  1    wreg      enum E2856
  6280 ;; Registers used:
  6281 ;;		wreg, fsr0l, fsr0h, fsr1l, fsr1h, status,2, status,0, pclath, cstack
  6282 ;; Tracked objects:
  6283 ;;		On entry : 0/0
  6284 ;;		On exit  : 0/0
  6285 ;;		Unchanged: 0/0
  6286 ;; Data sizes:     COMMON   BANK0   BANK1   BANK2   BANK3   BANK4   BANK5   BANK6
  6287 ;;      Params:         1       0       0       0       0       0       0       0
  6288 ;;      Locals:         0      13       0       0       0       0       0       0
  6289 ;;      Temps:          0       1       0       0       0       0       0       0
  6290 ;;      Totals:         1      14       0       0       0       0       0       0
  6291 ;;Total ram usage:       15 bytes
  6292 ;; Hardware stack levels used:    1
  6293 ;; Hardware stack levels required when called:    6
  6294 ;; This function calls:
  6295 ;;		_MTOUCH_Sensor_Scan_Initialize
  6296 ;;		_Sensor_autoCalibration
  6297 ;;		_Sensor_isActive
  6298 ;;		_Sensor_isCalibrated
  6299 ;;		_Sensor_isEnabled
  6300 ;;		_Sensor_loadADCSettings
  6301 ;;		_TMR2_LoadPeriodRegister
  6302 ;;		_TMR2_StartTimer
  6303 ;;		_TMR2_StopTimer
  6304 ;;		_abs
  6305 ;; This function is called by:
  6306 ;;		_Sensor_Acquisition
  6307 ;;		_Sensor_Scanfrequency_Evaluation
  6308 ;; This function uses a non-reentrant model
  6309 ;;
  6310                           
  6311                           
  6312                           ;psect for function _Sensor_Acq_ExecutePacket
  6313  005C                     _Sensor_Acq_ExecutePacket:	
  6314                           
  6315                           ;incstack = 0
  6316                           ; Regs used in _Sensor_Acq_ExecutePacket: [wreg-fsr1h+status,2+status,0+pclath+cstack]
  6317                           ;Sensor_Acq_ExecutePacket@sensor_adc1 stored from wreg
  6318  005C  0020               	movlb	0	; select bank0
  6319  005D  00AD               	movwf	Sensor_Acq_ExecutePacket@sensor_adc1
  6320  005E                     l3842:	
  6321                           
  6322                           ;mcc_generated_files/mtouch/mtouch_sensor.c: 457:     mtouch_sensor_packetcounter_t pack
      +                          et_counter;;mcc_generated_files/mtouch/mtouch_sensor.c: 459:     mtouch_sensor_adcsample
      +                          _t last_a = 0;
  6323  005E  01A8               	clrf	Sensor_Acq_ExecutePacket@last_a
  6324  005F  01A9               	clrf	Sensor_Acq_ExecutePacket@last_a+1
  6325                           
  6326                           ;mcc_generated_files/mtouch/mtouch_sensor.c: 460:     mtouch_sensor_adcsample_t last_b =
      +                           0;
  6327  0060  01AA               	clrf	Sensor_Acq_ExecutePacket@last_b
  6328  0061  01AB               	clrf	Sensor_Acq_ExecutePacket@last_b+1
  6329                           
  6330                           ;mcc_generated_files/mtouch/mtouch_sensor.c: 461:     uint8_t activeSensor = 0;
  6331  0062  01A7               	clrf	Sensor_Acq_ExecutePacket@activeSensor
  6332                           
  6333                           ;mcc_generated_files/mtouch/mtouch_sensor.c: 463:     uint8_t ADCOMCON_temp;;mcc_generat
      +                          ed_files/mtouch/mtouch_sensor.c: 464:     uint8_t AD1CON2_temp,AD2CON2_temp;;mcc_generat
      +                          ed_files/mtouch/mtouch_sensor.c: 470:     uint8_t sensor1ForceEnabled = 0, sensor2ForceE
      +                          nabled = 0;
  6334  0063  01A4               	clrf	Sensor_Acq_ExecutePacket@sensor1ForceEnabled
  6335  0064  01A5               	clrf	Sensor_Acq_ExecutePacket@sensor2ForceEnabled
  6336  0065                     l3844:	
  6337                           
  6338                           ;mcc_generated_files/mtouch/mtouch_sensor.c: 471:     if(sensor_adc1 != ((void*)0) && se
      +                          nsor_adc2 != ((void*)0))
  6339  0065  082D               	movf	Sensor_Acq_ExecutePacket@sensor_adc1,w
  6340  0066  1903               	btfsc	3,2
  6341  0067  2869               	goto	u3281
  6342  0068  286A               	goto	u3280
  6343  0069                     u3281:	
  6344  0069  28B2               	goto	l3874
  6345  006A                     u3280:	
  6346  006A                     l3846:	
  6347  006A  087B               	movf	Sensor_Acq_ExecutePacket@sensor_adc2,w
  6348  006B  1903               	btfsc	3,2
  6349  006C  286E               	goto	u3291
  6350  006D  286F               	goto	u3290
  6351  006E                     u3291:	
  6352  006E  28B2               	goto	l3874
  6353  006F                     u3290:	
  6354  006F                     l3848:	
  6355                           
  6356                           ;mcc_generated_files/mtouch/mtouch_sensor.c: 472:     {;mcc_generated_files/mtouch/mtouc
      +                          h_sensor.c: 473:         if (sensor_adc1->enabled == 0 && sensor_adc2->enabled == 1)
  6357  006F  082D               	movf	Sensor_Acq_ExecutePacket@sensor_adc1,w
  6358  0070  3E08               	addlw	8
  6359  0071  0086               	movwf	6
  6360  0072  0187               	clrf	7
  6361  0073  1981               	btfsc	1,3
  6362  0074  2876               	goto	u3301
  6363  0075  2877               	goto	u3300
  6364  0076                     u3301:	
  6365  0076  2887               	goto	l3856
  6366  0077                     u3300:	
  6367  0077                     l3850:	
  6368  0077  087B               	movf	Sensor_Acq_ExecutePacket@sensor_adc2,w
  6369  0078  3E08               	addlw	8
  6370  0079  0086               	movwf	6
  6371  007A  0187               	clrf	7
  6372  007B  1D81               	btfss	1,3
  6373  007C  287E               	goto	u3311
  6374  007D  287F               	goto	u3310
  6375  007E                     u3311:	
  6376  007E  2887               	goto	l3856
  6377  007F                     u3310:	
  6378  007F                     l3852:	
  6379                           
  6380                           ;mcc_generated_files/mtouch/mtouch_sensor.c: 474:         {;mcc_generated_files/mtouch/m
      +                          touch_sensor.c: 475:             sensor_adc1->enabled = 1;
  6381  007F  082D               	movf	Sensor_Acq_ExecutePacket@sensor_adc1,w
  6382  0080  3E08               	addlw	8
  6383  0081  0086               	movwf	6
  6384  0082  0187               	clrf	7
  6385  0083  1581               	bsf	1,3
  6386  0084                     l3854:	
  6387                           
  6388                           ;mcc_generated_files/mtouch/mtouch_sensor.c: 476:             sensor1ForceEnabled = 1;
  6389  0084  01A4               	clrf	Sensor_Acq_ExecutePacket@sensor1ForceEnabled
  6390  0085  0AA4               	incf	Sensor_Acq_ExecutePacket@sensor1ForceEnabled,f
  6391                           
  6392                           ;mcc_generated_files/mtouch/mtouch_sensor.c: 477:         }
  6393  0086  28D8               	goto	l3898
  6394  0087                     l3856:	
  6395  0087  087B               	movf	Sensor_Acq_ExecutePacket@sensor_adc2,w
  6396  0088  3E08               	addlw	8
  6397  0089  0086               	movwf	6
  6398  008A  0187               	clrf	7
  6399  008B  1981               	btfsc	1,3
  6400  008C  288E               	goto	u3321
  6401  008D  288F               	goto	u3320
  6402  008E                     u3321:	
  6403  008E  289F               	goto	l3864
  6404  008F                     u3320:	
  6405  008F                     l3858:	
  6406  008F  082D               	movf	Sensor_Acq_ExecutePacket@sensor_adc1,w
  6407  0090  3E08               	addlw	8
  6408  0091  0086               	movwf	6
  6409  0092  0187               	clrf	7
  6410  0093  1D81               	btfss	1,3
  6411  0094  2896               	goto	u3331
  6412  0095  2897               	goto	u3330
  6413  0096                     u3331:	
  6414  0096  289F               	goto	l3864
  6415  0097                     u3330:	
  6416  0097                     l3860:	
  6417                           
  6418                           ;mcc_generated_files/mtouch/mtouch_sensor.c: 479:         {;mcc_generated_files/mtouch/m
      +                          touch_sensor.c: 480:             sensor_adc2->enabled = 1;
  6419  0097  087B               	movf	Sensor_Acq_ExecutePacket@sensor_adc2,w
  6420  0098  3E08               	addlw	8
  6421  0099  0086               	movwf	6
  6422  009A  0187               	clrf	7
  6423  009B  1581               	bsf	1,3
  6424  009C                     l3862:	
  6425                           
  6426                           ;mcc_generated_files/mtouch/mtouch_sensor.c: 481:             sensor2ForceEnabled = 1;
  6427  009C  01A5               	clrf	Sensor_Acq_ExecutePacket@sensor2ForceEnabled
  6428  009D  0AA5               	incf	Sensor_Acq_ExecutePacket@sensor2ForceEnabled,f
  6429                           
  6430                           ;mcc_generated_files/mtouch/mtouch_sensor.c: 482:         }
  6431  009E  28D8               	goto	l3898
  6432  009F                     l3864:	
  6433  009F  082D               	movf	Sensor_Acq_ExecutePacket@sensor_adc1,w
  6434  00A0  3E08               	addlw	8
  6435  00A1  0086               	movwf	6
  6436  00A2  0187               	clrf	7
  6437  00A3  1981               	btfsc	1,3
  6438  00A4  28A6               	goto	u3341
  6439  00A5  28A7               	goto	u3340
  6440  00A6                     u3341:	
  6441  00A6  28B1               	goto	l220
  6442  00A7                     u3340:	
  6443  00A7                     l3866:	
  6444  00A7  087B               	movf	Sensor_Acq_ExecutePacket@sensor_adc2,w
  6445  00A8  3E08               	addlw	8
  6446  00A9  0086               	movwf	6
  6447  00AA  0187               	clrf	7
  6448  00AB  1981               	btfsc	1,3
  6449  00AC  28AE               	goto	u3351
  6450  00AD  28AF               	goto	u3350
  6451  00AE                     u3351:	
  6452  00AE  28B1               	goto	l220
  6453  00AF                     u3350:	
  6454  00AF                     l3868:	
  6455                           
  6456                           ;mcc_generated_files/mtouch/mtouch_sensor.c: 484:         {;mcc_generated_files/mtouch/m
      +                          touch_sensor.c: 485:             return MTOUCH_SENSOR_ERROR_none;
  6457  00AF  3000               	movlw	0
  6458  00B0  2A7F               	goto	l224
  6459  00B1                     l220:	
  6460                           
  6461                           ;mcc_generated_files/mtouch/mtouch_sensor.c: 490:     }
  6462  00B1  28D8               	goto	l3898
  6463  00B2                     l3874:	
  6464  00B2  082D               	movf	Sensor_Acq_ExecutePacket@sensor_adc1,w
  6465  00B3  1D03               	btfss	3,2
  6466  00B4  28B6               	goto	u3361
  6467  00B5  28B7               	goto	u3360
  6468  00B6                     u3361:	
  6469  00B6  28C5               	goto	l3886
  6470  00B7                     u3360:	
  6471  00B7                     l3876:	
  6472  00B7  087B               	movf	Sensor_Acq_ExecutePacket@sensor_adc2,w
  6473  00B8  1903               	btfsc	3,2
  6474  00B9  28BB               	goto	u3371
  6475  00BA  28BC               	goto	u3370
  6476  00BB                     u3371:	
  6477  00BB  28C5               	goto	l3886
  6478  00BC                     u3370:	
  6479  00BC                     l3878:	
  6480                           
  6481                           ;mcc_generated_files/mtouch/mtouch_sensor.c: 492:     {;mcc_generated_files/mtouch/mtouc
      +                          h_sensor.c: 493:         if(sensor_adc2->enabled == 0)
  6482  00BC  087B               	movf	Sensor_Acq_ExecutePacket@sensor_adc2,w
  6483  00BD  3E08               	addlw	8
  6484  00BE  0086               	movwf	6
  6485  00BF  0187               	clrf	7
  6486  00C0  1981               	btfsc	1,3
  6487  00C1  28C3               	goto	u3381
  6488  00C2  28C4               	goto	u3380
  6489  00C3                     u3381:	
  6490  00C3  28D8               	goto	l3898
  6491  00C4                     u3380:	
  6492  00C4  28AF               	goto	l3868
  6493  00C5                     l3886:	
  6494  00C5  082D               	movf	Sensor_Acq_ExecutePacket@sensor_adc1,w
  6495  00C6  1903               	btfsc	3,2
  6496  00C7  28C9               	goto	u3391
  6497  00C8  28CA               	goto	u3390
  6498  00C9                     u3391:	
  6499  00C9  28D8               	goto	l3898
  6500  00CA                     u3390:	
  6501  00CA                     l3888:	
  6502  00CA  087B               	movf	Sensor_Acq_ExecutePacket@sensor_adc2,w
  6503  00CB  1D03               	btfss	3,2
  6504  00CC  28CE               	goto	u3401
  6505  00CD  28CF               	goto	u3400
  6506  00CE                     u3401:	
  6507  00CE  28D8               	goto	l3898
  6508  00CF                     u3400:	
  6509  00CF                     l3890:	
  6510                           
  6511                           ;mcc_generated_files/mtouch/mtouch_sensor.c: 502:     {;mcc_generated_files/mtouch/mtouc
      +                          h_sensor.c: 503:         if(sensor_adc1->enabled == 0)
  6512  00CF  082D               	movf	Sensor_Acq_ExecutePacket@sensor_adc1,w
  6513  00D0  3E08               	addlw	8
  6514  00D1  0086               	movwf	6
  6515  00D2  0187               	clrf	7
  6516  00D3  1981               	btfsc	1,3
  6517  00D4  28D6               	goto	u3411
  6518  00D5  28D7               	goto	u3410
  6519  00D6                     u3411:	
  6520  00D6  28D8               	goto	l3898
  6521  00D7                     u3410:	
  6522  00D7  28AF               	goto	l3868
  6523  00D8                     l3898:	
  6524                           
  6525                           ;mcc_generated_files/mtouch/mtouch_sensor.c: 515:     if(Sensor_isActive(sensor_adc2))
  6526  00D8  087B               	movf	Sensor_Acq_ExecutePacket@sensor_adc2,w
  6527  00D9  318A  223D  3180   	fcall	_Sensor_isActive
  6528  00DC  3A00               	xorlw	0
  6529  00DD  1903               	skipnz
  6530  00DE  28E0               	goto	u3421
  6531  00DF  28E1               	goto	u3420
  6532  00E0                     u3421:	
  6533  00E0  28E4               	goto	l3902
  6534  00E1                     u3420:	
  6535  00E1                     l3900:	
  6536                           
  6537                           ;mcc_generated_files/mtouch/mtouch_sensor.c: 516:         activeSensor = 1;
  6538  00E1  0020               	movlb	0	; select bank0
  6539  00E2  01A7               	clrf	Sensor_Acq_ExecutePacket@activeSensor
  6540  00E3  0AA7               	incf	Sensor_Acq_ExecutePacket@activeSensor,f
  6541  00E4                     l3902:	
  6542                           
  6543                           ;mcc_generated_files/mtouch/mtouch_sensor.c: 522:     ADCOMCON_temp = ADCOMCON;
  6544  00E4  002E               	movlb	14	; select bank14
  6545  00E5  0812               	movf	18,w	;volatile
  6546  00E6  0020               	movlb	0	; select bank0
  6547  00E7  00A0               	movwf	??_Sensor_Acq_ExecutePacket
  6548  00E8  0820               	movf	??_Sensor_Acq_ExecutePacket,w
  6549  00E9  00A1               	movwf	Sensor_Acq_ExecutePacket@ADCOMCON_temp
  6550                           
  6551                           ;mcc_generated_files/mtouch/mtouch_sensor.c: 523:     AD1CON2_temp = AD1CON2;
  6552  00EA  002E               	movlb	14	; select bank14
  6553  00EB  0813               	movf	19,w	;volatile
  6554  00EC  0020               	movlb	0	; select bank0
  6555  00ED  00A0               	movwf	??_Sensor_Acq_ExecutePacket
  6556  00EE  0820               	movf	??_Sensor_Acq_ExecutePacket,w
  6557  00EF  00A2               	movwf	Sensor_Acq_ExecutePacket@AD1CON2_temp
  6558                           
  6559                           ;mcc_generated_files/mtouch/mtouch_sensor.c: 524:     AD2CON2_temp = AD2CON2;
  6560  00F0  002F               	movlb	15	; select bank15
  6561  00F1  0813               	movf	19,w	;volatile
  6562  00F2  0020               	movlb	0	; select bank0
  6563  00F3  00A0               	movwf	??_Sensor_Acq_ExecutePacket
  6564  00F4  0820               	movf	??_Sensor_Acq_ExecutePacket,w
  6565  00F5  00A3               	movwf	Sensor_Acq_ExecutePacket@AD2CON2_temp
  6566  00F6                     l3904:	
  6567                           
  6568                           ;mcc_generated_files/mtouch/mtouch_sensor.c: 525:     MTOUCH_Sensor_Scan_Initialize();
  6569  00F6  318A  226A  3180   	fcall	_MTOUCH_Sensor_Scan_Initialize
  6570  00F9                     l3906:	
  6571                           
  6572                           ;mcc_generated_files/mtouch/mtouch_sensor.c: 529:     if(sensor_adc1!=((void*)0))
  6573  00F9  0020               	movlb	0	; select bank0
  6574  00FA  082D               	movf	Sensor_Acq_ExecutePacket@sensor_adc1,w
  6575  00FB  1903               	btfsc	3,2
  6576  00FC  28FE               	goto	u3431
  6577  00FD  28FF               	goto	u3430
  6578  00FE                     u3431:	
  6579  00FE  2911               	goto	l3918
  6580  00FF                     u3430:	
  6581  00FF                     l3908:	
  6582                           
  6583                           ;mcc_generated_files/mtouch/mtouch_sensor.c: 530:     {;mcc_generated_files/mtouch/mtouc
      +                          h_sensor.c: 531:         packet_counter = (mtouch_sensor_packetcounter_t)(sensor_adc1->o
      +                          versampling-(mtouch_sensor_packetcounter_t)1);
  6584  00FF  082D               	movf	Sensor_Acq_ExecutePacket@sensor_adc1,w
  6585  0100  3E04               	addlw	4
  6586  0101  0086               	movwf	6
  6587  0102  0187               	clrf	7
  6588  0103  0801               	movf	1,w
  6589  0104  3EFF               	addlw	255
  6590  0105  00A0               	movwf	??_Sensor_Acq_ExecutePacket
  6591  0106  0820               	movf	??_Sensor_Acq_ExecutePacket,w
  6592  0107  00AC               	movwf	Sensor_Acq_ExecutePacket@packet_counter
  6593  0108                     l3910:	
  6594                           
  6595                           ;mcc_generated_files/mtouch/mtouch_sensor.c: 532:         ADxIF_flag = 0;
  6596  0108  01A6               	clrf	Sensor_Acq_ExecutePacket@ADxIF_flag
  6597  0109                     l3912:	
  6598                           
  6599                           ;mcc_generated_files/mtouch/mtouch_sensor.c: 533:         AAD1GRD = 0b01000000;
  6600  0109  3040               	movlw	64
  6601  010A  002E               	movlb	14	; select bank14
  6602  010B  0098               	movwf	24	;volatile
  6603  010C                     l3914:	
  6604                           
  6605                           ;mcc_generated_files/mtouch/mtouch_sensor.c: 534:         AAD2GRD = 0b00000000;
  6606  010C  002F               	movlb	15	; select bank15
  6607  010D  0198               	clrf	24	;volatile
  6608  010E                     l3916:	
  6609                           
  6610                           ;mcc_generated_files/mtouch/mtouch_sensor.c: 535:         APFCONbits.GRDASEL = 0x0;
  6611  010E  0022               	movlb	2	; select bank2
  6612  010F  101D               	bcf	29,0	;volatile
  6613                           
  6614                           ;mcc_generated_files/mtouch/mtouch_sensor.c: 536:     }
  6615  0110  2923               	goto	l3928
  6616  0111                     l3918:	
  6617                           
  6618                           ;mcc_generated_files/mtouch/mtouch_sensor.c: 538:     {;mcc_generated_files/mtouch/mtouc
      +                          h_sensor.c: 539:         packet_counter = (mtouch_sensor_packetcounter_t)(sensor_adc2->o
      +                          versampling-(mtouch_sensor_packetcounter_t)1);
  6619  0111  087B               	movf	Sensor_Acq_ExecutePacket@sensor_adc2,w
  6620  0112  3E04               	addlw	4
  6621  0113  0086               	movwf	6
  6622  0114  0187               	clrf	7
  6623  0115  0801               	movf	1,w
  6624  0116  3EFF               	addlw	255
  6625  0117  00A0               	movwf	??_Sensor_Acq_ExecutePacket
  6626  0118  0820               	movf	??_Sensor_Acq_ExecutePacket,w
  6627  0119  00AC               	movwf	Sensor_Acq_ExecutePacket@packet_counter
  6628  011A                     l3920:	
  6629                           
  6630                           ;mcc_generated_files/mtouch/mtouch_sensor.c: 540:         ADxIF_flag = 1;
  6631  011A  01A6               	clrf	Sensor_Acq_ExecutePacket@ADxIF_flag
  6632  011B  0AA6               	incf	Sensor_Acq_ExecutePacket@ADxIF_flag,f
  6633  011C                     l3922:	
  6634                           
  6635                           ;mcc_generated_files/mtouch/mtouch_sensor.c: 541:         AAD1GRD = 0b00000000;
  6636  011C  002E               	movlb	14	; select bank14
  6637  011D  0198               	clrf	24	;volatile
  6638  011E                     l3924:	
  6639                           
  6640                           ;mcc_generated_files/mtouch/mtouch_sensor.c: 542:         AAD2GRD = 0b01000000;
  6641  011E  3040               	movlw	64
  6642  011F  002F               	movlb	15	; select bank15
  6643  0120  0098               	movwf	24	;volatile
  6644  0121                     l3926:	
  6645                           
  6646                           ;mcc_generated_files/mtouch/mtouch_sensor.c: 543:         APFCONbits.GRDASEL = 0x1;
  6647  0121  0022               	movlb	2	; select bank2
  6648  0122  141D               	bsf	29,0	;volatile
  6649  0123                     l3928:	
  6650                           
  6651                           ;mcc_generated_files/mtouch/mtouch_sensor.c: 546:     Sensor_loadADCSettings(sensor_adc1
      +                          ,0);
  6652  0123  01F2               	clrf	Sensor_loadADCSettings@adc_index
  6653  0124  0020               	movlb	0	; select bank0
  6654  0125  082D               	movf	Sensor_Acq_ExecutePacket@sensor_adc1,w
  6655  0126  3184  2463  3180   	fcall	_Sensor_loadADCSettings
  6656  0129                     l3930:	
  6657                           
  6658                           ;mcc_generated_files/mtouch/mtouch_sensor.c: 547:     Sensor_loadADCSettings(sensor_adc2
      +                          ,1);
  6659  0129  01F2               	clrf	Sensor_loadADCSettings@adc_index
  6660  012A  0AF2               	incf	Sensor_loadADCSettings@adc_index,f
  6661  012B  087B               	movf	Sensor_Acq_ExecutePacket@sensor_adc2,w
  6662  012C  3184  2463  3180   	fcall	_Sensor_loadADCSettings
  6663  012F                     l3932:	
  6664                           
  6665                           ;mcc_generated_files/mtouch/mtouch_sensor.c: 549:     sensor_globalFlags.done = 0;
  6666  012F  0020               	movlb	0	; select bank0
  6667  0130  1056               	bcf	_sensor_globalFlags,0	;volatile
  6668  0131                     l3934:	
  6669                           
  6670                           ;mcc_generated_files/mtouch/mtouch_sensor.c: 550:     sensor_globalFlags.error = 0;
  6671  0131  1156               	bcf	_sensor_globalFlags,2	;volatile
  6672  0132                     l3936:	
  6673                           
  6674                           ;mcc_generated_files/mtouch/mtouch_sensor.c: 551:     sensor_globalFlags.interrupted = 0
      +                          ;
  6675  0132  11D6               	bcf	_sensor_globalFlags,3	;volatile
  6676  0133                     l3938:	
  6677                           
  6678                           ;mcc_generated_files/mtouch/mtouch_sensor.c: 553:     TMR2_LoadPeriodRegister(sample_per
      +                          iod);
  6679  0133  086F               	movf	_sample_period,w
  6680  0134  3189  2190  3180   	fcall	_TMR2_LoadPeriodRegister
  6681  0137                     l3940:	
  6682                           
  6683                           ;mcc_generated_files/mtouch/mtouch_sensor.c: 554:     TMR2_StartTimer();
  6684  0137  3189  216E  3180   	fcall	_TMR2_StartTimer
  6685  013A                     l3942:	
  6686                           
  6687                           ;mcc_generated_files/mtouch/mtouch_sensor.c: 555:     packet_noise = 0;
  6688  013A  0020               	movlb	0	; select bank0
  6689  013B  01CE               	clrf	_packet_noise
  6690  013C  01CF               	clrf	_packet_noise+1
  6691  013D                     l3944:	
  6692                           
  6693                           ;mcc_generated_files/mtouch/mtouch_sensor.c: 558:     {;mcc_generated_files/mtouch/mtouc
      +                          h_sensor.c: 559:         if(ADxIF_flag == 0)
  6694  013D  0826               	movf	Sensor_Acq_ExecutePacket@ADxIF_flag,w
  6695  013E  1D03               	btfss	3,2
  6696  013F  2941               	goto	u3441
  6697  0140  2942               	goto	u3440
  6698  0141                     u3441:	
  6699  0141  294D               	goto	l240
  6700  0142                     u3440:	
  6701  0142                     l3946:	
  6702                           
  6703                           ;mcc_generated_files/mtouch/mtouch_sensor.c: 560:         {;mcc_generated_files/mtouch/m
      +                          touch_sensor.c: 561:             if (PIR1bits.AD1IF == 0) { sensor_globalFlags.check = 0
      +                          ; }
  6704  0142  1B11               	btfsc	17,6	;volatile
  6705  0143  2945               	goto	u3451
  6706  0144  2946               	goto	u3450
  6707  0145                     u3451:	
  6708  0145  2947               	goto	l242
  6709  0146                     u3450:	
  6710  0146                     l3948:	
  6711  0146  10D6               	bcf	_sensor_globalFlags,1	;volatile
  6712  0147                     l242:	
  6713  0147  1F11               	btfss	17,6	;volatile
  6714  0148  294A               	goto	u3461
  6715  0149  294B               	goto	u3460
  6716  014A                     u3461:	
  6717  014A  2947               	goto	l242
  6718  014B                     u3460:	
  6719  014B                     l244:	
  6720                           
  6721                           ;mcc_generated_files/mtouch/mtouch_sensor.c: 563:             PIR1bits.AD1IF = 0;
  6722  014B  1311               	bcf	17,6	;volatile
  6723                           
  6724                           ;mcc_generated_files/mtouch/mtouch_sensor.c: 564:         }
  6725  014C  2957               	goto	l3952
  6726  014D                     l240:	
  6727                           ;mcc_generated_files/mtouch/mtouch_sensor.c: 565:         else
  6728                           
  6729                           
  6730                           ;mcc_generated_files/mtouch/mtouch_sensor.c: 566:         {;mcc_generated_files/mtouch/m
      +                          touch_sensor.c: 567:             if (PIR2bits.AD2IF == 0) { sensor_globalFlags.check = 0
      +                          ; }
  6731  014D  1B12               	btfsc	18,6	;volatile
  6732  014E  2950               	goto	u3471
  6733  014F  2951               	goto	u3470
  6734  0150                     u3471:	
  6735  0150  2952               	goto	l247
  6736  0151                     u3470:	
  6737  0151                     l3950:	
  6738  0151  10D6               	bcf	_sensor_globalFlags,1	;volatile
  6739  0152                     l247:	
  6740  0152  1F12               	btfss	18,6	;volatile
  6741  0153  2955               	goto	u3481
  6742  0154  2956               	goto	u3480
  6743  0155                     u3481:	
  6744  0155  2952               	goto	l247
  6745  0156                     u3480:	
  6746  0156                     l249:	
  6747                           
  6748                           ;mcc_generated_files/mtouch/mtouch_sensor.c: 569:             PIR2bits.AD2IF = 0;
  6749  0156  1312               	bcf	18,6	;volatile
  6750  0157                     l3952:	
  6751                           
  6752                           ;mcc_generated_files/mtouch/mtouch_sensor.c: 572:         AAD1GRD ^= 0b00100001;
  6753  0157  3021               	movlw	33
  6754  0158  00A0               	movwf	??_Sensor_Acq_ExecutePacket
  6755  0159  0820               	movf	??_Sensor_Acq_ExecutePacket,w
  6756  015A  002E               	movlb	14	; select bank14
  6757  015B  0698               	xorwf	24,f	;volatile
  6758                           
  6759                           ;mcc_generated_files/mtouch/mtouch_sensor.c: 573:         AAD2GRD ^= 0b00100001;
  6760  015C  3021               	movlw	33
  6761  015D  0020               	movlb	0	; select bank0
  6762  015E  00A0               	movwf	??_Sensor_Acq_ExecutePacket
  6763  015F  0820               	movf	??_Sensor_Acq_ExecutePacket,w
  6764  0160  002F               	movlb	15	; select bank15
  6765  0161  0698               	xorwf	24,f	;volatile
  6766                           
  6767                           ;mcc_generated_files/mtouch/mtouch_sensor.c: 574:         AAD1CON3 ^= 0b11000000;
  6768  0162  30C0               	movlw	192
  6769  0163  0020               	movlb	0	; select bank0
  6770  0164  00A0               	movwf	??_Sensor_Acq_ExecutePacket
  6771  0165  0820               	movf	??_Sensor_Acq_ExecutePacket,w
  6772  0166  002E               	movlb	14	; select bank14
  6773  0167  0694               	xorwf	20,f	;volatile
  6774                           
  6775                           ;mcc_generated_files/mtouch/mtouch_sensor.c: 575:         AAD2CON3 ^= 0b11000000;
  6776  0168  30C0               	movlw	192
  6777  0169  0020               	movlb	0	; select bank0
  6778  016A  00A0               	movwf	??_Sensor_Acq_ExecutePacket
  6779  016B  0820               	movf	??_Sensor_Acq_ExecutePacket,w
  6780  016C  002F               	movlb	15	; select bank15
  6781  016D  0694               	xorwf	20,f	;volatile
  6782  016E                     l3954:	
  6783                           
  6784                           ;mcc_generated_files/mtouch/mtouch_sensor.c: 577:         if ((packet_counter & 0x01) ==
      +                           0)
  6785  016E  0020               	movlb	0	; select bank0
  6786  016F  182C               	btfsc	Sensor_Acq_ExecutePacket@packet_counter,0
  6787  0170  2972               	goto	u3491
  6788  0171  2973               	goto	u3490
  6789  0172                     u3491:	
  6790  0172  29BE               	goto	l3968
  6791  0173                     u3490:	
  6792  0173                     l3956:	
  6793                           
  6794                           ;mcc_generated_files/mtouch/mtouch_sensor.c: 578:         {;mcc_generated_files/mtouch/m
      +                          touch_sensor.c: 579:             packet_sample[0] += AAD1RES0;
  6795  0173  002E               	movlb	14	; select bank14
  6796  0174  081A               	movf	26,w	;volatile
  6797  0175  0020               	movlb	0	; select bank0
  6798  0176  07CA               	addwf	_packet_sample,f
  6799  0177  002E               	movlb	14	; select bank14
  6800  0178  081B               	movf	27,w	;volatile
  6801  0179  0020               	movlb	0	; select bank0
  6802  017A  3DCB               	addwfc	_packet_sample+1,f
  6803                           
  6804                           ;mcc_generated_files/mtouch/mtouch_sensor.c: 580:             packet_sample[1] += AAD2RE
      +                          S0;
  6805  017B  002F               	movlb	15	; select bank15
  6806  017C  081A               	movf	26,w	;volatile
  6807  017D  0020               	movlb	0	; select bank0
  6808  017E  07CC               	addwf	_packet_sample+2,f
  6809  017F  002F               	movlb	15	; select bank15
  6810  0180  081B               	movf	27,w	;volatile
  6811  0181  0020               	movlb	0	; select bank0
  6812  0182  3DCD               	addwfc	_packet_sample+3,f
  6813  0183                     l3958:	
  6814                           
  6815                           ;mcc_generated_files/mtouch/mtouch_sensor.c: 581:             if(activeSensor ==0)
  6816  0183  0827               	movf	Sensor_Acq_ExecutePacket@activeSensor,w
  6817  0184  1D03               	btfss	3,2
  6818  0185  2987               	goto	u3501
  6819  0186  2988               	goto	u3500
  6820  0187                     u3501:	
  6821  0187  29A3               	goto	l3964
  6822  0188                     u3500:	
  6823  0188                     l3960:	
  6824                           
  6825                           ;mcc_generated_files/mtouch/mtouch_sensor.c: 582:             {;mcc_generated_files/mtou
      +                          ch/mtouch_sensor.c: 583:                 packet_noise += (mtouch_sensor_packetsample_t)a
      +                          bs(last_b-AAD1RES0);
  6826  0188  002E               	movlb	14	; select bank14
  6827  0189  081A               	movf	26,w	;volatile
  6828  018A  0020               	movlb	0	; select bank0
  6829  018B  022A               	subwf	Sensor_Acq_ExecutePacket@last_b,w
  6830  018C  00F1               	movwf	abs@a
  6831  018D  002E               	movlb	14	; select bank14
  6832  018E  081B               	movf	27,w	;volatile
  6833  018F  0020               	movlb	0	; select bank0
  6834  0190  3B2B               	subwfb	Sensor_Acq_ExecutePacket@last_b+1,w
  6835  0191  00F2               	movwf	abs@a+1
  6836  0192  318B  238D  3180   	fcall	_abs
  6837  0195  0871               	movf	?_abs,w
  6838  0196  0020               	movlb	0	; select bank0
  6839  0197  07CE               	addwf	_packet_noise,f
  6840  0198  0872               	movf	?_abs+1,w
  6841  0199  3DCF               	addwfc	_packet_noise+1,f
  6842  019A                     l3962:	
  6843                           
  6844                           ;mcc_generated_files/mtouch/mtouch_sensor.c: 584:                 last_b = AAD1RES0;
  6845  019A  002E               	movlb	14	; select bank14
  6846  019B  081B               	movf	27,w	;volatile
  6847  019C  0020               	movlb	0	; select bank0
  6848  019D  00AB               	movwf	Sensor_Acq_ExecutePacket@last_b+1
  6849  019E  002E               	movlb	14	; select bank14
  6850  019F  081A               	movf	26,w	;volatile
  6851  01A0  0020               	movlb	0	; select bank0
  6852  01A1  00AA               	movwf	Sensor_Acq_ExecutePacket@last_b
  6853                           
  6854                           ;mcc_generated_files/mtouch/mtouch_sensor.c: 585:             }
  6855  01A2  2A01               	goto	l3980
  6856  01A3                     l3964:	
  6857                           
  6858                           ;mcc_generated_files/mtouch/mtouch_sensor.c: 587:             {;mcc_generated_files/mtou
      +                          ch/mtouch_sensor.c: 588:                 packet_noise += (mtouch_sensor_packetsample_t)a
      +                          bs(last_b-AAD2RES0);
  6859  01A3  002F               	movlb	15	; select bank15
  6860  01A4  081A               	movf	26,w	;volatile
  6861  01A5  0020               	movlb	0	; select bank0
  6862  01A6  022A               	subwf	Sensor_Acq_ExecutePacket@last_b,w
  6863  01A7  00F1               	movwf	abs@a
  6864  01A8  002F               	movlb	15	; select bank15
  6865  01A9  081B               	movf	27,w	;volatile
  6866  01AA  0020               	movlb	0	; select bank0
  6867  01AB  3B2B               	subwfb	Sensor_Acq_ExecutePacket@last_b+1,w
  6868  01AC  00F2               	movwf	abs@a+1
  6869  01AD  318B  238D  3180   	fcall	_abs
  6870  01B0  0871               	movf	?_abs,w
  6871  01B1  0020               	movlb	0	; select bank0
  6872  01B2  07CE               	addwf	_packet_noise,f
  6873  01B3  0872               	movf	?_abs+1,w
  6874  01B4  3DCF               	addwfc	_packet_noise+1,f
  6875  01B5                     l3966:	
  6876                           
  6877                           ;mcc_generated_files/mtouch/mtouch_sensor.c: 589:                 last_b = AAD2RES0;
  6878  01B5  002F               	movlb	15	; select bank15
  6879  01B6  081B               	movf	27,w	;volatile
  6880  01B7  0020               	movlb	0	; select bank0
  6881  01B8  00AB               	movwf	Sensor_Acq_ExecutePacket@last_b+1
  6882  01B9  002F               	movlb	15	; select bank15
  6883  01BA  081A               	movf	26,w	;volatile
  6884  01BB  0020               	movlb	0	; select bank0
  6885  01BC  00AA               	movwf	Sensor_Acq_ExecutePacket@last_b
  6886  01BD  2A01               	goto	l3980
  6887  01BE                     l3968:	
  6888                           
  6889                           ;mcc_generated_files/mtouch/mtouch_sensor.c: 593:         {;mcc_generated_files/mtouch/m
      +                          touch_sensor.c: 594:             packet_sample[0] -= AAD1RES0;
  6890  01BE  002E               	movlb	14	; select bank14
  6891  01BF  081A               	movf	26,w	;volatile
  6892  01C0  0020               	movlb	0	; select bank0
  6893  01C1  02CA               	subwf	_packet_sample,f
  6894  01C2  002E               	movlb	14	; select bank14
  6895  01C3  081B               	movf	27,w	;volatile
  6896  01C4  0020               	movlb	0	; select bank0
  6897  01C5  3BCB               	subwfb	_packet_sample+1,f
  6898                           
  6899                           ;mcc_generated_files/mtouch/mtouch_sensor.c: 595:             packet_sample[1] -= AAD2RE
      +                          S0;
  6900  01C6  002F               	movlb	15	; select bank15
  6901  01C7  081A               	movf	26,w	;volatile
  6902  01C8  0020               	movlb	0	; select bank0
  6903  01C9  02CC               	subwf	_packet_sample+2,f
  6904  01CA  002F               	movlb	15	; select bank15
  6905  01CB  081B               	movf	27,w	;volatile
  6906  01CC  0020               	movlb	0	; select bank0
  6907  01CD  3BCD               	subwfb	_packet_sample+3,f
  6908  01CE                     l3970:	
  6909                           
  6910                           ;mcc_generated_files/mtouch/mtouch_sensor.c: 596:             if(activeSensor ==0)
  6911  01CE  0827               	movf	Sensor_Acq_ExecutePacket@activeSensor,w
  6912  01CF  1D03               	btfss	3,2
  6913  01D0  29D2               	goto	u3511
  6914  01D1  29D3               	goto	u3510
  6915  01D2                     u3511:	
  6916  01D2  29EE               	goto	l3976
  6917  01D3                     u3510:	
  6918  01D3                     l3972:	
  6919                           
  6920                           ;mcc_generated_files/mtouch/mtouch_sensor.c: 597:             {;mcc_generated_files/mtou
      +                          ch/mtouch_sensor.c: 598:                 packet_noise +=(mtouch_sensor_packetsample_t)ab
      +                          s(last_a-AAD1RES0);
  6921  01D3  002E               	movlb	14	; select bank14
  6922  01D4  081A               	movf	26,w	;volatile
  6923  01D5  0020               	movlb	0	; select bank0
  6924  01D6  0228               	subwf	Sensor_Acq_ExecutePacket@last_a,w
  6925  01D7  00F1               	movwf	abs@a
  6926  01D8  002E               	movlb	14	; select bank14
  6927  01D9  081B               	movf	27,w	;volatile
  6928  01DA  0020               	movlb	0	; select bank0
  6929  01DB  3B29               	subwfb	Sensor_Acq_ExecutePacket@last_a+1,w
  6930  01DC  00F2               	movwf	abs@a+1
  6931  01DD  318B  238D  3180   	fcall	_abs
  6932  01E0  0871               	movf	?_abs,w
  6933  01E1  0020               	movlb	0	; select bank0
  6934  01E2  07CE               	addwf	_packet_noise,f
  6935  01E3  0872               	movf	?_abs+1,w
  6936  01E4  3DCF               	addwfc	_packet_noise+1,f
  6937  01E5                     l3974:	
  6938                           
  6939                           ;mcc_generated_files/mtouch/mtouch_sensor.c: 599:                 last_a = AAD1RES0;
  6940  01E5  002E               	movlb	14	; select bank14
  6941  01E6  081B               	movf	27,w	;volatile
  6942  01E7  0020               	movlb	0	; select bank0
  6943  01E8  00A9               	movwf	Sensor_Acq_ExecutePacket@last_a+1
  6944  01E9  002E               	movlb	14	; select bank14
  6945  01EA  081A               	movf	26,w	;volatile
  6946  01EB  0020               	movlb	0	; select bank0
  6947  01EC  00A8               	movwf	Sensor_Acq_ExecutePacket@last_a
  6948                           
  6949                           ;mcc_generated_files/mtouch/mtouch_sensor.c: 600:             }
  6950  01ED  2A01               	goto	l3980
  6951  01EE                     l3976:	
  6952                           
  6953                           ;mcc_generated_files/mtouch/mtouch_sensor.c: 602:             {;mcc_generated_files/mtou
      +                          ch/mtouch_sensor.c: 603:                 packet_noise +=(mtouch_sensor_packetsample_t)ab
      +                          s(last_a-AAD2RES0);
  6954  01EE  002F               	movlb	15	; select bank15
  6955  01EF  081A               	movf	26,w	;volatile
  6956  01F0  0020               	movlb	0	; select bank0
  6957  01F1  0228               	subwf	Sensor_Acq_ExecutePacket@last_a,w
  6958  01F2  00F1               	movwf	abs@a
  6959  01F3  002F               	movlb	15	; select bank15
  6960  01F4  081B               	movf	27,w	;volatile
  6961  01F5  0020               	movlb	0	; select bank0
  6962  01F6  3B29               	subwfb	Sensor_Acq_ExecutePacket@last_a+1,w
  6963  01F7  00F2               	movwf	abs@a+1
  6964  01F8  318B  238D  3180   	fcall	_abs
  6965  01FB  0871               	movf	?_abs,w
  6966  01FC  0020               	movlb	0	; select bank0
  6967  01FD  07CE               	addwf	_packet_noise,f
  6968  01FE  0872               	movf	?_abs+1,w
  6969  01FF  3DCF               	addwfc	_packet_noise+1,f
  6970  0200  29E5               	goto	l3974
  6971  0201                     l3980:	
  6972                           
  6973                           ;mcc_generated_files/mtouch/mtouch_sensor.c: 609:         if (packet_counter == 0)
  6974  0201  082C               	movf	Sensor_Acq_ExecutePacket@packet_counter,w
  6975  0202  1D03               	btfss	3,2
  6976  0203  2A05               	goto	u3521
  6977  0204  2A06               	goto	u3520
  6978  0205                     u3521:	
  6979  0205  2A07               	goto	l3984
  6980  0206                     u3520:	
  6981  0206                     l3982:	
  6982                           
  6983                           ;mcc_generated_files/mtouch/mtouch_sensor.c: 610:         {;mcc_generated_files/mtouch/m
      +                          touch_sensor.c: 612:             sensor_globalFlags.done = (uint8_t)1;
  6984  0206  1456               	bsf	_sensor_globalFlags,0	;volatile
  6985  0207                     l3984:	
  6986                           
  6987                           ;mcc_generated_files/mtouch/mtouch_sensor.c: 614:         packet_counter--;
  6988  0207  3001               	movlw	1
  6989  0208  02AC               	subwf	Sensor_Acq_ExecutePacket@packet_counter,f
  6990  0209                     l3986:	
  6991                           
  6992                           ;mcc_generated_files/mtouch/mtouch_sensor.c: 616:         if (sensor_globalFlags.check !
      +                          = 0)
  6993  0209  1CD6               	btfss	_sensor_globalFlags,1	;volatile
  6994  020A  2A0C               	goto	u3531
  6995  020B  2A0D               	goto	u3530
  6996  020C                     u3531:	
  6997  020C  2A0F               	goto	l257
  6998  020D                     u3530:	
  6999  020D                     l3988:	
  7000                           
  7001                           ;mcc_generated_files/mtouch/mtouch_sensor.c: 617:         {;mcc_generated_files/mtouch/m
      +                          touch_sensor.c: 618:             sensor_globalFlags.error = 1;
  7002  020D  1556               	bsf	_sensor_globalFlags,2	;volatile
  7003                           
  7004                           ;mcc_generated_files/mtouch/mtouch_sensor.c: 619:             sensor_globalFlags.done = 
      +                          1;
  7005  020E  1456               	bsf	_sensor_globalFlags,0	;volatile
  7006  020F                     l257:	
  7007                           ;mcc_generated_files/mtouch/mtouch_sensor.c: 620:         }
  7008                           
  7009                           
  7010                           ;mcc_generated_files/mtouch/mtouch_sensor.c: 621:         sensor_globalFlags.check = 1;
  7011  020F  14D6               	bsf	_sensor_globalFlags,1	;volatile
  7012                           
  7013                           ;mcc_generated_files/mtouch/mtouch_sensor.c: 622:     } while(sensor_globalFlags.done ==
      +                           0);
  7014  0210  1C56               	btfss	_sensor_globalFlags,0	;volatile
  7015  0211  2A13               	goto	u3541
  7016  0212  2A14               	goto	u3540
  7017  0213                     u3541:	
  7018  0213  293D               	goto	l3944
  7019  0214                     u3540:	
  7020  0214                     l3990:	
  7021                           
  7022                           ;mcc_generated_files/mtouch/mtouch_sensor.c: 624:     TMR2_StopTimer();
  7023  0214  3189  2171  3180   	fcall	_TMR2_StopTimer
  7024  0217                     l3992:	
  7025                           
  7026                           ;mcc_generated_files/mtouch/mtouch_sensor.c: 625:     ADCOMCON = ADCOMCON_temp;
  7027  0217  0020               	movlb	0	; select bank0
  7028  0218  0821               	movf	Sensor_Acq_ExecutePacket@ADCOMCON_temp,w
  7029  0219  002E               	movlb	14	; select bank14
  7030  021A  0092               	movwf	18	;volatile
  7031  021B                     l3994:	
  7032                           
  7033                           ;mcc_generated_files/mtouch/mtouch_sensor.c: 626:     AD1CON2 = AD1CON2_temp;
  7034  021B  0020               	movlb	0	; select bank0
  7035  021C  0822               	movf	Sensor_Acq_ExecutePacket@AD1CON2_temp,w
  7036  021D  002E               	movlb	14	; select bank14
  7037  021E  0093               	movwf	19	;volatile
  7038  021F                     l3996:	
  7039                           
  7040                           ;mcc_generated_files/mtouch/mtouch_sensor.c: 627:     AD2CON2 = AD2CON2_temp;
  7041  021F  0020               	movlb	0	; select bank0
  7042  0220  0823               	movf	Sensor_Acq_ExecutePacket@AD2CON2_temp,w
  7043  0221  002F               	movlb	15	; select bank15
  7044  0222  0093               	movwf	19	;volatile
  7045  0223                     l3998:	
  7046                           
  7047                           ;mcc_generated_files/mtouch/mtouch_sensor.c: 629:     if(sensor_globalFlags.error)
  7048  0223  0020               	movlb	0	; select bank0
  7049  0224  1D56               	btfss	_sensor_globalFlags,2	;volatile
  7050  0225  2A27               	goto	u3551
  7051  0226  2A28               	goto	u3550
  7052  0227                     u3551:	
  7053  0227  2A2A               	goto	l259
  7054  0228                     u3550:	
  7055  0228                     l4000:	
  7056                           
  7057                           ;mcc_generated_files/mtouch/mtouch_sensor.c: 630:     {;mcc_generated_files/mtouch/mtouc
      +                          h_sensor.c: 631:         return MTOUCH_SENSOR_ERROR_scanOverrun;
  7058  0228  30FB               	movlw	251
  7059  0229  2A7F               	goto	l224
  7060  022A                     l259:	
  7061                           ;mcc_generated_files/mtouch/mtouch_sensor.c: 632:     }
  7062                           
  7063                           
  7064                           ;mcc_generated_files/mtouch/mtouch_sensor.c: 634:     if(sensor_globalFlags.interrupted)
  7065  022A  1DD6               	btfss	_sensor_globalFlags,3	;volatile
  7066  022B  2A2D               	goto	u3561
  7067  022C  2A2E               	goto	u3560
  7068  022D                     u3561:	
  7069  022D  2A30               	goto	l4008
  7070  022E                     u3560:	
  7071  022E                     l4004:	
  7072                           
  7073                           ;mcc_generated_files/mtouch/mtouch_sensor.c: 635:     {;mcc_generated_files/mtouch/mtouc
      +                          h_sensor.c: 636:         return MTOUCH_SENSOR_ERROR_interruptedScan;
  7074  022E  30FA               	movlw	250
  7075  022F  2A7F               	goto	l224
  7076  0230                     l4008:	
  7077                           
  7078                           ;mcc_generated_files/mtouch/mtouch_sensor.c: 640:     if (sensor1ForceEnabled)
  7079  0230  0824               	movf	Sensor_Acq_ExecutePacket@sensor1ForceEnabled,w
  7080  0231  1903               	btfsc	3,2
  7081  0232  2A34               	goto	u3571
  7082  0233  2A35               	goto	u3570
  7083  0234                     u3571:	
  7084  0234  2A3A               	goto	l4012
  7085  0235                     u3570:	
  7086  0235                     l4010:	
  7087                           
  7088                           ;mcc_generated_files/mtouch/mtouch_sensor.c: 641:         sensor_adc1->enabled = 0;
  7089  0235  082D               	movf	Sensor_Acq_ExecutePacket@sensor_adc1,w
  7090  0236  3E08               	addlw	8
  7091  0237  0086               	movwf	6
  7092  0238  0187               	clrf	7
  7093  0239  1181               	bcf	1,3
  7094  023A                     l4012:	
  7095                           
  7096                           ;mcc_generated_files/mtouch/mtouch_sensor.c: 643:     if (sensor2ForceEnabled)
  7097  023A  0825               	movf	Sensor_Acq_ExecutePacket@sensor2ForceEnabled,w
  7098  023B  1903               	btfsc	3,2
  7099  023C  2A3E               	goto	u3581
  7100  023D  2A3F               	goto	u3580
  7101  023E                     u3581:	
  7102  023E  2A44               	goto	l4016
  7103  023F                     u3580:	
  7104  023F                     l4014:	
  7105                           
  7106                           ;mcc_generated_files/mtouch/mtouch_sensor.c: 644:         sensor_adc2->enabled = 0;
  7107  023F  087B               	movf	Sensor_Acq_ExecutePacket@sensor_adc2,w
  7108  0240  3E08               	addlw	8
  7109  0241  0086               	movwf	6
  7110  0242  0187               	clrf	7
  7111  0243  1181               	bcf	1,3
  7112  0244                     l4016:	
  7113                           
  7114                           ;mcc_generated_files/mtouch/mtouch_sensor.c: 647:     if(Sensor_isEnabled(sensor_adc1) &
      +                          & !Sensor_isCalibrated(sensor_adc1))
  7115  0244  082D               	movf	Sensor_Acq_ExecutePacket@sensor_adc1,w
  7116  0245  318A  229C  3180   	fcall	_Sensor_isEnabled
  7117  0248  3A00               	xorlw	0
  7118  0249  1903               	skipnz
  7119  024A  2A4C               	goto	u3591
  7120  024B  2A4D               	goto	u3590
  7121  024C                     u3591:	
  7122  024C  2A5C               	goto	l4022
  7123  024D                     u3590:	
  7124  024D                     l4018:	
  7125  024D  0020               	movlb	0	; select bank0
  7126  024E  082D               	movf	Sensor_Acq_ExecutePacket@sensor_adc1,w
  7127  024F  3189  21FF  3180   	fcall	_Sensor_isCalibrated
  7128  0252  3A00               	xorlw	0
  7129  0253  1D03               	skipz
  7130  0254  2A56               	goto	u3601
  7131  0255  2A57               	goto	u3600
  7132  0256                     u3601:	
  7133  0256  2A5C               	goto	l4022
  7134  0257                     u3600:	
  7135  0257                     l4020:	
  7136                           
  7137                           ;mcc_generated_files/mtouch/mtouch_sensor.c: 648:         Sensor_autoCalibration(sensor_
      +                          adc1);
  7138  0257  0020               	movlb	0	; select bank0
  7139  0258  082D               	movf	Sensor_Acq_ExecutePacket@sensor_adc1,w
  7140  0259  3185  25C5  3180   	fcall	_Sensor_autoCalibration
  7141  025C                     l4022:	
  7142                           
  7143                           ;mcc_generated_files/mtouch/mtouch_sensor.c: 650:     if(Sensor_isEnabled(sensor_adc2) &
      +                          & !Sensor_isCalibrated(sensor_adc2))
  7144  025C  087B               	movf	Sensor_Acq_ExecutePacket@sensor_adc2,w
  7145  025D  318A  229C  3180   	fcall	_Sensor_isEnabled
  7146  0260  3A00               	xorlw	0
  7147  0261  1903               	skipnz
  7148  0262  2A64               	goto	u3611
  7149  0263  2A65               	goto	u3610
  7150  0264                     u3611:	
  7151  0264  2A72               	goto	l4028
  7152  0265                     u3610:	
  7153  0265                     l4024:	
  7154  0265  087B               	movf	Sensor_Acq_ExecutePacket@sensor_adc2,w
  7155  0266  3189  21FF  3180   	fcall	_Sensor_isCalibrated
  7156  0269  3A00               	xorlw	0
  7157  026A  1D03               	skipz
  7158  026B  2A6D               	goto	u3621
  7159  026C  2A6E               	goto	u3620
  7160  026D                     u3621:	
  7161  026D  2A72               	goto	l4028
  7162  026E                     u3620:	
  7163  026E                     l4026:	
  7164                           
  7165                           ;mcc_generated_files/mtouch/mtouch_sensor.c: 651:         Sensor_autoCalibration(sensor_
      +                          adc2);
  7166  026E  087B               	movf	Sensor_Acq_ExecutePacket@sensor_adc2,w
  7167  026F  3185  25C5  3180   	fcall	_Sensor_autoCalibration
  7168  0272                     l4028:	
  7169                           
  7170                           ;mcc_generated_files/mtouch/mtouch_sensor.c: 653:     AD1PRECON = 0;
  7171  0272  002E               	movlb	14	; select bank14
  7172  0273  0196               	clrf	22	;volatile
  7173  0274                     l4030:	
  7174                           
  7175                           ;mcc_generated_files/mtouch/mtouch_sensor.c: 654:     AD2PRECON = 0;
  7176  0274  002F               	movlb	15	; select bank15
  7177  0275  0196               	clrf	22	;volatile
  7178  0276                     l4032:	
  7179                           
  7180                           ;mcc_generated_files/mtouch/mtouch_sensor.c: 655:     AD1ACQCON = 0;
  7181  0276  002E               	movlb	14	; select bank14
  7182  0277  0197               	clrf	23	;volatile
  7183  0278                     l4034:	
  7184                           
  7185                           ;mcc_generated_files/mtouch/mtouch_sensor.c: 656:     AD2ACQCON = 0;
  7186  0278  002F               	movlb	15	; select bank15
  7187  0279  0197               	clrf	23	;volatile
  7188  027A                     l4036:	
  7189                           
  7190                           ;mcc_generated_files/mtouch/mtouch_sensor.c: 657:     AD1CON0bits.ADON = 0;
  7191  027A  002E               	movlb	14	; select bank14
  7192  027B  1011               	bcf	17,0	;volatile
  7193  027C                     l4038:	
  7194                           
  7195                           ;mcc_generated_files/mtouch/mtouch_sensor.c: 658:     AD2CON0bits.ADON = 0;
  7196  027C  002F               	movlb	15	; select bank15
  7197  027D  1011               	bcf	17,0	;volatile
  7198  027E  28AF               	goto	l3868
  7199  027F                     l224:	
  7200  027F  0008               	return
  7201  0280                     __end_of_Sensor_Acq_ExecutePacket:	
  7202                           
  7203                           	psect	text37
  7204  0971                     __ptext37:	
  7205 ;; *************** function _TMR2_StopTimer *****************
  7206 ;; Defined at:
  7207 ;;		line 85 in file "mcc_generated_files/tmr2.c"
  7208 ;; Parameters:    Size  Location     Type
  7209 ;;		None
  7210 ;; Auto vars:     Size  Location     Type
  7211 ;;		None
  7212 ;; Return value:  Size  Location     Type
  7213 ;;                  1    wreg      void 
  7214 ;; Registers used:
  7215 ;;		None
  7216 ;; Tracked objects:
  7217 ;;		On entry : 0/0
  7218 ;;		On exit  : 0/0
  7219 ;;		Unchanged: 0/0
  7220 ;; Data sizes:     COMMON   BANK0   BANK1   BANK2   BANK3   BANK4   BANK5   BANK6
  7221 ;;      Params:         0       0       0       0       0       0       0       0
  7222 ;;      Locals:         0       0       0       0       0       0       0       0
  7223 ;;      Temps:          0       0       0       0       0       0       0       0
  7224 ;;      Totals:         0       0       0       0       0       0       0       0
  7225 ;;Total ram usage:        0 bytes
  7226 ;; Hardware stack levels used:    1
  7227 ;; Hardware stack levels required when called:    4
  7228 ;; This function calls:
  7229 ;;		Nothing
  7230 ;; This function is called by:
  7231 ;;		_Sensor_Acq_ExecutePacket
  7232 ;; This function uses a non-reentrant model
  7233 ;;
  7234                           
  7235                           
  7236                           ;psect for function _TMR2_StopTimer
  7237  0971                     _TMR2_StopTimer:	
  7238  0971                     l2808:	
  7239                           ;incstack = 0
  7240                           ; Regs used in _TMR2_StopTimer: []
  7241                           
  7242                           
  7243                           ;mcc_generated_files/tmr2.c: 88:     T2CONbits.TMR2ON = 0;
  7244  0971  0020               	movlb	0	; select bank0
  7245  0972  111C               	bcf	28,2	;volatile
  7246  0973                     l684:	
  7247  0973  0008               	return
  7248  0974                     __end_of_TMR2_StopTimer:	
  7249                           
  7250                           	psect	text38
  7251  096E                     __ptext38:	
  7252 ;; *************** function _TMR2_StartTimer *****************
  7253 ;; Defined at:
  7254 ;;		line 79 in file "mcc_generated_files/tmr2.c"
  7255 ;; Parameters:    Size  Location     Type
  7256 ;;		None
  7257 ;; Auto vars:     Size  Location     Type
  7258 ;;		None
  7259 ;; Return value:  Size  Location     Type
  7260 ;;                  1    wreg      void 
  7261 ;; Registers used:
  7262 ;;		None
  7263 ;; Tracked objects:
  7264 ;;		On entry : 0/0
  7265 ;;		On exit  : 0/0
  7266 ;;		Unchanged: 0/0
  7267 ;; Data sizes:     COMMON   BANK0   BANK1   BANK2   BANK3   BANK4   BANK5   BANK6
  7268 ;;      Params:         0       0       0       0       0       0       0       0
  7269 ;;      Locals:         0       0       0       0       0       0       0       0
  7270 ;;      Temps:          0       0       0       0       0       0       0       0
  7271 ;;      Totals:         0       0       0       0       0       0       0       0
  7272 ;;Total ram usage:        0 bytes
  7273 ;; Hardware stack levels used:    1
  7274 ;; Hardware stack levels required when called:    4
  7275 ;; This function calls:
  7276 ;;		Nothing
  7277 ;; This function is called by:
  7278 ;;		_Sensor_Acq_ExecutePacket
  7279 ;; This function uses a non-reentrant model
  7280 ;;
  7281                           
  7282                           
  7283                           ;psect for function _TMR2_StartTimer
  7284  096E                     _TMR2_StartTimer:	
  7285  096E                     l2806:	
  7286                           ;incstack = 0
  7287                           ; Regs used in _TMR2_StartTimer: []
  7288                           
  7289                           
  7290                           ;mcc_generated_files/tmr2.c: 82:     T2CONbits.TMR2ON = 1;
  7291  096E  0020               	movlb	0	; select bank0
  7292  096F  151C               	bsf	28,2	;volatile
  7293  0970                     l681:	
  7294  0970  0008               	return
  7295  0971                     __end_of_TMR2_StartTimer:	
  7296                           
  7297                           	psect	text39
  7298  0990                     __ptext39:	
  7299 ;; *************** function _TMR2_LoadPeriodRegister *****************
  7300 ;; Defined at:
  7301 ;;		line 106 in file "mcc_generated_files/tmr2.c"
  7302 ;; Parameters:    Size  Location     Type
  7303 ;;  periodVal       1    wreg     unsigned char 
  7304 ;; Auto vars:     Size  Location     Type
  7305 ;;  periodVal       1    1[COMMON] unsigned char 
  7306 ;; Return value:  Size  Location     Type
  7307 ;;                  1    wreg      void 
  7308 ;; Registers used:
  7309 ;;		wreg
  7310 ;; Tracked objects:
  7311 ;;		On entry : 0/0
  7312 ;;		On exit  : 0/0
  7313 ;;		Unchanged: 0/0
  7314 ;; Data sizes:     COMMON   BANK0   BANK1   BANK2   BANK3   BANK4   BANK5   BANK6
  7315 ;;      Params:         0       0       0       0       0       0       0       0
  7316 ;;      Locals:         1       0       0       0       0       0       0       0
  7317 ;;      Temps:          0       0       0       0       0       0       0       0
  7318 ;;      Totals:         1       0       0       0       0       0       0       0
  7319 ;;Total ram usage:        1 bytes
  7320 ;; Hardware stack levels used:    1
  7321 ;; Hardware stack levels required when called:    4
  7322 ;; This function calls:
  7323 ;;		Nothing
  7324 ;; This function is called by:
  7325 ;;		_Sensor_Acq_ExecutePacket
  7326 ;; This function uses a non-reentrant model
  7327 ;;
  7328                           
  7329                           
  7330                           ;psect for function _TMR2_LoadPeriodRegister
  7331  0990                     _TMR2_LoadPeriodRegister:	
  7332                           
  7333                           ;incstack = 0
  7334                           ; Regs used in _TMR2_LoadPeriodRegister: [wreg]
  7335                           ;TMR2_LoadPeriodRegister@periodVal stored from wreg
  7336  0990  00F1               	movwf	TMR2_LoadPeriodRegister@periodVal
  7337  0991                     l2804:	
  7338                           
  7339                           ;mcc_generated_files/tmr2.c: 106: void TMR2_LoadPeriodRegister(uint8_t periodVal);mcc_ge
      +                          nerated_files/tmr2.c: 107: {;mcc_generated_files/tmr2.c: 108:    PR2 = periodVal;
  7340  0991  0871               	movf	TMR2_LoadPeriodRegister@periodVal,w
  7341  0992  0020               	movlb	0	; select bank0
  7342  0993  009B               	movwf	27	;volatile
  7343  0994                     l693:	
  7344  0994  0008               	return
  7345  0995                     __end_of_TMR2_LoadPeriodRegister:	
  7346                           
  7347                           	psect	text40
  7348  0463                     __ptext40:	
  7349 ;; *************** function _Sensor_loadADCSettings *****************
  7350 ;; Defined at:
  7351 ;;		line 420 in file "mcc_generated_files/mtouch/mtouch_sensor.c"
  7352 ;; Parameters:    Size  Location     Type
  7353 ;;  sensor          1    wreg     PTR struct .
  7354 ;;		 -> NULL(0), mtouch_sensor(9), 
  7355 ;;  adc_index       1    2[COMMON] unsigned char 
  7356 ;; Auto vars:     Size  Location     Type
  7357 ;;  sensor          1    9[COMMON] PTR struct .
  7358 ;;		 -> NULL(0), mtouch_sensor(9), 
  7359 ;;  addressOffse    1    8[COMMON] unsigned char 
  7360 ;; Return value:  Size  Location     Type
  7361 ;;                  1    wreg      void 
  7362 ;; Registers used:
  7363 ;;		wreg, fsr1l, fsr1h, status,2, status,0, pclath, cstack
  7364 ;; Tracked objects:
  7365 ;;		On entry : 0/0
  7366 ;;		On exit  : 0/0
  7367 ;;		Unchanged: 0/0
  7368 ;; Data sizes:     COMMON   BANK0   BANK1   BANK2   BANK3   BANK4   BANK5   BANK6
  7369 ;;      Params:         1       0       0       0       0       0       0       0
  7370 ;;      Locals:         4       0       0       0       0       0       0       0
  7371 ;;      Temps:          3       0       0       0       0       0       0       0
  7372 ;;      Totals:         8       0       0       0       0       0       0       0
  7373 ;;Total ram usage:        8 bytes
  7374 ;; Hardware stack levels used:    1
  7375 ;; Hardware stack levels required when called:    5
  7376 ;; This function calls:
  7377 ;;		_Sensor_isCalibrated
  7378 ;;		_Sensor_isCalibratingAcqTime
  7379 ;; This function is called by:
  7380 ;;		_Sensor_Acq_ExecutePacket
  7381 ;; This function uses a non-reentrant model
  7382 ;;
  7383                           
  7384                           
  7385                           ;psect for function _Sensor_loadADCSettings
  7386  0463                     _Sensor_loadADCSettings:	
  7387                           
  7388                           ;incstack = 0
  7389                           ; Regs used in _Sensor_loadADCSettings: [wreg+fsr1l+fsr1h+status,2+status,0+pclath+cstac
      +                          k]
  7390                           ;Sensor_loadADCSettings@sensor stored from wreg
  7391  0463  00F9               	movwf	Sensor_loadADCSettings@sensor
  7392  0464                     l2774:	
  7393                           
  7394                           ;mcc_generated_files/mtouch/mtouch_sensor.c: 420: static void Sensor_loadADCSettings(mto
      +                          uch_sensor_t* sensor, uint8_t adc_index);mcc_generated_files/mtouch/mtouch_sensor.c: 421
      +                          : {;mcc_generated_files/mtouch/mtouch_sensor.c: 422:     if (sensor == ((void*)0))
  7395  0464  0879               	movf	Sensor_loadADCSettings@sensor,w
  7396  0465  1D03               	btfss	3,2
  7397  0466  2C68               	goto	u1741
  7398  0467  2C69               	goto	u1740
  7399  0468                     u1741:	
  7400  0468  2C6A               	goto	l2778
  7401  0469                     u1740:	
  7402  0469  2D29               	goto	l207
  7403  046A                     l2778:	
  7404                           
  7405                           ;mcc_generated_files/mtouch/mtouch_sensor.c: 425:     uint8_t addressOffset = (adc_index
      +                          ) ? 0x80 : 0x00;
  7406  046A  0872               	movf	Sensor_loadADCSettings@adc_index,w
  7407  046B  1D03               	btfss	3,2
  7408  046C  2C6E               	goto	u1751
  7409  046D  2C6F               	goto	u1750
  7410  046E                     u1751:	
  7411  046E  2C72               	goto	l2782
  7412  046F                     u1750:	
  7413  046F                     l2780:	
  7414  046F  01F6               	clrf	_Sensor_loadADCSettings$507
  7415  0470  01F7               	clrf	_Sensor_loadADCSettings$507+1
  7416  0471  2C76               	goto	l211
  7417  0472                     l2782:	
  7418  0472  3080               	movlw	128
  7419  0473  00F6               	movwf	_Sensor_loadADCSettings$507
  7420  0474  3000               	movlw	0
  7421  0475  00F7               	movwf	_Sensor_loadADCSettings$507+1
  7422  0476                     l211:	
  7423  0476  0876               	movf	_Sensor_loadADCSettings$507,w
  7424  0477  00F3               	movwf	??_Sensor_loadADCSettings
  7425  0478  0873               	movf	??_Sensor_loadADCSettings,w
  7426  0479  00F8               	movwf	Sensor_loadADCSettings@addressOffset
  7427  047A                     l2784:	
  7428                           
  7429                           ;mcc_generated_files/mtouch/mtouch_sensor.c: 427:     *(&AD1CON0 + addressOffset) = (uin
      +                          t8_t) sensor->adcon0;
  7430  047A  0A79               	incf	Sensor_loadADCSettings@sensor,w
  7431  047B  0086               	movwf	6
  7432  047C  0187               	clrf	7
  7433  047D  0801               	movf	1,w
  7434  047E  00F3               	movwf	??_Sensor_loadADCSettings
  7435  047F  0878               	movf	Sensor_loadADCSettings@addressOffset,w
  7436  0480  3E11               	addlw	17
  7437  0481  00F4               	movwf	??_Sensor_loadADCSettings+1
  7438  0482  01F5               	clrf	??_Sensor_loadADCSettings+2
  7439  0483  3007               	movlw	7
  7440  0484  3DF5               	addwfc	??_Sensor_loadADCSettings+2,f
  7441  0485  0874               	movf	??_Sensor_loadADCSettings+1,w
  7442  0486  0086               	movwf	6
  7443  0487  0875               	movf	??_Sensor_loadADCSettings+2,w
  7444  0488  0087               	movwf	7
  7445  0489  0873               	movf	??_Sensor_loadADCSettings,w
  7446  048A  0081               	movwf	1
  7447  048B                     l2786:	
  7448                           
  7449                           ;mcc_generated_files/mtouch/mtouch_sensor.c: 428:     *(&AAD1CAP + addressOffset) = (uin
      +                          t8_t) sensor->addcap;
  7450  048B  0879               	movf	Sensor_loadADCSettings@sensor,w
  7451  048C  3E05               	addlw	5
  7452  048D  0086               	movwf	6
  7453  048E  0187               	clrf	7
  7454  048F  0801               	movf	1,w
  7455  0490  00F3               	movwf	??_Sensor_loadADCSettings
  7456  0491  0878               	movf	Sensor_loadADCSettings@addressOffset,w
  7457  0492  3E19               	addlw	25
  7458  0493  00F4               	movwf	??_Sensor_loadADCSettings+1
  7459  0494  01F5               	clrf	??_Sensor_loadADCSettings+2
  7460  0495  3007               	movlw	7
  7461  0496  3DF5               	addwfc	??_Sensor_loadADCSettings+2,f
  7462  0497  0874               	movf	??_Sensor_loadADCSettings+1,w
  7463  0498  0086               	movwf	6
  7464  0499  0875               	movf	??_Sensor_loadADCSettings+2,w
  7465  049A  0087               	movwf	7
  7466  049B  0873               	movf	??_Sensor_loadADCSettings,w
  7467  049C  0081               	movwf	1
  7468  049D                     l2788:	
  7469                           
  7470                           ;mcc_generated_files/mtouch/mtouch_sensor.c: 429:     *(&AAD1CON2 + addressOffset) = (ui
      +                          nt8_t)(0b101<<4);
  7471  049D  0878               	movf	Sensor_loadADCSettings@addressOffset,w
  7472  049E  3E13               	addlw	19
  7473  049F  00F3               	movwf	??_Sensor_loadADCSettings
  7474  04A0  01F4               	clrf	??_Sensor_loadADCSettings+1
  7475  04A1  3007               	movlw	7
  7476  04A2  3DF4               	addwfc	??_Sensor_loadADCSettings+1,f
  7477  04A3  0873               	movf	??_Sensor_loadADCSettings,w
  7478  04A4  0086               	movwf	6
  7479  04A5  0874               	movf	??_Sensor_loadADCSettings+1,w
  7480  04A6  0087               	movwf	7
  7481  04A7  3050               	movlw	80
  7482  04A8  0081               	movwf	1
  7483  04A9                     l2790:	
  7484                           
  7485                           ;mcc_generated_files/mtouch/mtouch_sensor.c: 430:     *(&AAD1GRD + addressOffset) &= (ui
      +                          nt8_t) 0b11111110;
  7486  04A9  30FE               	movlw	254
  7487  04AA  00F3               	movwf	??_Sensor_loadADCSettings
  7488  04AB  0878               	movf	Sensor_loadADCSettings@addressOffset,w
  7489  04AC  3E18               	addlw	24
  7490  04AD  0086               	movwf	6
  7491  04AE  0187               	clrf	7
  7492  04AF  3007               	movlw	7
  7493  04B0  3D87               	addwfc	7,f
  7494  04B1  0873               	movf	??_Sensor_loadADCSettings,w
  7495  04B2  0581               	andwf	1,f
  7496  04B3                     l2792:	
  7497                           
  7498                           ;mcc_generated_files/mtouch/mtouch_sensor.c: 432:     if (Sensor_isCalibrated(sensor))
  7499  04B3  0879               	movf	Sensor_loadADCSettings@sensor,w
  7500  04B4  3189  21FF  3184   	fcall	_Sensor_isCalibrated
  7501  04B7  3A00               	xorlw	0
  7502  04B8  1903               	skipnz
  7503  04B9  2CBB               	goto	u1761
  7504  04BA  2CBC               	goto	u1760
  7505  04BB                     u1761:	
  7506  04BB  2CE1               	goto	l2796
  7507  04BC                     u1760:	
  7508  04BC                     l2794:	
  7509                           
  7510                           ;mcc_generated_files/mtouch/mtouch_sensor.c: 433:     {;mcc_generated_files/mtouch/mtouc
      +                          h_sensor.c: 434:         *(&AD1PRECON + addressOffset) = (uint8_t) sensor->precharge_tim
      +                          e;
  7511  04BC  0879               	movf	Sensor_loadADCSettings@sensor,w
  7512  04BD  3E02               	addlw	2
  7513  04BE  0086               	movwf	6
  7514  04BF  0187               	clrf	7
  7515  04C0  0801               	movf	1,w
  7516  04C1  00F3               	movwf	??_Sensor_loadADCSettings
  7517  04C2  0878               	movf	Sensor_loadADCSettings@addressOffset,w
  7518  04C3  3E16               	addlw	22
  7519  04C4  00F4               	movwf	??_Sensor_loadADCSettings+1
  7520  04C5  01F5               	clrf	??_Sensor_loadADCSettings+2
  7521  04C6  3007               	movlw	7
  7522  04C7  3DF5               	addwfc	??_Sensor_loadADCSettings+2,f
  7523  04C8  0874               	movf	??_Sensor_loadADCSettings+1,w
  7524  04C9  0086               	movwf	6
  7525  04CA  0875               	movf	??_Sensor_loadADCSettings+2,w
  7526  04CB  0087               	movwf	7
  7527  04CC  0873               	movf	??_Sensor_loadADCSettings,w
  7528  04CD  0081               	movwf	1
  7529                           
  7530                           ;mcc_generated_files/mtouch/mtouch_sensor.c: 435:         *(&AD1ACQCON + addressOffset) 
      +                          = (uint8_t) sensor->acquisition_time;
  7531  04CE  0879               	movf	Sensor_loadADCSettings@sensor,w
  7532  04CF  3E03               	addlw	3
  7533  04D0  0086               	movwf	6
  7534  04D1  0187               	clrf	7
  7535  04D2  0801               	movf	1,w
  7536  04D3  00F3               	movwf	??_Sensor_loadADCSettings
  7537  04D4  0878               	movf	Sensor_loadADCSettings@addressOffset,w
  7538  04D5  3E17               	addlw	23
  7539  04D6  00F4               	movwf	??_Sensor_loadADCSettings+1
  7540  04D7  01F5               	clrf	??_Sensor_loadADCSettings+2
  7541  04D8  3007               	movlw	7
  7542  04D9  3DF5               	addwfc	??_Sensor_loadADCSettings+2,f
  7543  04DA  0874               	movf	??_Sensor_loadADCSettings+1,w
  7544  04DB  0086               	movwf	6
  7545  04DC  0875               	movf	??_Sensor_loadADCSettings+2,w
  7546  04DD  0087               	movwf	7
  7547  04DE  0873               	movf	??_Sensor_loadADCSettings,w
  7548  04DF  0081               	movwf	1
  7549                           
  7550                           ;mcc_generated_files/mtouch/mtouch_sensor.c: 436:     }
  7551  04E0  2D15               	goto	l213
  7552  04E1                     l2796:	
  7553                           
  7554                           ;mcc_generated_files/mtouch/mtouch_sensor.c: 438:     {;mcc_generated_files/mtouch/mtouc
      +                          h_sensor.c: 439:         *(&AD1PRECON + addressOffset) = (mtouch_sensor_time_t)32;
  7555  04E1  0878               	movf	Sensor_loadADCSettings@addressOffset,w
  7556  04E2  3E16               	addlw	22
  7557  04E3  00F3               	movwf	??_Sensor_loadADCSettings
  7558  04E4  01F4               	clrf	??_Sensor_loadADCSettings+1
  7559  04E5  3007               	movlw	7
  7560  04E6  3DF4               	addwfc	??_Sensor_loadADCSettings+1,f
  7561  04E7  0873               	movf	??_Sensor_loadADCSettings,w
  7562  04E8  0086               	movwf	6
  7563  04E9  0874               	movf	??_Sensor_loadADCSettings+1,w
  7564  04EA  0087               	movwf	7
  7565  04EB  3020               	movlw	32
  7566  04EC  0081               	movwf	1
  7567  04ED                     l2798:	
  7568                           
  7569                           ;mcc_generated_files/mtouch/mtouch_sensor.c: 440:         if (Sensor_isCalibratingAcqTim
      +                          e(sensor))
  7570  04ED  0879               	movf	Sensor_loadADCSettings@sensor,w
  7571  04EE  3189  21E6  3184   	fcall	_Sensor_isCalibratingAcqTime
  7572  04F1  3A00               	xorlw	0
  7573  04F2  1903               	skipnz
  7574  04F3  2CF5               	goto	u1771
  7575  04F4  2CF6               	goto	u1770
  7576  04F5                     u1771:	
  7577  04F5  2D09               	goto	l2802
  7578  04F6                     u1770:	
  7579  04F6                     l2800:	
  7580                           
  7581                           ;mcc_generated_files/mtouch/mtouch_sensor.c: 441:             *(&AD1ACQCON + addressOffs
      +                          et) = (uint8_t) sensor->acquisition_time;
  7582  04F6  0879               	movf	Sensor_loadADCSettings@sensor,w
  7583  04F7  3E03               	addlw	3
  7584  04F8  0086               	movwf	6
  7585  04F9  0187               	clrf	7
  7586  04FA  0801               	movf	1,w
  7587  04FB  00F3               	movwf	??_Sensor_loadADCSettings
  7588  04FC  0878               	movf	Sensor_loadADCSettings@addressOffset,w
  7589  04FD  3E17               	addlw	23
  7590  04FE  00F4               	movwf	??_Sensor_loadADCSettings+1
  7591  04FF  01F5               	clrf	??_Sensor_loadADCSettings+2
  7592  0500  3007               	movlw	7
  7593  0501  3DF5               	addwfc	??_Sensor_loadADCSettings+2,f
  7594  0502  0874               	movf	??_Sensor_loadADCSettings+1,w
  7595  0503  0086               	movwf	6
  7596  0504  0875               	movf	??_Sensor_loadADCSettings+2,w
  7597  0505  0087               	movwf	7
  7598  0506  0873               	movf	??_Sensor_loadADCSettings,w
  7599  0507  0081               	movwf	1
  7600  0508  2D15               	goto	l213
  7601  0509                     l2802:	
  7602                           
  7603                           ;mcc_generated_files/mtouch/mtouch_sensor.c: 443:             *(&AD1ACQCON + addressOffs
      +                          et) = (mtouch_sensor_time_t)32;
  7604  0509  0878               	movf	Sensor_loadADCSettings@addressOffset,w
  7605  050A  3E17               	addlw	23
  7606  050B  00F3               	movwf	??_Sensor_loadADCSettings
  7607  050C  01F4               	clrf	??_Sensor_loadADCSettings+1
  7608  050D  3007               	movlw	7
  7609  050E  3DF4               	addwfc	??_Sensor_loadADCSettings+1,f
  7610  050F  0873               	movf	??_Sensor_loadADCSettings,w
  7611  0510  0086               	movwf	6
  7612  0511  0874               	movf	??_Sensor_loadADCSettings+1,w
  7613  0512  0087               	movwf	7
  7614  0513  3020               	movlw	32
  7615  0514  0081               	movwf	1
  7616  0515                     l213:	
  7617                           ;mcc_generated_files/mtouch/mtouch_sensor.c: 444:     }
  7618                           
  7619                           
  7620                           ;mcc_generated_files/mtouch/mtouch_sensor.c: 446:     packet_sample[adc_index] = ((mtouc
      +                          h_sensor_packetsample_t)(sensor->oversampling)<<9);
  7621  0515  0879               	movf	Sensor_loadADCSettings@sensor,w
  7622  0516  3E04               	addlw	4
  7623  0517  0086               	movwf	6
  7624  0518  0187               	clrf	7
  7625  0519  0801               	movf	1,w
  7626  051A  00F3               	movwf	??_Sensor_loadADCSettings
  7627  051B  01F4               	clrf	??_Sensor_loadADCSettings+1
  7628  051C  3009               	movlw	9
  7629  051D                     u1785:	
  7630  051D  35F3               	lslf	??_Sensor_loadADCSettings,f
  7631  051E  0DF4               	rlf	??_Sensor_loadADCSettings+1,f
  7632  051F  0B89               	decfsz	9,f
  7633  0520  2D1D               	goto	u1785
  7634  0521  3572               	lslf	Sensor_loadADCSettings@adc_index,w
  7635  0522  3E4A               	addlw	(low (_packet_sample| 0))& (0+255)
  7636  0523  0086               	movwf	6
  7637  0524  0187               	clrf	7
  7638  0525  0873               	movf	??_Sensor_loadADCSettings,w
  7639  0526  3FC0               	movwi [0]fsr1
  7640  0527  0874               	movf	??_Sensor_loadADCSettings+1,w
  7641  0528  3FC1               	movwi [1]fsr1
  7642  0529                     l207:	
  7643  0529  0008               	return
  7644  052A                     __end_of_Sensor_loadADCSettings:	
  7645                           
  7646                           	psect	text41
  7647  09FF                     __ptext41:	
  7648 ;; *************** function _Sensor_isCalibrated *****************
  7649 ;; Defined at:
  7650 ;;		line 903 in file "mcc_generated_files/mtouch/mtouch_sensor.c"
  7651 ;; Parameters:    Size  Location     Type
  7652 ;;  sensor          1    wreg     PTR struct .
  7653 ;;		 -> NULL(0), mtouch_sensor(9), 
  7654 ;; Auto vars:     Size  Location     Type
  7655 ;;  sensor          1    1[COMMON] PTR struct .
  7656 ;;		 -> NULL(0), mtouch_sensor(9), 
  7657 ;; Return value:  Size  Location     Type
  7658 ;;                  1    wreg      _Bool 
  7659 ;; Registers used:
  7660 ;;		wreg, fsr1l, fsr1h, status,2, status,0
  7661 ;; Tracked objects:
  7662 ;;		On entry : 0/0
  7663 ;;		On exit  : 0/0
  7664 ;;		Unchanged: 0/0
  7665 ;; Data sizes:     COMMON   BANK0   BANK1   BANK2   BANK3   BANK4   BANK5   BANK6
  7666 ;;      Params:         0       0       0       0       0       0       0       0
  7667 ;;      Locals:         1       0       0       0       0       0       0       0
  7668 ;;      Temps:          0       0       0       0       0       0       0       0
  7669 ;;      Totals:         1       0       0       0       0       0       0       0
  7670 ;;Total ram usage:        1 bytes
  7671 ;; Hardware stack levels used:    1
  7672 ;; Hardware stack levels required when called:    4
  7673 ;; This function calls:
  7674 ;;		Nothing
  7675 ;; This function is called by:
  7676 ;;		_Sensor_Acquisition
  7677 ;;		_Sensor_loadADCSettings
  7678 ;;		_Sensor_Acq_ExecutePacket
  7679 ;; This function uses a non-reentrant model
  7680 ;;
  7681                           
  7682                           
  7683                           ;psect for function _Sensor_isCalibrated
  7684  09FF                     _Sensor_isCalibrated:	
  7685                           
  7686                           ;incstack = 0
  7687                           ; Regs used in _Sensor_isCalibrated: [wreg+fsr1l+fsr1h+status,2+status,0]
  7688                           ;Sensor_isCalibrated@sensor stored from wreg
  7689  09FF  00F1               	movwf	Sensor_isCalibrated@sensor
  7690  0A00                     l2724:	
  7691                           
  7692                           ;mcc_generated_files/mtouch/mtouch_sensor.c: 903: static __attribute__((inline)) _Bool S
      +                          ensor_isCalibrated(mtouch_sensor_t* sensor);mcc_generated_files/mtouch/mtouch_sensor.c: 
      +                          904: {;mcc_generated_files/mtouch/mtouch_sensor.c: 905:     return (_Bool)sensor->calibr
      +                          ated;
  7693  0A00  0871               	movf	Sensor_isCalibrated@sensor,w
  7694  0A01  3E08               	addlw	8
  7695  0A02  0086               	movwf	6
  7696  0A03  0187               	clrf	7
  7697  0A04  0C01               	rrf	1,w
  7698  0A05  0C89               	rrf	9,f
  7699  0A06  3901               	andlw	1
  7700  0A07                     l350:	
  7701  0A07  0008               	return
  7702  0A08                     __end_of_Sensor_isCalibrated:	
  7703                           
  7704                           	psect	text42
  7705  0A9C                     __ptext42:	
  7706 ;; *************** function _Sensor_isEnabled *****************
  7707 ;; Defined at:
  7708 ;;		line 838 in file "mcc_generated_files/mtouch/mtouch_sensor.c"
  7709 ;; Parameters:    Size  Location     Type
  7710 ;;  sensor          1    wreg     PTR struct .
  7711 ;;		 -> NULL(0), mtouch_sensor(9), 
  7712 ;; Auto vars:     Size  Location     Type
  7713 ;;  sensor          1    2[COMMON] PTR struct .
  7714 ;;		 -> NULL(0), mtouch_sensor(9), 
  7715 ;; Return value:  Size  Location     Type
  7716 ;;                  1    wreg      _Bool 
  7717 ;; Registers used:
  7718 ;;		wreg, fsr1l, fsr1h, status,2, status,0
  7719 ;; Tracked objects:
  7720 ;;		On entry : 0/0
  7721 ;;		On exit  : 0/0
  7722 ;;		Unchanged: 0/0
  7723 ;; Data sizes:     COMMON   BANK0   BANK1   BANK2   BANK3   BANK4   BANK5   BANK6
  7724 ;;      Params:         0       0       0       0       0       0       0       0
  7725 ;;      Locals:         1       0       0       0       0       0       0       0
  7726 ;;      Temps:          1       0       0       0       0       0       0       0
  7727 ;;      Totals:         2       0       0       0       0       0       0       0
  7728 ;;Total ram usage:        2 bytes
  7729 ;; Hardware stack levels used:    1
  7730 ;; Hardware stack levels required when called:    4
  7731 ;; This function calls:
  7732 ;;		Nothing
  7733 ;; This function is called by:
  7734 ;;		_Sensor_Service
  7735 ;;		_Sensor_postAcquisitionProcess
  7736 ;;		_Sensor_Acq_ExecutePacket
  7737 ;; This function uses a non-reentrant model
  7738 ;;
  7739                           
  7740                           
  7741                           ;psect for function _Sensor_isEnabled
  7742  0A9C                     _Sensor_isEnabled:	
  7743                           
  7744                           ;incstack = 0
  7745                           ; Regs used in _Sensor_isEnabled: [wreg+fsr1l+fsr1h+status,2+status,0]
  7746                           ;Sensor_isEnabled@sensor stored from wreg
  7747  0A9C  00F2               	movwf	Sensor_isEnabled@sensor
  7748  0A9D                     l2752:	
  7749                           
  7750                           ;mcc_generated_files/mtouch/mtouch_sensor.c: 838: static _Bool Sensor_isEnabled(mtouch_s
      +                          ensor_t* sensor);mcc_generated_files/mtouch/mtouch_sensor.c: 839: {;mcc_generated_files/
      +                          mtouch/mtouch_sensor.c: 840:     if(sensor!=((void*)0))
  7751  0A9D  0872               	movf	Sensor_isEnabled@sensor,w
  7752  0A9E  1903               	btfsc	3,2
  7753  0A9F  2AA1               	goto	u1721
  7754  0AA0  2AA2               	goto	u1720
  7755  0AA1                     u1721:	
  7756  0AA1  2AAC               	goto	l2760
  7757  0AA2                     u1720:	
  7758  0AA2                     l2754:	
  7759                           
  7760                           ;mcc_generated_files/mtouch/mtouch_sensor.c: 841:         return (_Bool)sensor->enabled;
  7761  0AA2  0872               	movf	Sensor_isEnabled@sensor,w
  7762  0AA3  3E08               	addlw	8
  7763  0AA4  0086               	movwf	6
  7764  0AA5  0187               	clrf	7
  7765  0AA6  0C01               	rrf	1,w
  7766  0AA7  00F1               	movwf	??_Sensor_isEnabled
  7767  0AA8  0CF1               	rrf	??_Sensor_isEnabled,f
  7768  0AA9  0C71               	rrf	??_Sensor_isEnabled,w
  7769  0AAA  3901               	andlw	1
  7770  0AAB  2AAD               	goto	l323
  7771  0AAC                     l2760:	
  7772                           
  7773                           ;mcc_generated_files/mtouch/mtouch_sensor.c: 843:         return 0;
  7774  0AAC  3000               	movlw	0
  7775  0AAD                     l323:	
  7776  0AAD  0008               	return
  7777  0AAE                     __end_of_Sensor_isEnabled:	
  7778                           
  7779                           	psect	text43
  7780  0A3D                     __ptext43:	
  7781 ;; *************** function _Sensor_isActive *****************
  7782 ;; Defined at:
  7783 ;;		line 865 in file "mcc_generated_files/mtouch/mtouch_sensor.c"
  7784 ;; Parameters:    Size  Location     Type
  7785 ;;  sensor          1    wreg     PTR struct .
  7786 ;;		 -> NULL(0), mtouch_sensor(9), 
  7787 ;; Auto vars:     Size  Location     Type
  7788 ;;  sensor          1    1[COMMON] PTR struct .
  7789 ;;		 -> NULL(0), mtouch_sensor(9), 
  7790 ;; Return value:  Size  Location     Type
  7791 ;;                  1    wreg      _Bool 
  7792 ;; Registers used:
  7793 ;;		wreg, fsr1l, fsr1h, status,2, status,0
  7794 ;; Tracked objects:
  7795 ;;		On entry : 0/0
  7796 ;;		On exit  : 0/0
  7797 ;;		Unchanged: 0/0
  7798 ;; Data sizes:     COMMON   BANK0   BANK1   BANK2   BANK3   BANK4   BANK5   BANK6
  7799 ;;      Params:         0       0       0       0       0       0       0       0
  7800 ;;      Locals:         1       0       0       0       0       0       0       0
  7801 ;;      Temps:          0       0       0       0       0       0       0       0
  7802 ;;      Totals:         1       0       0       0       0       0       0       0
  7803 ;;Total ram usage:        1 bytes
  7804 ;; Hardware stack levels used:    1
  7805 ;; Hardware stack levels required when called:    4
  7806 ;; This function calls:
  7807 ;;		Nothing
  7808 ;; This function is called by:
  7809 ;;		_Sensor_Acquisition
  7810 ;;		_Sensor_Acq_ExecutePacket
  7811 ;; This function uses a non-reentrant model
  7812 ;;
  7813                           
  7814                           
  7815                           ;psect for function _Sensor_isActive
  7816  0A3D                     _Sensor_isActive:	
  7817                           
  7818                           ;incstack = 0
  7819                           ; Regs used in _Sensor_isActive: [wreg+fsr1l+fsr1h+status,2+status,0]
  7820                           ;Sensor_isActive@sensor stored from wreg
  7821  0A3D  00F1               	movwf	Sensor_isActive@sensor
  7822  0A3E                     l2764:	
  7823                           
  7824                           ;mcc_generated_files/mtouch/mtouch_sensor.c: 865: static __attribute__((inline)) _Bool S
      +                          ensor_isActive(mtouch_sensor_t* sensor);mcc_generated_files/mtouch/mtouch_sensor.c: 866:
      +                           {;mcc_generated_files/mtouch/mtouch_sensor.c: 867:     if(sensor == ((void*)0))
  7825  0A3E  0871               	movf	Sensor_isActive@sensor,w
  7826  0A3F  1D03               	btfss	3,2
  7827  0A40  2A42               	goto	u1731
  7828  0A41  2A43               	goto	u1730
  7829  0A42                     u1731:	
  7830  0A42  2A45               	goto	l2770
  7831  0A43                     u1730:	
  7832  0A43                     l2766:	
  7833                           
  7834                           ;mcc_generated_files/mtouch/mtouch_sensor.c: 868:         return 0;
  7835  0A43  3000               	movlw	0
  7836  0A44  2A4B               	goto	l334
  7837  0A45                     l2770:	
  7838                           
  7839                           ;mcc_generated_files/mtouch/mtouch_sensor.c: 870:     return (_Bool)sensor->active;
  7840  0A45  0871               	movf	Sensor_isActive@sensor,w
  7841  0A46  3E08               	addlw	8
  7842  0A47  0086               	movwf	6
  7843  0A48  0187               	clrf	7
  7844  0A49  0C01               	rrf	1,w
  7845  0A4A  3901               	andlw	1
  7846  0A4B                     l334:	
  7847  0A4B  0008               	return
  7848  0A4C                     __end_of_Sensor_isActive:	
  7849                           
  7850                           	psect	text44
  7851  05C5                     __ptext44:	
  7852 ;; *************** function _Sensor_autoCalibration *****************
  7853 ;; Defined at:
  7854 ;;		line 671 in file "mcc_generated_files/mtouch/mtouch_sensor.c"
  7855 ;; Parameters:    Size  Location     Type
  7856 ;;  sensor          1    wreg     PTR struct .
  7857 ;;		 -> NULL(0), mtouch_sensor(9), 
  7858 ;; Auto vars:     Size  Location     Type
  7859 ;;  sensor          1   10[COMMON] PTR struct .
  7860 ;;		 -> NULL(0), mtouch_sensor(9), 
  7861 ;;  adcIndex        1    9[COMMON] unsigned char 
  7862 ;; Return value:  Size  Location     Type
  7863 ;;                  1    wreg      void 
  7864 ;; Registers used:
  7865 ;;		wreg, fsr0l, fsr0h, fsr1l, fsr1h, status,2, status,0, pclath, cstack
  7866 ;; Tracked objects:
  7867 ;;		On entry : 0/0
  7868 ;;		On exit  : 0/0
  7869 ;;		Unchanged: 0/0
  7870 ;; Data sizes:     COMMON   BANK0   BANK1   BANK2   BANK3   BANK4   BANK5   BANK6
  7871 ;;      Params:         0       0       0       0       0       0       0       0
  7872 ;;      Locals:         2       0       0       0       0       0       0       0
  7873 ;;      Temps:          4       0       0       0       0       0       0       0
  7874 ;;      Totals:         6       0       0       0       0       0       0       0
  7875 ;;Total ram usage:        6 bytes
  7876 ;; Hardware stack levels used:    1
  7877 ;; Hardware stack levels required when called:    5
  7878 ;; This function calls:
  7879 ;;		_Sensor_getScanGroupIndex
  7880 ;;		_Sensor_isCalibratingAcqTime
  7881 ;;		_Sensor_setCalibratAcqTime
  7882 ;;		_Sensor_setCalibrated
  7883 ;;		_abs
  7884 ;; This function is called by:
  7885 ;;		_Sensor_Acq_ExecutePacket
  7886 ;; This function uses a non-reentrant model
  7887 ;;
  7888                           
  7889                           
  7890                           ;psect for function _Sensor_autoCalibration
  7891  05C5                     _Sensor_autoCalibration:	
  7892                           
  7893                           ;incstack = 0
  7894                           ; Regs used in _Sensor_autoCalibration: [wreg-fsr1h+status,2+status,0+pclath+cstack]
  7895                           ;Sensor_autoCalibration@sensor stored from wreg
  7896  05C5  00FA               	movwf	Sensor_autoCalibration@sensor
  7897  05C6                     l2810:	
  7898                           
  7899                           ;mcc_generated_files/mtouch/mtouch_sensor.c: 671: static void Sensor_autoCalibration(mto
      +                          uch_sensor_t* sensor);mcc_generated_files/mtouch/mtouch_sensor.c: 672: {;mcc_generated_f
      +                          iles/mtouch/mtouch_sensor.c: 673:     uint8_t adcIndex = Sensor_getScanGroupIndex(sensor
      +                          );
  7900  05C6  087A               	movf	Sensor_autoCalibration@sensor,w
  7901  05C7  318D  2568  3185   	fcall	_Sensor_getScanGroupIndex
  7902  05CA  00F5               	movwf	??_Sensor_autoCalibration
  7903  05CB  0875               	movf	??_Sensor_autoCalibration,w
  7904  05CC  00F9               	movwf	Sensor_autoCalibration@adcIndex
  7905  05CD                     l2812:	
  7906                           
  7907                           ;mcc_generated_files/mtouch/mtouch_sensor.c: 675:     if(!Sensor_isCalibratingAcqTime(se
      +                          nsor))
  7908  05CD  087A               	movf	Sensor_autoCalibration@sensor,w
  7909  05CE  3189  21E6  3185   	fcall	_Sensor_isCalibratingAcqTime
  7910  05D1  3A00               	xorlw	0
  7911  05D2  1D03               	skipz
  7912  05D3  2DD5               	goto	u1791
  7913  05D4  2DD6               	goto	u1790
  7914  05D5                     u1791:	
  7915  05D5  2E0C               	goto	l2822
  7916  05D6                     u1790:	
  7917  05D6                     l2814:	
  7918                           
  7919                           ;mcc_generated_files/mtouch/mtouch_sensor.c: 676:     {;mcc_generated_files/mtouch/mtouc
      +                          h_sensor.c: 677:         if(packet_sample[adcIndex] > ((mtouch_sensor_packetsample_t)(se
      +                          nsor->oversampling)<<9))
  7920  05D6  3579               	lslf	Sensor_autoCalibration@adcIndex,w
  7921  05D7  3E4A               	addlw	(low (_packet_sample| 0))& (0+255)
  7922  05D8  0086               	movwf	6
  7923  05D9  0187               	clrf	7
  7924  05DA  3F40               	moviw [0]fsr1
  7925  05DB  00F5               	movwf	??_Sensor_autoCalibration
  7926  05DC  3F41               	moviw [1]fsr1
  7927  05DD  00F6               	movwf	??_Sensor_autoCalibration+1
  7928  05DE  087A               	movf	Sensor_autoCalibration@sensor,w
  7929  05DF  3E04               	addlw	4
  7930  05E0  0086               	movwf	6
  7931  05E1  0187               	clrf	7
  7932  05E2  0801               	movf	1,w
  7933  05E3  00F7               	movwf	??_Sensor_autoCalibration+2
  7934  05E4  01F8               	clrf	??_Sensor_autoCalibration+3
  7935  05E5  3009               	movlw	9
  7936  05E6                     u1805:	
  7937  05E6  35F7               	lslf	??_Sensor_autoCalibration+2,f
  7938  05E7  0DF8               	rlf	??_Sensor_autoCalibration+3,f
  7939  05E8  0B89               	decfsz	9,f
  7940  05E9  2DE6               	goto	u1805
  7941  05EA  0876               	movf	??_Sensor_autoCalibration+1,w
  7942  05EB  0278               	subwf	??_Sensor_autoCalibration+3,w
  7943  05EC  1D03               	skipz
  7944  05ED  2DF0               	goto	u1815
  7945  05EE  0875               	movf	??_Sensor_autoCalibration,w
  7946  05EF  0277               	subwf	??_Sensor_autoCalibration+2,w
  7947  05F0                     u1815:	
  7948  05F0  1803               	skipnc
  7949  05F1  2DF3               	goto	u1811
  7950  05F2  2DF4               	goto	u1810
  7951  05F3                     u1811:	
  7952  05F3  2E07               	goto	l2820
  7953  05F4                     u1810:	
  7954  05F4                     l2816:	
  7955                           
  7956                           ;mcc_generated_files/mtouch/mtouch_sensor.c: 678:         {;mcc_generated_files/mtouch/m
      +                          touch_sensor.c: 679:             if(++(sensor->addcap) >= (uint8_t)0x0F)
  7957  05F4  3001               	movlw	1
  7958  05F5  00F5               	movwf	??_Sensor_autoCalibration
  7959  05F6  087A               	movf	Sensor_autoCalibration@sensor,w
  7960  05F7  3E05               	addlw	5
  7961  05F8  0086               	movwf	6
  7962  05F9  0187               	clrf	7
  7963  05FA  0875               	movf	??_Sensor_autoCalibration,w
  7964  05FB  0781               	addwf	1,f
  7965  05FC  300F               	movlw	15
  7966  05FD  0201               	subwf	1,w
  7967  05FE  1C03               	skipc
  7968  05FF  2E01               	goto	u1821
  7969  0600  2E02               	goto	u1820
  7970  0601                     u1821:	
  7971  0601  2E5C               	goto	l275
  7972  0602                     u1820:	
  7973  0602                     l2818:	
  7974                           
  7975                           ;mcc_generated_files/mtouch/mtouch_sensor.c: 680:                 Sensor_setCalibratAcqT
      +                          ime(sensor);
  7976  0602  087A               	movf	Sensor_autoCalibration@sensor,w
  7977  0603  318A  2214  3185   	fcall	_Sensor_setCalibratAcqTime
  7978  0606  2E5C               	goto	l275
  7979  0607                     l2820:	
  7980                           
  7981                           ;mcc_generated_files/mtouch/mtouch_sensor.c: 683:         {;mcc_generated_files/mtouch/m
      +                          touch_sensor.c: 684:              Sensor_setCalibratAcqTime(sensor);
  7982  0607  087A               	movf	Sensor_autoCalibration@sensor,w
  7983  0608  318A  2214  3185   	fcall	_Sensor_setCalibratAcqTime
  7984  060B  2E5C               	goto	l275
  7985  060C                     l2822:	
  7986                           
  7987                           ;mcc_generated_files/mtouch/mtouch_sensor.c: 688:     {;mcc_generated_files/mtouch/mtouc
      +                          h_sensor.c: 689:         if((mtouch_sensor_packetsample_t)abs(packet_sample[adcIndex] - 
      +                          sensor->rawSample) < ((mtouch_sensor_packetsample_t)(sensor->oversampling)<<1))
  7988  060C  087A               	movf	Sensor_autoCalibration@sensor,w
  7989  060D  3E04               	addlw	4
  7990  060E  0086               	movwf	6
  7991  060F  0187               	clrf	7
  7992  0610  0801               	movf	1,w
  7993  0611  00F5               	movwf	??_Sensor_autoCalibration
  7994  0612  01F6               	clrf	??_Sensor_autoCalibration+1
  7995  0613  35F5               	lslf	??_Sensor_autoCalibration,f
  7996  0614  0DF6               	rlf	??_Sensor_autoCalibration+1,f
  7997  0615  087A               	movf	Sensor_autoCalibration@sensor,w
  7998  0616  3E06               	addlw	6
  7999  0617  0086               	movwf	6
  8000  0618  0187               	clrf	7
  8001  0619  3579               	lslf	Sensor_autoCalibration@adcIndex,w
  8002  061A  3E4A               	addlw	(low (_packet_sample| 0))& (0+255)
  8003  061B  0084               	movwf	4
  8004  061C  0185               	clrf	5
  8005  061D  3F40               	moviw [0]fsr1
  8006  061E  0200               	subwf	0,w
  8007  061F  00F1               	movwf	abs@a
  8008  0620  3101               	addfsr 0,1
  8009  0621  3F41               	moviw [1]fsr1
  8010  0622  3B00               	subwfb	0,w
  8011  0623  00F2               	movwf	abs@a+1
  8012  0624  318B  238D  3185   	fcall	_abs
  8013  0627  0876               	movf	??_Sensor_autoCalibration+1,w
  8014  0628  0272               	subwf	?_abs+1,w
  8015  0629  1D03               	skipz
  8016  062A  2E2D               	goto	u1835
  8017  062B  0875               	movf	??_Sensor_autoCalibration,w
  8018  062C  0271               	subwf	?_abs,w
  8019  062D                     u1835:	
  8020  062D  1803               	skipnc
  8021  062E  2E30               	goto	u1831
  8022  062F  2E31               	goto	u1830
  8023  0630                     u1831:	
  8024  0630  2E3E               	goto	l2828
  8025  0631                     u1830:	
  8026  0631                     l2824:	
  8027                           
  8028                           ;mcc_generated_files/mtouch/mtouch_sensor.c: 690:         {;mcc_generated_files/mtouch/m
      +                          touch_sensor.c: 691:             sensor->precharge_time = (mtouch_sensor_time_t)32;
  8029  0631  3020               	movlw	32
  8030  0632  00F5               	movwf	??_Sensor_autoCalibration
  8031  0633  087A               	movf	Sensor_autoCalibration@sensor,w
  8032  0634  3E02               	addlw	2
  8033  0635  0086               	movwf	6
  8034  0636  0187               	clrf	7
  8035  0637  0875               	movf	??_Sensor_autoCalibration,w
  8036  0638  0081               	movwf	1
  8037  0639                     l2826:	
  8038                           
  8039                           ;mcc_generated_files/mtouch/mtouch_sensor.c: 692:             Sensor_setCalibrated(senso
      +                          r);
  8040  0639  087A               	movf	Sensor_autoCalibration@sensor,w
  8041  063A  318A  2208  3185   	fcall	_Sensor_setCalibrated
  8042                           
  8043                           ;mcc_generated_files/mtouch/mtouch_sensor.c: 693:         }
  8044  063D  2E5C               	goto	l275
  8045  063E                     l2828:	
  8046                           
  8047                           ;mcc_generated_files/mtouch/mtouch_sensor.c: 695:         {;mcc_generated_files/mtouch/m
      +                          touch_sensor.c: 699:             sensor->acquisition_time += (uint8_t)2;
  8048  063E  3002               	movlw	2
  8049  063F  00F5               	movwf	??_Sensor_autoCalibration
  8050  0640  087A               	movf	Sensor_autoCalibration@sensor,w
  8051  0641  3E03               	addlw	3
  8052  0642  0086               	movwf	6
  8053  0643  0187               	clrf	7
  8054  0644  0875               	movf	??_Sensor_autoCalibration,w
  8055  0645  0781               	addwf	1,f
  8056                           
  8057                           ;mcc_generated_files/mtouch/mtouch_sensor.c: 700:             if((sensor->acquisition_ti
      +                          me)>=(mtouch_sensor_time_t)32)
  8058  0646  087A               	movf	Sensor_autoCalibration@sensor,w
  8059  0647  3E03               	addlw	3
  8060  0648  0086               	movwf	6
  8061  0649  0187               	clrf	7
  8062  064A  3020               	movlw	32
  8063  064B  0201               	subwf	1,w
  8064  064C  1C03               	skipc
  8065  064D  2E4F               	goto	u1841
  8066  064E  2E50               	goto	u1840
  8067  064F                     u1841:	
  8068  064F  2E5C               	goto	l275
  8069  0650                     u1840:	
  8070  0650                     l2830:	
  8071                           
  8072                           ;mcc_generated_files/mtouch/mtouch_sensor.c: 701:             {;mcc_generated_files/mtou
      +                          ch/mtouch_sensor.c: 702:                 sensor->precharge_time = (mtouch_sensor_time_t)
      +                          32;
  8073  0650  3020               	movlw	32
  8074  0651  00F5               	movwf	??_Sensor_autoCalibration
  8075  0652  087A               	movf	Sensor_autoCalibration@sensor,w
  8076  0653  3E02               	addlw	2
  8077  0654  0086               	movwf	6
  8078  0655  0187               	clrf	7
  8079  0656  0875               	movf	??_Sensor_autoCalibration,w
  8080  0657  0081               	movwf	1
  8081  0658                     l2832:	
  8082                           
  8083                           ;mcc_generated_files/mtouch/mtouch_sensor.c: 703:                 Sensor_setCalibrated(s
      +                          ensor);
  8084  0658  087A               	movf	Sensor_autoCalibration@sensor,w
  8085  0659  318A  2208  3185   	fcall	_Sensor_setCalibrated
  8086  065C                     l275:	
  8087  065C  0008               	return
  8088  065D                     __end_of_Sensor_autoCalibration:	
  8089                           
  8090                           	psect	text45
  8091  0B8D                     __ptext45:	
  8092 ;; *************** function _abs *****************
  8093 ;; Defined at:
  8094 ;;		line 1 in file "C:\Program Files (x86)\Microchip\xc8\v2.10\pic\sources\c99\common\abs.c"
  8095 ;; Parameters:    Size  Location     Type
  8096 ;;  a               2    1[COMMON] int 
  8097 ;; Auto vars:     Size  Location     Type
  8098 ;;		None
  8099 ;; Return value:  Size  Location     Type
  8100 ;;                  2    1[COMMON] int 
  8101 ;; Registers used:
  8102 ;;		wreg, status,2, status,0
  8103 ;; Tracked objects:
  8104 ;;		On entry : 0/0
  8105 ;;		On exit  : 0/0
  8106 ;;		Unchanged: 0/0
  8107 ;; Data sizes:     COMMON   BANK0   BANK1   BANK2   BANK3   BANK4   BANK5   BANK6
  8108 ;;      Params:         2       0       0       0       0       0       0       0
  8109 ;;      Locals:         0       0       0       0       0       0       0       0
  8110 ;;      Temps:          2       0       0       0       0       0       0       0
  8111 ;;      Totals:         4       0       0       0       0       0       0       0
  8112 ;;Total ram usage:        4 bytes
  8113 ;; Hardware stack levels used:    1
  8114 ;; Hardware stack levels required when called:    4
  8115 ;; This function calls:
  8116 ;;		Nothing
  8117 ;; This function is called by:
  8118 ;;		_Sensor_postAcquisitionProcess
  8119 ;;		_Sensor_Acq_ExecutePacket
  8120 ;;		_Sensor_autoCalibration
  8121 ;; This function uses a non-reentrant model
  8122 ;;
  8123                           
  8124                           
  8125                           ;psect for function _abs
  8126  0B8D                     _abs:	
  8127  0B8D                     l2728:	
  8128                           ;incstack = 0
  8129                           ; Regs used in _abs: [wreg+status,2+status,0]
  8130                           
  8131  0B8D  0872               	movf	abs@a+1,w
  8132  0B8E  3A80               	xorlw	128
  8133  0B8F  00F3               	movwf	??_abs
  8134  0B90  3080               	movlw	128
  8135  0B91  0273               	subwf	??_abs,w
  8136  0B92  1D03               	skipz
  8137  0B93  2B96               	goto	u1715
  8138  0B94  3001               	movlw	1
  8139  0B95  0271               	subwf	abs@a,w
  8140  0B96                     u1715:	
  8141  0B96  1803               	skipnc
  8142  0B97  2B99               	goto	u1711
  8143  0B98  2B9A               	goto	u1710
  8144  0B99                     u1711:	
  8145  0B99  2BA6               	goto	l1445
  8146  0B9A                     u1710:	
  8147  0B9A                     l2730:	
  8148  0B9A  0971               	comf	abs@a,w
  8149  0B9B  00F3               	movwf	??_abs
  8150  0B9C  0972               	comf	abs@a+1,w
  8151  0B9D  00F4               	movwf	??_abs+1
  8152  0B9E  0AF3               	incf	??_abs,f
  8153  0B9F  1903               	skipnz
  8154  0BA0  0AF4               	incf	??_abs+1,f
  8155  0BA1  0873               	movf	??_abs,w
  8156  0BA2  00F1               	movwf	?_abs
  8157  0BA3  0874               	movf	??_abs+1,w
  8158  0BA4  00F2               	movwf	?_abs+1
  8159  0BA5  2BA6               	goto	l1448
  8160  0BA6                     l1445:	
  8161  0BA6                     l1448:	
  8162  0BA6  0008               	return
  8163  0BA7                     __end_of_abs:	
  8164                           
  8165                           	psect	text46
  8166  0A08                     __ptext46:	
  8167 ;; *************** function _Sensor_setCalibrated *****************
  8168 ;; Defined at:
  8169 ;;		line 908 in file "mcc_generated_files/mtouch/mtouch_sensor.c"
  8170 ;; Parameters:    Size  Location     Type
  8171 ;;  sensor          1    wreg     PTR struct .
  8172 ;;		 -> NULL(0), mtouch_sensor(9), 
  8173 ;; Auto vars:     Size  Location     Type
  8174 ;;  sensor          1    1[COMMON] PTR struct .
  8175 ;;		 -> NULL(0), mtouch_sensor(9), 
  8176 ;; Return value:  Size  Location     Type
  8177 ;;                  1    wreg      void 
  8178 ;; Registers used:
  8179 ;;		wreg, fsr1l, fsr1h, status,2, status,0
  8180 ;; Tracked objects:
  8181 ;;		On entry : 0/0
  8182 ;;		On exit  : 0/0
  8183 ;;		Unchanged: 0/0
  8184 ;; Data sizes:     COMMON   BANK0   BANK1   BANK2   BANK3   BANK4   BANK5   BANK6
  8185 ;;      Params:         0       0       0       0       0       0       0       0
  8186 ;;      Locals:         1       0       0       0       0       0       0       0
  8187 ;;      Temps:          0       0       0       0       0       0       0       0
  8188 ;;      Totals:         1       0       0       0       0       0       0       0
  8189 ;;Total ram usage:        1 bytes
  8190 ;; Hardware stack levels used:    1
  8191 ;; Hardware stack levels required when called:    4
  8192 ;; This function calls:
  8193 ;;		Nothing
  8194 ;; This function is called by:
  8195 ;;		_Sensor_autoCalibration
  8196 ;; This function uses a non-reentrant model
  8197 ;;
  8198                           
  8199                           
  8200                           ;psect for function _Sensor_setCalibrated
  8201  0A08                     _Sensor_setCalibrated:	
  8202                           
  8203                           ;incstack = 0
  8204                           ; Regs used in _Sensor_setCalibrated: [wreg+fsr1l+fsr1h+status,2+status,0]
  8205                           ;Sensor_setCalibrated@sensor stored from wreg
  8206  0A08  00F1               	movwf	Sensor_setCalibrated@sensor
  8207  0A09                     l2738:	
  8208                           
  8209                           ;mcc_generated_files/mtouch/mtouch_sensor.c: 908: static __attribute__((inline)) void Se
      +                          nsor_setCalibrated(mtouch_sensor_t* sensor);mcc_generated_files/mtouch/mtouch_sensor.c: 
      +                          909: {;mcc_generated_files/mtouch/mtouch_sensor.c: 910:     sensor->calibrated = 1;
  8210  0A09  0871               	movf	Sensor_setCalibrated@sensor,w
  8211  0A0A  3E08               	addlw	8
  8212  0A0B  0086               	movwf	6
  8213  0A0C  0187               	clrf	7
  8214  0A0D  1501               	bsf	1,2
  8215                           
  8216                           ;mcc_generated_files/mtouch/mtouch_sensor.c: 911:     sensor->acqTime_cal = 0;
  8217  0A0E  0871               	movf	Sensor_setCalibrated@sensor,w
  8218  0A0F  3E08               	addlw	8
  8219  0A10  0086               	movwf	6
  8220  0A11  0187               	clrf	7
  8221  0A12  1201               	bcf	1,4
  8222  0A13                     l353:	
  8223  0A13  0008               	return
  8224  0A14                     __end_of_Sensor_setCalibrated:	
  8225                           
  8226                           	psect	text47
  8227  0A14                     __ptext47:	
  8228 ;; *************** function _Sensor_setCalibratAcqTime *****************
  8229 ;; Defined at:
  8230 ;;		line 914 in file "mcc_generated_files/mtouch/mtouch_sensor.c"
  8231 ;; Parameters:    Size  Location     Type
  8232 ;;  sensor          1    wreg     PTR struct .
  8233 ;;		 -> NULL(0), mtouch_sensor(9), 
  8234 ;; Auto vars:     Size  Location     Type
  8235 ;;  sensor          1    1[COMMON] PTR struct .
  8236 ;;		 -> NULL(0), mtouch_sensor(9), 
  8237 ;; Return value:  Size  Location     Type
  8238 ;;                  1    wreg      void 
  8239 ;; Registers used:
  8240 ;;		wreg, fsr1l, fsr1h, status,2, status,0
  8241 ;; Tracked objects:
  8242 ;;		On entry : 0/0
  8243 ;;		On exit  : 0/0
  8244 ;;		Unchanged: 0/0
  8245 ;; Data sizes:     COMMON   BANK0   BANK1   BANK2   BANK3   BANK4   BANK5   BANK6
  8246 ;;      Params:         0       0       0       0       0       0       0       0
  8247 ;;      Locals:         1       0       0       0       0       0       0       0
  8248 ;;      Temps:          0       0       0       0       0       0       0       0
  8249 ;;      Totals:         1       0       0       0       0       0       0       0
  8250 ;;Total ram usage:        1 bytes
  8251 ;; Hardware stack levels used:    1
  8252 ;; Hardware stack levels required when called:    4
  8253 ;; This function calls:
  8254 ;;		Nothing
  8255 ;; This function is called by:
  8256 ;;		_Sensor_autoCalibration
  8257 ;; This function uses a non-reentrant model
  8258 ;;
  8259                           
  8260                           
  8261                           ;psect for function _Sensor_setCalibratAcqTime
  8262  0A14                     _Sensor_setCalibratAcqTime:	
  8263                           
  8264                           ;incstack = 0
  8265                           ; Regs used in _Sensor_setCalibratAcqTime: [wreg+fsr1l+fsr1h+status,2+status,0]
  8266                           ;Sensor_setCalibratAcqTime@sensor stored from wreg
  8267  0A14  00F1               	movwf	Sensor_setCalibratAcqTime@sensor
  8268  0A15                     l2736:	
  8269                           
  8270                           ;mcc_generated_files/mtouch/mtouch_sensor.c: 914: static __attribute__((inline)) void Se
      +                          nsor_setCalibratAcqTime(mtouch_sensor_t* sensor);mcc_generated_files/mtouch/mtouch_senso
      +                          r.c: 915: {;mcc_generated_files/mtouch/mtouch_sensor.c: 916:     sensor->acqTime_cal = 1
      +                          ;
  8271  0A15  0871               	movf	Sensor_setCalibratAcqTime@sensor,w
  8272  0A16  3E08               	addlw	8
  8273  0A17  0086               	movwf	6
  8274  0A18  0187               	clrf	7
  8275  0A19  1601               	bsf	1,4
  8276                           
  8277                           ;mcc_generated_files/mtouch/mtouch_sensor.c: 917:     sensor->acquisition_time = (mtouch
      +                          _sensor_time_t)1;
  8278  0A1A  0871               	movf	Sensor_setCalibratAcqTime@sensor,w
  8279  0A1B  3E03               	addlw	3
  8280  0A1C  0086               	movwf	6
  8281  0A1D  0187               	clrf	7
  8282  0A1E  0181               	clrf	1
  8283  0A1F  0A81               	incf	1,f
  8284  0A20                     l356:	
  8285  0A20  0008               	return
  8286  0A21                     __end_of_Sensor_setCalibratAcqTime:	
  8287                           
  8288                           	psect	text48
  8289  09E6                     __ptext48:	
  8290 ;; *************** function _Sensor_isCalibratingAcqTime *****************
  8291 ;; Defined at:
  8292 ;;		line 920 in file "mcc_generated_files/mtouch/mtouch_sensor.c"
  8293 ;; Parameters:    Size  Location     Type
  8294 ;;  sensor          1    wreg     PTR struct .
  8295 ;;		 -> NULL(0), mtouch_sensor(9), 
  8296 ;; Auto vars:     Size  Location     Type
  8297 ;;  sensor          1    1[COMMON] PTR struct .
  8298 ;;		 -> NULL(0), mtouch_sensor(9), 
  8299 ;; Return value:  Size  Location     Type
  8300 ;;                  1    wreg      _Bool 
  8301 ;; Registers used:
  8302 ;;		wreg, fsr1l, fsr1h, status,2, status,0
  8303 ;; Tracked objects:
  8304 ;;		On entry : 0/0
  8305 ;;		On exit  : 0/0
  8306 ;;		Unchanged: 0/0
  8307 ;; Data sizes:     COMMON   BANK0   BANK1   BANK2   BANK3   BANK4   BANK5   BANK6
  8308 ;;      Params:         0       0       0       0       0       0       0       0
  8309 ;;      Locals:         1       0       0       0       0       0       0       0
  8310 ;;      Temps:          0       0       0       0       0       0       0       0
  8311 ;;      Totals:         1       0       0       0       0       0       0       0
  8312 ;;Total ram usage:        1 bytes
  8313 ;; Hardware stack levels used:    1
  8314 ;; Hardware stack levels required when called:    4
  8315 ;; This function calls:
  8316 ;;		Nothing
  8317 ;; This function is called by:
  8318 ;;		_Sensor_loadADCSettings
  8319 ;;		_Sensor_autoCalibration
  8320 ;; This function uses a non-reentrant model
  8321 ;;
  8322                           
  8323                           
  8324                           ;psect for function _Sensor_isCalibratingAcqTime
  8325  09E6                     _Sensor_isCalibratingAcqTime:	
  8326                           
  8327                           ;incstack = 0
  8328                           ; Regs used in _Sensor_isCalibratingAcqTime: [wreg+fsr1l+fsr1h+status,2+status,0]
  8329                           ;Sensor_isCalibratingAcqTime@sensor stored from wreg
  8330  09E6  00F1               	movwf	Sensor_isCalibratingAcqTime@sensor
  8331  09E7                     l2732:	
  8332                           
  8333                           ;mcc_generated_files/mtouch/mtouch_sensor.c: 920: static __attribute__((inline)) _Bool S
      +                          ensor_isCalibratingAcqTime(mtouch_sensor_t* sensor);mcc_generated_files/mtouch/mtouch_se
      +                          nsor.c: 921: {;mcc_generated_files/mtouch/mtouch_sensor.c: 922:     return (_Bool)sensor
      +                          ->acqTime_cal;
  8334  09E7  0871               	movf	Sensor_isCalibratingAcqTime@sensor,w
  8335  09E8  3E08               	addlw	8
  8336  09E9  0086               	movwf	6
  8337  09EA  0187               	clrf	7
  8338  09EB  0E01               	swapf	1,w
  8339  09EC  3901               	andlw	1
  8340  09ED                     l359:	
  8341  09ED  0008               	return
  8342  09EE                     __end_of_Sensor_isCalibratingAcqTime:	
  8343                           
  8344                           	psect	text49
  8345  0D68                     __ptext49:	
  8346 ;; *************** function _Sensor_getScanGroupIndex *****************
  8347 ;; Defined at:
  8348 ;;		line 337 in file "mcc_generated_files/mtouch/mtouch_sensor.c"
  8349 ;; Parameters:    Size  Location     Type
  8350 ;;  sensor          1    wreg     PTR struct .
  8351 ;;		 -> NULL(0), mtouch_sensor(9), 
  8352 ;; Auto vars:     Size  Location     Type
  8353 ;;  sensor          1    3[COMMON] PTR struct .
  8354 ;;		 -> NULL(0), mtouch_sensor(9), 
  8355 ;;  sensorGroup     1    4[COMMON] unsigned char 
  8356 ;; Return value:  Size  Location     Type
  8357 ;;                  1    wreg      unsigned char 
  8358 ;; Registers used:
  8359 ;;		wreg, fsr0l, fsr0h, status,2, status,0, pclath
  8360 ;; Tracked objects:
  8361 ;;		On entry : 0/0
  8362 ;;		On exit  : 0/0
  8363 ;;		Unchanged: 0/0
  8364 ;; Data sizes:     COMMON   BANK0   BANK1   BANK2   BANK3   BANK4   BANK5   BANK6
  8365 ;;      Params:         0       0       0       0       0       0       0       0
  8366 ;;      Locals:         2       0       0       0       0       0       0       0
  8367 ;;      Temps:          2       0       0       0       0       0       0       0
  8368 ;;      Totals:         4       0       0       0       0       0       0       0
  8369 ;;Total ram usage:        4 bytes
  8370 ;; Hardware stack levels used:    1
  8371 ;; Hardware stack levels required when called:    4
  8372 ;; This function calls:
  8373 ;;		Nothing
  8374 ;; This function is called by:
  8375 ;;		_Sensor_postAcquisitionProcess
  8376 ;;		_Sensor_autoCalibration
  8377 ;;		_Sensor_RawSample_Update
  8378 ;; This function uses a non-reentrant model
  8379 ;;
  8380                           
  8381                           
  8382                           ;psect for function _Sensor_getScanGroupIndex
  8383  0D68                     _Sensor_getScanGroupIndex:	
  8384                           
  8385                           ;incstack = 0
  8386                           ; Regs used in _Sensor_getScanGroupIndex: [wreg-fsr0h+status,2+status,0+pclath]
  8387                           ;Sensor_getScanGroupIndex@sensor stored from wreg
  8388  0D68  00F3               	movwf	Sensor_getScanGroupIndex@sensor
  8389  0D69                     l2700:	
  8390                           
  8391                           ;mcc_generated_files/mtouch/mtouch_sensor.c: 337: static uint8_t Sensor_getScanGroupInde
      +                          x(mtouch_sensor_t* sensor);mcc_generated_files/mtouch/mtouch_sensor.c: 338: {;mcc_genera
      +                          ted_files/mtouch/mtouch_sensor.c: 339:     uint8_t sensorGroup;;mcc_generated_files/mtou
      +                          ch/mtouch_sensor.c: 340:     for(sensorGroup = 0; sensorGroup < 1u; sensorGroup++)
  8392  0D69  01F4               	clrf	Sensor_getScanGroupIndex@sensorGroup
  8393  0D6A                     l2706:	
  8394                           
  8395                           ;mcc_generated_files/mtouch/mtouch_sensor.c: 341:     {;mcc_generated_files/mtouch/mtouc
      +                          h_sensor.c: 342:         if(sensor_scan_group[sensorGroup].sensor_adc1 == sensor)
  8396  0D6A  0874               	movf	Sensor_getScanGroupIndex@sensorGroup,w
  8397  0D6B  00F1               	movwf	??_Sensor_getScanGroupIndex
  8398  0D6C  01F2               	clrf	??_Sensor_getScanGroupIndex+1
  8399  0D6D  35F1               	lslf	??_Sensor_getScanGroupIndex,f
  8400  0D6E  0DF2               	rlf	??_Sensor_getScanGroupIndex+1,f
  8401  0D6F  3017               	movlw	low (_sensor_scan_group| (0+32768))
  8402  0D70  0771               	addwf	??_Sensor_getScanGroupIndex,w
  8403  0D71  0084               	movwf	4
  8404  0D72  3090               	movlw	high (_sensor_scan_group| (0+32768))
  8405  0D73  3D72               	addwfc	??_Sensor_getScanGroupIndex+1,w
  8406  0D74  0085               	movwf	5
  8407  0D75  0800               	movf	0,w	;code access
  8408  0D76  0673               	xorwf	Sensor_getScanGroupIndex@sensor,w
  8409  0D77  1D03               	skipz
  8410  0D78  2D7A               	goto	u1681
  8411  0D79  2D7B               	goto	u1680
  8412  0D7A                     u1681:	
  8413  0D7A  2D7D               	goto	l2712
  8414  0D7B                     u1680:	
  8415  0D7B                     l2708:	
  8416                           
  8417                           ;mcc_generated_files/mtouch/mtouch_sensor.c: 343:             return 0;
  8418  0D7B  3000               	movlw	0
  8419  0D7C  2D9A               	goto	l177
  8420  0D7D                     l2712:	
  8421                           
  8422                           ;mcc_generated_files/mtouch/mtouch_sensor.c: 344:         if(sensor_scan_group[sensorGro
      +                          up].sensor_adc2 == sensor)
  8423  0D7D  0874               	movf	Sensor_getScanGroupIndex@sensorGroup,w
  8424  0D7E  00F1               	movwf	??_Sensor_getScanGroupIndex
  8425  0D7F  01F2               	clrf	??_Sensor_getScanGroupIndex+1
  8426  0D80  35F1               	lslf	??_Sensor_getScanGroupIndex,f
  8427  0D81  0DF2               	rlf	??_Sensor_getScanGroupIndex+1,f
  8428  0D82  3018               	movlw	low ((_sensor_scan_group+1)| (0+32768))
  8429  0D83  0771               	addwf	??_Sensor_getScanGroupIndex,w
  8430  0D84  0084               	movwf	4
  8431  0D85  3090               	movlw	high ((_sensor_scan_group+1)| (0+32768))
  8432  0D86  3D72               	addwfc	??_Sensor_getScanGroupIndex+1,w
  8433  0D87  0085               	movwf	5
  8434  0D88  0800               	movf	0,w	;code access
  8435  0D89  0673               	xorwf	Sensor_getScanGroupIndex@sensor,w
  8436  0D8A  1D03               	skipz
  8437  0D8B  2D8D               	goto	u1691
  8438  0D8C  2D8E               	goto	u1690
  8439  0D8D                     u1691:	
  8440  0D8D  2D90               	goto	l2718
  8441  0D8E                     u1690:	
  8442  0D8E                     l2714:	
  8443                           
  8444                           ;mcc_generated_files/mtouch/mtouch_sensor.c: 345:             return 1;
  8445  0D8E  3001               	movlw	1
  8446  0D8F  2D9A               	goto	l177
  8447  0D90                     l2718:	
  8448                           
  8449                           ;mcc_generated_files/mtouch/mtouch_sensor.c: 346:     }
  8450  0D90  3001               	movlw	1
  8451  0D91  00F1               	movwf	??_Sensor_getScanGroupIndex
  8452  0D92  0871               	movf	??_Sensor_getScanGroupIndex,w
  8453  0D93  07F4               	addwf	Sensor_getScanGroupIndex@sensorGroup,f
  8454  0D94  0874               	movf	Sensor_getScanGroupIndex@sensorGroup,w
  8455  0D95  1903               	btfsc	3,2
  8456  0D96  2D98               	goto	u1701
  8457  0D97  2D99               	goto	u1700
  8458  0D98                     u1701:	
  8459  0D98  2D6A               	goto	l2706
  8460  0D99                     u1700:	
  8461  0D99  2D7B               	goto	l2708
  8462  0D9A                     l177:	
  8463  0D9A  0008               	return
  8464  0D9B                     __end_of_Sensor_getScanGroupIndex:	
  8465                           
  8466                           	psect	text50
  8467  0A6A                     __ptext50:	
  8468 ;; *************** function _MTOUCH_Sensor_Scan_Initialize *****************
  8469 ;; Defined at:
  8470 ;;		line 222 in file "mcc_generated_files/mtouch/mtouch_sensor.c"
  8471 ;; Parameters:    Size  Location     Type
  8472 ;;		None
  8473 ;; Auto vars:     Size  Location     Type
  8474 ;;		None
  8475 ;; Return value:  Size  Location     Type
  8476 ;;                  1    wreg      void 
  8477 ;; Registers used:
  8478 ;;		wreg, status,2, status,0
  8479 ;; Tracked objects:
  8480 ;;		On entry : 0/0
  8481 ;;		On exit  : 0/0
  8482 ;;		Unchanged: 0/0
  8483 ;; Data sizes:     COMMON   BANK0   BANK1   BANK2   BANK3   BANK4   BANK5   BANK6
  8484 ;;      Params:         0       0       0       0       0       0       0       0
  8485 ;;      Locals:         0       0       0       0       0       0       0       0
  8486 ;;      Temps:          0       0       0       0       0       0       0       0
  8487 ;;      Totals:         0       0       0       0       0       0       0       0
  8488 ;;Total ram usage:        0 bytes
  8489 ;; Hardware stack levels used:    1
  8490 ;; Hardware stack levels required when called:    4
  8491 ;; This function calls:
  8492 ;;		Nothing
  8493 ;; This function is called by:
  8494 ;;		_Sensor_Acq_ExecutePacket
  8495 ;;		_MTOUCH_Initialize
  8496 ;; This function uses a non-reentrant model
  8497 ;;
  8498                           
  8499                           
  8500                           ;psect for function _MTOUCH_Sensor_Scan_Initialize
  8501  0A6A                     _MTOUCH_Sensor_Scan_Initialize:	
  8502  0A6A                     l2740:	
  8503                           ;incstack = 0
  8504                           ; Regs used in _MTOUCH_Sensor_Scan_Initialize: [wreg+status,2+status,0]
  8505                           
  8506                           
  8507                           ;mcc_generated_files/mtouch/mtouch_sensor.c: 224:     T2CONbits.T2CKPS = 0x0;
  8508  0A6A  30FC               	movlw	-4
  8509  0A6B  0020               	movlb	0	; select bank0
  8510  0A6C  059C               	andwf	28,f	;volatile
  8511  0A6D                     l2742:	
  8512                           
  8513                           ;mcc_generated_files/mtouch/mtouch_sensor.c: 226:     AD1CON0 = (uint8_t)0;
  8514  0A6D  002E               	movlb	14	; select bank14
  8515  0A6E  0191               	clrf	17	;volatile
  8516  0A6F                     l2744:	
  8517                           
  8518                           ;mcc_generated_files/mtouch/mtouch_sensor.c: 227:     AD2CON0 = (uint8_t)0;
  8519  0A6F  002F               	movlb	15	; select bank15
  8520  0A70  0191               	clrf	17	;volatile
  8521  0A71                     l2746:	
  8522                           
  8523                           ;mcc_generated_files/mtouch/mtouch_sensor.c: 228:     ADCOMCON = (uint8_t)( 0x1<<7 | 0x0
      +                          <<4 | 0x0 );
  8524  0A71  3080               	movlw	128
  8525  0A72  002E               	movlb	14	; select bank14
  8526  0A73  0092               	movwf	18	;volatile
  8527  0A74                     l2748:	
  8528                           
  8529                           ;mcc_generated_files/mtouch/mtouch_sensor.c: 229:     AD1CON3 = (uint8_t)0b01000000;
  8530  0A74  3040               	movlw	64
  8531  0A75  0094               	movwf	20	;volatile
  8532  0A76                     l2750:	
  8533                           
  8534                           ;mcc_generated_files/mtouch/mtouch_sensor.c: 230:     AD2CON3 = (uint8_t)0b01000000;
  8535  0A76  3040               	movlw	64
  8536  0A77  002F               	movlb	15	; select bank15
  8537  0A78  0094               	movwf	20	;volatile
  8538  0A79                     l137:	
  8539  0A79  0008               	return
  8540  0A7A                     __end_of_MTOUCH_Sensor_Scan_Initialize:	
  8541                           
  8542                           	psect	text51
  8543  098B                     __ptext51:	
  8544 ;; *************** function _MTOUCH_Proximity_ServiceAll *****************
  8545 ;; Defined at:
  8546 ;;		line 160 in file "mcc_generated_files/mtouch/mtouch_proximity.c"
  8547 ;; Parameters:    Size  Location     Type
  8548 ;;		None
  8549 ;; Auto vars:     Size  Location     Type
  8550 ;;		None
  8551 ;; Return value:  Size  Location     Type
  8552 ;;                  1    wreg      void 
  8553 ;; Registers used:
  8554 ;;		wreg, fsr1l, fsr1h, status,2, status,0, pclath, cstack
  8555 ;; Tracked objects:
  8556 ;;		On entry : 0/0
  8557 ;;		On exit  : 0/0
  8558 ;;		Unchanged: 0/0
  8559 ;; Data sizes:     COMMON   BANK0   BANK1   BANK2   BANK3   BANK4   BANK5   BANK6
  8560 ;;      Params:         0       0       0       0       0       0       0       0
  8561 ;;      Locals:         0       0       0       0       0       0       0       0
  8562 ;;      Temps:          0       0       0       0       0       0       0       0
  8563 ;;      Totals:         0       0       0       0       0       0       0       0
  8564 ;;Total ram usage:        0 bytes
  8565 ;; Hardware stack levels used:    1
  8566 ;; Hardware stack levels required when called:    9
  8567 ;; This function calls:
  8568 ;;		_Proximity_Service
  8569 ;; This function is called by:
  8570 ;;		_MTOUCH_Service_Mainloop
  8571 ;; This function uses a non-reentrant model
  8572 ;;
  8573                           
  8574                           
  8575                           ;psect for function _MTOUCH_Proximity_ServiceAll
  8576  098B                     _MTOUCH_Proximity_ServiceAll:	
  8577  098B                     l4294:	
  8578                           ;incstack = 0
  8579                           ; Regs used in _MTOUCH_Proximity_ServiceAll: [wreg+fsr1l+fsr1h+status,2+status,0+pclath+
      +                          cstack]
  8580                           
  8581                           
  8582                           ;mcc_generated_files/mtouch/mtouch_proximity.c: 163:     Proximity_Service(Proximity0);
  8583  098B  3000               	movlw	0
  8584  098C  318E  26DA  3189   	fcall	_Proximity_Service
  8585  098F                     l800:	
  8586  098F  0008               	return
  8587  0990                     __end_of_MTOUCH_Proximity_ServiceAll:	
  8588                           
  8589                           	psect	text52
  8590  0EDA                     __ptext52:	
  8591 ;; *************** function _Proximity_Service *****************
  8592 ;; Defined at:
  8593 ;;		line 171 in file "mcc_generated_files/mtouch/mtouch_proximity.c"
  8594 ;; Parameters:    Size  Location     Type
  8595 ;;  name            1    wreg     enum E3067
  8596 ;; Auto vars:     Size  Location     Type
  8597 ;;  name            1   20[BANK0 ] enum E3067
  8598 ;;  prox            1   21[BANK0 ] PTR struct .
  8599 ;;		 -> mtouch_proximity(18), 
  8600 ;; Return value:  Size  Location     Type
  8601 ;;                  1    wreg      void 
  8602 ;; Registers used:
  8603 ;;		wreg, fsr1l, fsr1h, status,2, status,0, pclath, cstack
  8604 ;; Tracked objects:
  8605 ;;		On entry : 0/0
  8606 ;;		On exit  : 0/0
  8607 ;;		Unchanged: 0/0
  8608 ;; Data sizes:     COMMON   BANK0   BANK1   BANK2   BANK3   BANK4   BANK5   BANK6
  8609 ;;      Params:         0       0       0       0       0       0       0       0
  8610 ;;      Locals:         0       2       0       0       0       0       0       0
  8611 ;;      Temps:          1       0       0       0       0       0       0       0
  8612 ;;      Totals:         1       2       0       0       0       0       0       0
  8613 ;;Total ram usage:        3 bytes
  8614 ;; Hardware stack levels used:    1
  8615 ;; Hardware stack levels required when called:    8
  8616 ;; This function calls:
  8617 ;;		_MTOUCH_Proximity_Initialize
  8618 ;;		_MTOUCH_Sensor_isCalibrated
  8619 ;;		_MTOUCH_Sensor_wasSampled
  8620 ;;		_Proximity_Deviation_Update
  8621 ;;		_Proximity_Reading_Update
  8622 ;;		_Proximity_State_Activated
  8623 ;;		_Proximity_State_Initializing
  8624 ;;		_Proximity_State_NotActivated
  8625 ;; This function is called by:
  8626 ;;		_MTOUCH_Proximity_ServiceAll
  8627 ;; This function uses a non-reentrant model
  8628 ;;
  8629                           
  8630                           
  8631                           ;psect for function _Proximity_Service
  8632  0EDA                     _Proximity_Service:	
  8633                           
  8634                           ;incstack = 0
  8635                           ; Regs used in _Proximity_Service: [wreg+fsr1l+fsr1h+status,2+status,0+pclath+cstack]
  8636                           ;Proximity_Service@name stored from wreg
  8637  0EDA  0020               	movlb	0	; select bank0
  8638  0EDB  00B4               	movwf	Proximity_Service@name
  8639  0EDC                     l4256:	
  8640                           
  8641                           ;mcc_generated_files/mtouch/mtouch_proximity.c: 171: static void Proximity_Service(enum 
      +                          mtouch_proximity_names name);mcc_generated_files/mtouch/mtouch_proximity.c: 172: {;mcc_g
      +                          enerated_files/mtouch/mtouch_proximity.c: 173:     mtouch_proximity_t* prox = &mtouch_pr
      +                          oximity[name];
  8642  0EDC  0E34               	swapf	Proximity_Service@name,w
  8643  0EDD  39F0               	andlw	240
  8644  0EDE  0734               	addwf	Proximity_Service@name,w
  8645  0EDF  0734               	addwf	Proximity_Service@name,w
  8646  0EE0  3E58               	addlw	(low (_mtouch_proximity| 0))& (0+255)
  8647  0EE1  00FB               	movwf	??_Proximity_Service
  8648  0EE2  087B               	movf	??_Proximity_Service,w
  8649  0EE3  00B5               	movwf	Proximity_Service@prox
  8650  0EE4                     l4258:	
  8651                           
  8652                           ;mcc_generated_files/mtouch/mtouch_proximity.c: 175:     if (MTOUCH_Sensor_wasSampled(pr
      +                          ox->sensor) && MTOUCH_Sensor_isCalibrated(prox->sensor))
  8653  0EE4  0A35               	incf	Proximity_Service@prox,w
  8654  0EE5  0086               	movwf	6
  8655  0EE6  0187               	clrf	7
  8656  0EE7  0801               	movf	1,w
  8657  0EE8  318A  222E  318E   	fcall	_MTOUCH_Sensor_wasSampled
  8658  0EEB  3A00               	xorlw	0
  8659  0EEC  1903               	skipnz
  8660  0EED  2EEF               	goto	u3931
  8661  0EEE  2EF0               	goto	u3930
  8662  0EEF                     u3931:	
  8663  0EEF  2F2B               	goto	l805
  8664  0EF0                     u3930:	
  8665  0EF0                     l4260:	
  8666  0EF0  0020               	movlb	0	; select bank0
  8667  0EF1  0A35               	incf	Proximity_Service@prox,w
  8668  0EF2  0086               	movwf	6
  8669  0EF3  0187               	clrf	7
  8670  0EF4  0801               	movf	1,w
  8671  0EF5  318B  2312  318E   	fcall	_MTOUCH_Sensor_isCalibrated
  8672  0EF8  3A00               	xorlw	0
  8673  0EF9  1903               	skipnz
  8674  0EFA  2EFC               	goto	u3941
  8675  0EFB  2EFD               	goto	u3940
  8676  0EFC                     u3941:	
  8677  0EFC  2F2B               	goto	l805
  8678  0EFD                     u3940:	
  8679  0EFD                     l4262:	
  8680                           
  8681                           ;mcc_generated_files/mtouch/mtouch_proximity.c: 176:     {;mcc_generated_files/mtouch/mt
      +                          ouch_proximity.c: 177:         Proximity_Reading_Update(prox);
  8682  0EFD  0020               	movlb	0	; select bank0
  8683  0EFE  0835               	movf	Proximity_Service@prox,w
  8684  0EFF  318A  227A  318E   	fcall	_Proximity_Reading_Update
  8685                           
  8686                           ;mcc_generated_files/mtouch/mtouch_proximity.c: 178:         Proximity_Deviation_Update(
      +                          name);
  8687  0F02  0020               	movlb	0	; select bank0
  8688  0F03  0834               	movf	Proximity_Service@name,w
  8689  0F04  3182  2280  318E   	fcall	_Proximity_Deviation_Update
  8690  0F07                     l4264:	
  8691                           
  8692                           ;mcc_generated_files/mtouch/mtouch_proximity.c: 180:         if (prox->state >= (uint8_t
      +                          )(sizeof(Proximity_StateMachine)/sizeof(proximity_statemachine_state_t)))
  8693  0F07  0020               	movlb	0	; select bank0
  8694  0F08  0835               	movf	Proximity_Service@prox,w
  8695  0F09  3E02               	addlw	2
  8696  0F0A  0086               	movwf	6
  8697  0F0B  0187               	clrf	7
  8698  0F0C  3003               	movlw	3
  8699  0F0D  0201               	subwf	1,w
  8700  0F0E  1C03               	skipc
  8701  0F0F  2F11               	goto	u3951
  8702  0F10  2F12               	goto	u3950
  8703  0F11                     u3951:	
  8704  0F11  2F19               	goto	l804
  8705  0F12                     u3950:	
  8706  0F12                     l4266:	
  8707                           
  8708                           ;mcc_generated_files/mtouch/mtouch_proximity.c: 181:         {;mcc_generated_files/mtouc
      +                          h/mtouch_proximity.c: 182:             MTOUCH_Proximity_Initialize(prox->name);
  8709  0F12  0835               	movf	Proximity_Service@prox,w
  8710  0F13  0086               	movwf	6
  8711  0F14  0187               	clrf	7
  8712  0F15  0801               	movf	1,w
  8713  0F16  318C  249A  318E   	fcall	_MTOUCH_Proximity_Initialize
  8714  0F19                     l804:	
  8715                           ;mcc_generated_files/mtouch/mtouch_proximity.c: 183:         }
  8716                           
  8717                           
  8718                           ;mcc_generated_files/mtouch/mtouch_proximity.c: 184:         Proximity_StateMachine[prox
      +                          ->state](prox);
  8719  0F19  0020               	movlb	0	; select bank0
  8720  0F1A  0835               	movf	Proximity_Service@prox,w
  8721  0F1B  00FB               	movwf	??_Proximity_Service
  8722  0F1C  087B               	movf	??_Proximity_Service,w
  8723  0F1D  00A5               	movwf	Proximity_State_Activated@prox
  8724  0F1E  0835               	movf	Proximity_Service@prox,w
  8725  0F1F  3E02               	addlw	2
  8726  0F20  0086               	movwf	6
  8727  0F21  0187               	clrf	7
  8728  0F22  3501               	lslf	1,w
  8729  0F23  3EB8               	addlw	(low (_Proximity_StateMachine| 0))& (0+255)
  8730  0F24  0086               	movwf	6
  8731  0F25  0187               	clrf	7
  8732  0F26  3F41               	moviw [1]fsr1
  8733  0F27  008A               	movwf	10
  8734  0F28  3F40               	moviw [0]fsr1
  8735  0F29  000A               	callw
  8736  0F2A  318E               	pagesel	$
  8737  0F2B                     l805:	
  8738  0F2B  0008               	return
  8739  0F2C                     __end_of_Proximity_Service:	
  8740                           
  8741                           	psect	text53
  8742  0F2C                     __ptext53:	
  8743 ;; *************** function _Proximity_State_Activated *****************
  8744 ;; Defined at:
  8745 ;;		line 241 in file "mcc_generated_files/mtouch/mtouch_proximity.c"
  8746 ;; Parameters:    Size  Location     Type
  8747 ;;  prox            1    5[BANK0 ] PTR struct .
  8748 ;;		 -> mtouch_proximity(18), 
  8749 ;; Auto vars:     Size  Location     Type
  8750 ;;		None
  8751 ;; Return value:  Size  Location     Type
  8752 ;;                  1    wreg      void 
  8753 ;; Registers used:
  8754 ;;		wreg, fsr1l, fsr1h, status,2, status,0, pclath, cstack
  8755 ;; Tracked objects:
  8756 ;;		On entry : 0/0
  8757 ;;		On exit  : 0/0
  8758 ;;		Unchanged: 0/0
  8759 ;; Data sizes:     COMMON   BANK0   BANK1   BANK2   BANK3   BANK4   BANK5   BANK6
  8760 ;;      Params:         0       1       0       0       0       0       0       0
  8761 ;;      Locals:         0       0       0       0       0       0       0       0
  8762 ;;      Temps:          0       6       0       0       0       0       0       0
  8763 ;;      Totals:         0       7       0       0       0       0       0       0
  8764 ;;Total ram usage:        7 bytes
  8765 ;; Hardware stack levels used:    1
  8766 ;; Hardware stack levels required when called:    5
  8767 ;; This function calls:
  8768 ;;		_MTOUCH_Proximity_Initialize
  8769 ;; This function is called by:
  8770 ;;		_Proximity_Service
  8771 ;; This function uses a non-reentrant model
  8772 ;;
  8773                           
  8774                           
  8775                           ;psect for function _Proximity_State_Activated
  8776  0F2C                     _Proximity_State_Activated:	
  8777  0F2C                     l3352:	
  8778                           ;incstack = 0
  8779                           ; Regs used in _Proximity_State_Activated: [wreg+fsr1l+fsr1h+status,2+status,0+pclath+cs
      +                          tack]
  8780                           
  8781                           
  8782                           ;mcc_generated_files/mtouch/mtouch_proximity.c: 241: static void Proximity_State_Activat
      +                          ed(mtouch_proximity_t* prox);mcc_generated_files/mtouch/mtouch_proximity.c: 242: {;mcc_g
      +                          enerated_files/mtouch/mtouch_proximity.c: 244:     if ((prox->counter) >= ((mtouch_prox_
      +                          statecounter_t)1000u))
  8783  0F2C  0020               	movlb	0	; select bank0
  8784  0F2D  0825               	movf	Proximity_State_Activated@prox,w
  8785  0F2E  3E0C               	addlw	12
  8786  0F2F  0086               	movwf	6
  8787  0F30  0187               	clrf	7
  8788  0F31  3F40               	moviw [0]fsr1
  8789  0F32  00A6               	movwf	??_Proximity_State_Activated
  8790  0F33  3F41               	moviw [1]fsr1
  8791  0F34  00A7               	movwf	??_Proximity_State_Activated+1
  8792  0F35  3003               	movlw	3
  8793  0F36  0227               	subwf	??_Proximity_State_Activated+1,w
  8794  0F37  30E8               	movlw	232
  8795  0F38  1903               	skipnz
  8796  0F39  0226               	subwf	??_Proximity_State_Activated,w
  8797  0F3A  1C03               	skipc
  8798  0F3B  2F3D               	goto	u2701
  8799  0F3C  2F3E               	goto	u2700
  8800  0F3D                     u2701:	
  8801  0F3D  2F46               	goto	l3356
  8802  0F3E                     u2700:	
  8803  0F3E                     l3354:	
  8804                           
  8805                           ;mcc_generated_files/mtouch/mtouch_proximity.c: 245:     {;mcc_generated_files/mtouch/mt
      +                          ouch_proximity.c: 246:         MTOUCH_Proximity_Initialize(prox->name);
  8806  0F3E  0825               	movf	Proximity_State_Activated@prox,w
  8807  0F3F  0086               	movwf	6
  8808  0F40  0187               	clrf	7
  8809  0F41  0801               	movf	1,w
  8810  0F42  318C  249A  318F   	fcall	_MTOUCH_Proximity_Initialize
  8811                           
  8812                           ;mcc_generated_files/mtouch/mtouch_proximity.c: 247:     }
  8813  0F45  2F92               	goto	l826
  8814  0F46                     l3356:	
  8815  0F46  0825               	movf	Proximity_State_Activated@prox,w
  8816  0F47  3E10               	addlw	16
  8817  0F48  0086               	movwf	6
  8818  0F49  0187               	clrf	7
  8819  0F4A  0801               	movf	1,w
  8820  0F4B  00A6               	movwf	??_Proximity_State_Activated
  8821  0F4C  3001               	movlw	1
  8822  0F4D                     u2715:	
  8823  0F4D  1003               	clrc
  8824  0F4E  1BA6               	btfsc	??_Proximity_State_Activated,7
  8825  0F4F  1403               	setc
  8826  0F50  0CA6               	rrf	??_Proximity_State_Activated,f
  8827  0F51  0B89               	decfsz	9,f
  8828  0F52  2F4D               	goto	u2715
  8829  0F53  0825               	movf	Proximity_State_Activated@prox,w
  8830  0F54  3E10               	addlw	16
  8831  0F55  0086               	movwf	6
  8832  0F56  0187               	clrf	7
  8833  0F57  0826               	movf	??_Proximity_State_Activated,w
  8834  0F58  0201               	subwf	1,w
  8835  0F59  00A7               	movwf	??_Proximity_State_Activated+1
  8836  0F5A  01A8               	clrf	??_Proximity_State_Activated+2
  8837  0F5B  1C03               	skipc
  8838  0F5C  03A8               	decf	??_Proximity_State_Activated+2,f
  8839  0F5D  1F81               	btfss	1,7
  8840  0F5E  2F60               	goto	u2725n
  8841  0F5F  03A8               	decf	??_Proximity_State_Activated+2,f
  8842  0F60                     u2725n:	
  8843  0F60  0020               	movlb	0	; select bank0
  8844  0F61  1FA6               	btfss	??_Proximity_State_Activated,7
  8845  0F62  2F64               	goto	u2725o
  8846  0F63  0AA8               	incf	??_Proximity_State_Activated+2,f
  8847  0F64                     u2725o:	
  8848  0F64  0020               	movlb	0	; select bank0
  8849  0F65  0825               	movf	Proximity_State_Activated@prox,w
  8850  0F66  3E0B               	addlw	11
  8851  0F67  0086               	movwf	6
  8852  0F68  0187               	clrf	7
  8853  0F69  0801               	movf	1,w
  8854  0F6A  00A9               	movwf	??_Proximity_State_Activated+3
  8855  0F6B  01AA               	clrf	??_Proximity_State_Activated+4
  8856  0F6C  1BA9               	btfsc	??_Proximity_State_Activated+3,7
  8857  0F6D  03AA               	decf	??_Proximity_State_Activated+4,f
  8858  0F6E  082A               	movf	??_Proximity_State_Activated+4,w
  8859  0F6F  3A80               	xorlw	128
  8860  0F70  00AB               	movwf	??_Proximity_State_Activated+5
  8861  0F71  0828               	movf	??_Proximity_State_Activated+2,w
  8862  0F72  3A80               	xorlw	128
  8863  0F73  022B               	subwf	??_Proximity_State_Activated+5,w
  8864  0F74  1D03               	skipz
  8865  0F75  2F78               	goto	u2735
  8866  0F76  0827               	movf	??_Proximity_State_Activated+1,w
  8867  0F77  0229               	subwf	??_Proximity_State_Activated+3,w
  8868  0F78                     u2735:	
  8869  0F78  1803               	skipnc
  8870  0F79  2F7B               	goto	u2731
  8871  0F7A  2F7C               	goto	u2730
  8872  0F7B                     u2731:	
  8873  0F7B  2F92               	goto	l826
  8874  0F7C                     u2730:	
  8875  0F7C                     l3358:	
  8876                           
  8877                           ;mcc_generated_files/mtouch/mtouch_proximity.c: 251:     {;mcc_generated_files/mtouch/mt
      +                          ouch_proximity.c: 252:         prox->state = MTOUCH_PROXIMITY_STATE_notActivated;
  8878  0F7C  0020               	movlb	0	; select bank0
  8879  0F7D  0825               	movf	Proximity_State_Activated@prox,w
  8880  0F7E  3E02               	addlw	2
  8881  0F7F  0086               	movwf	6
  8882  0F80  0187               	clrf	7
  8883  0F81  0181               	clrf	1
  8884  0F82  0A81               	incf	1,f
  8885                           
  8886                           ;mcc_generated_files/mtouch/mtouch_proximity.c: 253:         prox->counter = (mtouch_pro
      +                          x_statecounter_t)0;
  8887  0F83  0825               	movf	Proximity_State_Activated@prox,w
  8888  0F84  3E0C               	addlw	12
  8889  0F85  0086               	movwf	6
  8890  0F86  0187               	clrf	7
  8891  0F87  3000               	movlw	0
  8892  0F88  3FC0               	movwi [0]fsr1
  8893  0F89  3FC1               	movwi [1]fsr1
  8894                           
  8895                           ;mcc_generated_files/mtouch/mtouch_proximity.c: 254:         prox->baseline_count = (mto
      +                          uch_prox_baselinecounter_t)((0xffff))-((mtouch_prox_baselinecounter_t)1024u);
  8896  0F8A  0825               	movf	Proximity_State_Activated@prox,w
  8897  0F8B  3E0E               	addlw	14
  8898  0F8C  0086               	movwf	6
  8899  0F8D  0187               	clrf	7
  8900  0F8E  30FF               	movlw	255
  8901  0F8F  3FC0               	movwi [0]fsr1
  8902  0F90  30FB               	movlw	251
  8903  0F91  3FC1               	movwi [1]fsr1
  8904  0F92                     l826:	
  8905  0F92  0008               	return
  8906  0F93                     __end_of_Proximity_State_Activated:	
  8907                           
  8908                           	psect	text54
  8909  0E50                     __ptext54:	
  8910 ;; *************** function _Proximity_State_Initializing *****************
  8911 ;; Defined at:
  8912 ;;		line 187 in file "mcc_generated_files/mtouch/mtouch_proximity.c"
  8913 ;; Parameters:    Size  Location     Type
  8914 ;;  prox            1    5[BANK0 ] PTR struct .
  8915 ;;		 -> mtouch_proximity(18), 
  8916 ;; Auto vars:     Size  Location     Type
  8917 ;;		None
  8918 ;; Return value:  Size  Location     Type
  8919 ;;                  1    wreg      void 
  8920 ;; Registers used:
  8921 ;;		wreg, fsr1l, fsr1h, status,2, status,0, pclath, cstack
  8922 ;; Tracked objects:
  8923 ;;		On entry : 0/0
  8924 ;;		On exit  : 0/0
  8925 ;;		Unchanged: 0/0
  8926 ;; Data sizes:     COMMON   BANK0   BANK1   BANK2   BANK3   BANK4   BANK5   BANK6
  8927 ;;      Params:         0       1       0       0       0       0       0       0
  8928 ;;      Locals:         0       0       0       0       0       0       0       0
  8929 ;;      Temps:          0       2       0       0       0       0       0       0
  8930 ;;      Totals:         0       3       0       0       0       0       0       0
  8931 ;;Total ram usage:        3 bytes
  8932 ;; Hardware stack levels used:    1
  8933 ;; Hardware stack levels required when called:    7
  8934 ;; This function calls:
  8935 ;;		_Proximity_Baseline_Initialize
  8936 ;;		_Proximity_Baseline_Update
  8937 ;; This function is called by:
  8938 ;;		_Proximity_Service
  8939 ;; This function uses a non-reentrant model
  8940 ;;
  8941                           
  8942                           
  8943                           ;psect for function _Proximity_State_Initializing
  8944  0E50                     _Proximity_State_Initializing:	
  8945  0E50                     l4192:	
  8946                           ;incstack = 0
  8947                           ; Regs used in _Proximity_State_Initializing: [wreg+fsr1l+fsr1h+status,2+status,0+pclath
      +                          +cstack]
  8948                           
  8949                           
  8950                           ;mcc_generated_files/mtouch/mtouch_proximity.c: 187: static void Proximity_State_Initial
      +                          izing(mtouch_proximity_t* prox);mcc_generated_files/mtouch/mtouch_proximity.c: 188: {;mc
      +                          c_generated_files/mtouch/mtouch_proximity.c: 190:     if ((prox->counter) <= (mtouch_pro
      +                          x_statecounter_t)((mtouch_prox_baselinecounter_t)16u)/2)
  8951  0E50  0020               	movlb	0	; select bank0
  8952  0E51  0825               	movf	Proximity_State_Initializing@prox,w
  8953  0E52  3E0C               	addlw	12
  8954  0E53  0086               	movwf	6
  8955  0E54  0187               	clrf	7
  8956  0E55  3F40               	moviw [0]fsr1
  8957  0E56  00A6               	movwf	??_Proximity_State_Initializing
  8958  0E57  3F41               	moviw [1]fsr1
  8959  0E58  00A7               	movwf	??_Proximity_State_Initializing+1
  8960  0E59  3000               	movlw	0
  8961  0E5A  0227               	subwf	??_Proximity_State_Initializing+1,w
  8962  0E5B  3009               	movlw	9
  8963  0E5C  1903               	skipnz
  8964  0E5D  0226               	subwf	??_Proximity_State_Initializing,w
  8965  0E5E  1803               	skipnc
  8966  0E5F  2E61               	goto	u3861
  8967  0E60  2E62               	goto	u3860
  8968  0E61                     u3861:	
  8969  0E61  2E67               	goto	l4196
  8970  0E62                     u3860:	
  8971  0E62                     l4194:	
  8972                           
  8973                           ;mcc_generated_files/mtouch/mtouch_proximity.c: 191:     {;mcc_generated_files/mtouch/mt
      +                          ouch_proximity.c: 192:         Proximity_Baseline_Initialize(prox);
  8974  0E62  0825               	movf	Proximity_State_Initializing@prox,w
  8975  0E63  3187  27D4  318E   	fcall	_Proximity_Baseline_Initialize
  8976                           
  8977                           ;mcc_generated_files/mtouch/mtouch_proximity.c: 193:     } else {
  8978  0E66  2E6B               	goto	l4198
  8979  0E67                     l4196:	
  8980                           
  8981                           ;mcc_generated_files/mtouch/mtouch_proximity.c: 194:         Proximity_Baseline_Update(p
      +                          rox);
  8982  0E67  0825               	movf	Proximity_State_Initializing@prox,w
  8983  0E68  3186  265D  318E   	fcall	_Proximity_Baseline_Update
  8984  0E6B                     l4198:	
  8985                           
  8986                           ;mcc_generated_files/mtouch/mtouch_proximity.c: 198:     (prox->counter)++;
  8987  0E6B  0020               	movlb	0	; select bank0
  8988  0E6C  0825               	movf	Proximity_State_Initializing@prox,w
  8989  0E6D  3E0C               	addlw	12
  8990  0E6E  0086               	movwf	6
  8991  0E6F  0187               	clrf	7
  8992  0E70  3001               	movlw	1
  8993  0E71  0781               	addwf	1,f
  8994  0E72  3141               	addfsr 1,1
  8995  0E73  1803               	skipnc
  8996  0E74  0A81               	incf	1,f
  8997  0E75                     l4200:	
  8998                           
  8999                           ;mcc_generated_files/mtouch/mtouch_proximity.c: 199:     if ((prox->counter) >= (mtouch_
      +                          prox_statecounter_t)((mtouch_prox_baselinecounter_t)16u))
  9000  0E75  0825               	movf	Proximity_State_Initializing@prox,w
  9001  0E76  3E0C               	addlw	12
  9002  0E77  0086               	movwf	6
  9003  0E78  0187               	clrf	7
  9004  0E79  3F40               	moviw [0]fsr1
  9005  0E7A  00A6               	movwf	??_Proximity_State_Initializing
  9006  0E7B  3F41               	moviw [1]fsr1
  9007  0E7C  00A7               	movwf	??_Proximity_State_Initializing+1
  9008  0E7D  3000               	movlw	0
  9009  0E7E  0227               	subwf	??_Proximity_State_Initializing+1,w
  9010  0E7F  3010               	movlw	16
  9011  0E80  1903               	skipnz
  9012  0E81  0226               	subwf	??_Proximity_State_Initializing,w
  9013  0E82  1C03               	skipc
  9014  0E83  2E85               	goto	u3871
  9015  0E84  2E86               	goto	u3870
  9016  0E85                     u3871:	
  9017  0E85  2E93               	goto	l811
  9018  0E86                     u3870:	
  9019  0E86                     l4202:	
  9020                           
  9021                           ;mcc_generated_files/mtouch/mtouch_proximity.c: 200:     {;mcc_generated_files/mtouch/mt
      +                          ouch_proximity.c: 201:         prox->state = MTOUCH_PROXIMITY_STATE_notActivated;
  9022  0E86  0825               	movf	Proximity_State_Initializing@prox,w
  9023  0E87  3E02               	addlw	2
  9024  0E88  0086               	movwf	6
  9025  0E89  0187               	clrf	7
  9026  0E8A  0181               	clrf	1
  9027  0E8B  0A81               	incf	1,f
  9028                           
  9029                           ;mcc_generated_files/mtouch/mtouch_proximity.c: 202:         prox->counter = (mtouch_pro
      +                          x_statecounter_t)0;
  9030  0E8C  0825               	movf	Proximity_State_Initializing@prox,w
  9031  0E8D  3E0C               	addlw	12
  9032  0E8E  0086               	movwf	6
  9033  0E8F  0187               	clrf	7
  9034  0E90  3000               	movlw	0
  9035  0E91  3FC0               	movwi [0]fsr1
  9036  0E92  3FC1               	movwi [1]fsr1
  9037  0E93                     l811:	
  9038  0E93  0008               	return
  9039  0E94                     __end_of_Proximity_State_Initializing:	
  9040                           
  9041                           	psect	text55
  9042  0398                     __ptext55:	
  9043 ;; *************** function _Proximity_State_NotActivated *****************
  9044 ;; Defined at:
  9045 ;;		line 206 in file "mcc_generated_files/mtouch/mtouch_proximity.c"
  9046 ;; Parameters:    Size  Location     Type
  9047 ;;  prox            1    5[BANK0 ] PTR struct .
  9048 ;;		 -> mtouch_proximity(18), 
  9049 ;; Auto vars:     Size  Location     Type
  9050 ;;  deviation       4   13[BANK0 ] long 
  9051 ;; Return value:  Size  Location     Type
  9052 ;;                  1    wreg      void 
  9053 ;; Registers used:
  9054 ;;		wreg, fsr1l, fsr1h, status,2, status,0, pclath, cstack
  9055 ;; Tracked objects:
  9056 ;;		On entry : 0/0
  9057 ;;		On exit  : 0/0
  9058 ;;		Unchanged: 0/0
  9059 ;; Data sizes:     COMMON   BANK0   BANK1   BANK2   BANK3   BANK4   BANK5   BANK6
  9060 ;;      Params:         0       1       0       0       0       0       0       0
  9061 ;;      Locals:         0       4       0       0       0       0       0       0
  9062 ;;      Temps:          0       7       0       0       0       0       0       0
  9063 ;;      Totals:         0      12       0       0       0       0       0       0
  9064 ;;Total ram usage:       12 bytes
  9065 ;; Hardware stack levels used:    1
  9066 ;; Hardware stack levels required when called:    6
  9067 ;; This function calls:
  9068 ;;		_MTOUCH_Proximity_Baseline_Get
  9069 ;;		_MTOUCH_Proximity_Initialize
  9070 ;;		_MTOUCH_Proximity_Reading_Get
  9071 ;;		_Proximity_Baseline_Update
  9072 ;; This function is called by:
  9073 ;;		_Proximity_Service
  9074 ;; This function uses a non-reentrant model
  9075 ;;
  9076                           
  9077                           
  9078                           ;psect for function _Proximity_State_NotActivated
  9079  0398                     _Proximity_State_NotActivated:	
  9080  0398                     l3332:	
  9081                           ;incstack = 0
  9082                           ; Regs used in _Proximity_State_NotActivated: [wreg+fsr1l+fsr1h+status,2+status,0+pclath
      +                          +cstack]
  9083                           
  9084                           
  9085                           ;mcc_generated_files/mtouch/mtouch_proximity.c: 206: static void Proximity_State_NotActi
      +                          vated(mtouch_proximity_t* prox);mcc_generated_files/mtouch/mtouch_proximity.c: 207: {;mc
      +                          c_generated_files/mtouch/mtouch_proximity.c: 209:     int32_t deviation = (int32_t)((uin
      +                          t32_t)(MTOUCH_Proximity_Reading_Get(prox->name)) - (uint32_t)(MTOUCH_Proximity_Baseline_
      +                          Get(prox->name)));
  9086  0398  0020               	movlb	0	; select bank0
  9087  0399  0825               	movf	Proximity_State_NotActivated@prox,w
  9088  039A  0086               	movwf	6
  9089  039B  0187               	clrf	7
  9090  039C  0801               	movf	1,w
  9091  039D  318C  241A  3183   	fcall	_MTOUCH_Proximity_Reading_Get
  9092  03A0  0871               	movf	?_MTOUCH_Proximity_Reading_Get,w
  9093  03A1  0020               	movlb	0	; select bank0
  9094  03A2  00A6               	movwf	??_Proximity_State_NotActivated
  9095  03A3  0872               	movf	?_MTOUCH_Proximity_Reading_Get+1,w
  9096  03A4  00A7               	movwf	??_Proximity_State_NotActivated+1
  9097  03A5  0873               	movf	?_MTOUCH_Proximity_Reading_Get+2,w
  9098  03A6  00A8               	movwf	??_Proximity_State_NotActivated+2
  9099  03A7  0874               	movf	?_MTOUCH_Proximity_Reading_Get+3,w
  9100  03A8  00A9               	movwf	??_Proximity_State_NotActivated+3
  9101  03A9  0825               	movf	Proximity_State_NotActivated@prox,w
  9102  03AA  0086               	movwf	6
  9103  03AB  0187               	clrf	7
  9104  03AC  0801               	movf	1,w
  9105  03AD  318B  23DE  3183   	fcall	_MTOUCH_Proximity_Baseline_Get
  9106  03B0  0020               	movlb	0	; select bank0
  9107  03B1  0820               	movf	?_MTOUCH_Proximity_Baseline_Get,w
  9108  03B2  02A6               	subwf	??_Proximity_State_NotActivated,f
  9109  03B3  0821               	movf	?_MTOUCH_Proximity_Baseline_Get+1,w
  9110  03B4  3BA7               	subwfb	??_Proximity_State_NotActivated+1,f
  9111  03B5  0822               	movf	?_MTOUCH_Proximity_Baseline_Get+2,w
  9112  03B6  3BA8               	subwfb	??_Proximity_State_NotActivated+2,f
  9113  03B7  0823               	movf	?_MTOUCH_Proximity_Baseline_Get+3,w
  9114  03B8  3BA9               	subwfb	??_Proximity_State_NotActivated+3,f
  9115  03B9  0829               	movf	??_Proximity_State_NotActivated+3,w
  9116  03BA  00B0               	movwf	Proximity_State_NotActivated@deviation+3
  9117  03BB  0828               	movf	??_Proximity_State_NotActivated+2,w
  9118  03BC  00AF               	movwf	Proximity_State_NotActivated@deviation+2
  9119  03BD  0827               	movf	??_Proximity_State_NotActivated+1,w
  9120  03BE  00AE               	movwf	Proximity_State_NotActivated@deviation+1
  9121  03BF  0826               	movf	??_Proximity_State_NotActivated,w
  9122  03C0  00AD               	movwf	Proximity_State_NotActivated@deviation
  9123  03C1                     l3334:	
  9124                           
  9125                           ;mcc_generated_files/mtouch/mtouch_proximity.c: 210:     if (deviation < (int32_t)(-prox
      +                          ->threshold))
  9126  03C1  0825               	movf	Proximity_State_NotActivated@prox,w
  9127  03C2  3E10               	addlw	16
  9128  03C3  0086               	movwf	6
  9129  03C4  0187               	clrf	7
  9130  03C5  0801               	movf	1,w
  9131  03C6  00A6               	movwf	??_Proximity_State_NotActivated
  9132  03C7  01A7               	clrf	??_Proximity_State_NotActivated+1
  9133  03C8  1BA6               	btfsc	??_Proximity_State_NotActivated,7
  9134  03C9  03A7               	decf	??_Proximity_State_NotActivated+1,f
  9135  03CA  09A6               	comf	??_Proximity_State_NotActivated,f
  9136  03CB  09A7               	comf	??_Proximity_State_NotActivated+1,f
  9137  03CC  0AA6               	incf	??_Proximity_State_NotActivated,f
  9138  03CD  1903               	skipnz
  9139  03CE  0AA7               	incf	??_Proximity_State_NotActivated+1,f
  9140  03CF  0826               	movf	??_Proximity_State_NotActivated,w
  9141  03D0  00A8               	movwf	??_Proximity_State_NotActivated+2
  9142  03D1  0827               	movf	??_Proximity_State_NotActivated+1,w
  9143  03D2  00A9               	movwf	??_Proximity_State_NotActivated+3
  9144  03D3  3000               	movlw	0
  9145  03D4  1BA9               	btfsc	??_Proximity_State_NotActivated+3,7
  9146  03D5  30FF               	movlw	255
  9147  03D6  00AA               	movwf	??_Proximity_State_NotActivated+4
  9148  03D7  00AB               	movwf	??_Proximity_State_NotActivated+5
  9149  03D8  0830               	movf	Proximity_State_NotActivated@deviation+3,w
  9150  03D9  3A80               	xorlw	128
  9151  03DA  00AC               	movwf	??_Proximity_State_NotActivated+6
  9152  03DB  082B               	movf	??_Proximity_State_NotActivated+5,w
  9153  03DC  3A80               	xorlw	128
  9154  03DD  022C               	subwf	??_Proximity_State_NotActivated+6,w
  9155  03DE  1D03               	skipz
  9156  03DF  2BEA               	goto	u2663
  9157  03E0  082A               	movf	??_Proximity_State_NotActivated+4,w
  9158  03E1  022F               	subwf	Proximity_State_NotActivated@deviation+2,w
  9159  03E2  1D03               	skipz
  9160  03E3  2BEA               	goto	u2663
  9161  03E4  0829               	movf	??_Proximity_State_NotActivated+3,w
  9162  03E5  022E               	subwf	Proximity_State_NotActivated@deviation+1,w
  9163  03E6  1D03               	skipz
  9164  03E7  2BEA               	goto	u2663
  9165  03E8  0828               	movf	??_Proximity_State_NotActivated+2,w
  9166  03E9  022D               	subwf	Proximity_State_NotActivated@deviation,w
  9167  03EA                     u2663:	
  9168  03EA  1803               	skipnc
  9169  03EB  2BED               	goto	u2661
  9170  03EC  2BEE               	goto	u2660
  9171  03ED                     u2661:	
  9172  03ED  2C17               	goto	l3342
  9173  03EE                     u2660:	
  9174  03EE                     l3336:	
  9175                           
  9176                           ;mcc_generated_files/mtouch/mtouch_proximity.c: 211:     {;mcc_generated_files/mtouch/mt
      +                          ouch_proximity.c: 212:         (prox->counter)++;
  9177  03EE  0825               	movf	Proximity_State_NotActivated@prox,w
  9178  03EF  3E0C               	addlw	12
  9179  03F0  0086               	movwf	6
  9180  03F1  0187               	clrf	7
  9181  03F2  3001               	movlw	1
  9182  03F3  0781               	addwf	1,f
  9183  03F4  3141               	addfsr 1,1
  9184  03F5  1803               	skipnc
  9185  03F6  0A81               	incf	1,f
  9186                           
  9187                           ;mcc_generated_files/mtouch/mtouch_proximity.c: 213:         if ((prox->counter) > (mtou
      +                          ch_prox_statecounter_t)((mtouch_prox_statecounter_t)32u))
  9188  03F7  0825               	movf	Proximity_State_NotActivated@prox,w
  9189  03F8  3E0C               	addlw	12
  9190  03F9  0086               	movwf	6
  9191  03FA  0187               	clrf	7
  9192  03FB  3F40               	moviw [0]fsr1
  9193  03FC  00A6               	movwf	??_Proximity_State_NotActivated
  9194  03FD  3F41               	moviw [1]fsr1
  9195  03FE  00A7               	movwf	??_Proximity_State_NotActivated+1
  9196  03FF  3000               	movlw	0
  9197  0400  0227               	subwf	??_Proximity_State_NotActivated+1,w
  9198  0401  3021               	movlw	33
  9199  0402  1903               	skipnz
  9200  0403  0226               	subwf	??_Proximity_State_NotActivated,w
  9201  0404  1C03               	skipc
  9202  0405  2C07               	goto	u2671
  9203  0406  2C08               	goto	u2670
  9204  0407                     u2671:	
  9205  0407  2C40               	goto	l816
  9206  0408                     u2670:	
  9207  0408                     l3338:	
  9208                           
  9209                           ;mcc_generated_files/mtouch/mtouch_proximity.c: 214:         {;mcc_generated_files/mtouc
      +                          h/mtouch_proximity.c: 215:             prox->counter = (mtouch_prox_statecounter_t)0;
  9210  0408  0825               	movf	Proximity_State_NotActivated@prox,w
  9211  0409  3E0C               	addlw	12
  9212  040A  0086               	movwf	6
  9213  040B  0187               	clrf	7
  9214  040C  3000               	movlw	0
  9215  040D  3FC0               	movwi [0]fsr1
  9216  040E  3FC1               	movwi [1]fsr1
  9217  040F                     l3340:	
  9218                           
  9219                           ;mcc_generated_files/mtouch/mtouch_proximity.c: 216:             MTOUCH_Proximity_Initia
      +                          lize(prox->name);
  9220  040F  0825               	movf	Proximity_State_NotActivated@prox,w
  9221  0410  0086               	movwf	6
  9222  0411  0187               	clrf	7
  9223  0412  0801               	movf	1,w
  9224  0413  318C  249A  3183   	fcall	_MTOUCH_Proximity_Initialize
  9225  0416  2C40               	goto	l816
  9226  0417                     l3342:	
  9227  0417  0825               	movf	Proximity_State_NotActivated@prox,w
  9228  0418  3E10               	addlw	16
  9229  0419  0086               	movwf	6
  9230  041A  0187               	clrf	7
  9231  041B  0801               	movf	1,w
  9232  041C  3A80               	xorlw	128
  9233  041D  00A6               	movwf	??_Proximity_State_NotActivated
  9234  041E  0825               	movf	Proximity_State_NotActivated@prox,w
  9235  041F  3E0B               	addlw	11
  9236  0420  0086               	movwf	6
  9237  0421  0187               	clrf	7
  9238  0422  0801               	movf	1,w
  9239  0423  3A80               	xorlw	128
  9240  0424  02A6               	subwf	??_Proximity_State_NotActivated,f
  9241  0425  1803               	skipnc
  9242  0426  2C28               	goto	u2681
  9243  0427  2C29               	goto	u2680
  9244  0428                     u2681:	
  9245  0428  2C39               	goto	l3346
  9246  0429                     u2680:	
  9247  0429                     l3344:	
  9248                           
  9249                           ;mcc_generated_files/mtouch/mtouch_proximity.c: 221:     {;mcc_generated_files/mtouch/mt
      +                          ouch_proximity.c: 222:         prox->state = MTOUCH_PROXIMITY_STATE_activated;
  9250  0429  3002               	movlw	2
  9251  042A  00A6               	movwf	??_Proximity_State_NotActivated
  9252  042B  0825               	movf	Proximity_State_NotActivated@prox,w
  9253  042C  3E02               	addlw	2
  9254  042D  0086               	movwf	6
  9255  042E  0187               	clrf	7
  9256  042F  0826               	movf	??_Proximity_State_NotActivated,w
  9257  0430  0081               	movwf	1
  9258                           
  9259                           ;mcc_generated_files/mtouch/mtouch_proximity.c: 223:         prox->counter = (mtouch_pro
      +                          x_statecounter_t)0;
  9260  0431  0825               	movf	Proximity_State_NotActivated@prox,w
  9261  0432  3E0C               	addlw	12
  9262  0433  0086               	movwf	6
  9263  0434  0187               	clrf	7
  9264  0435  3000               	movlw	0
  9265  0436  3FC0               	movwi [0]fsr1
  9266  0437  3FC1               	movwi [1]fsr1
  9267                           
  9268                           ;mcc_generated_files/mtouch/mtouch_proximity.c: 224:     }
  9269  0438  2C40               	goto	l816
  9270  0439                     l3346:	
  9271                           
  9272                           ;mcc_generated_files/mtouch/mtouch_proximity.c: 226:     {;mcc_generated_files/mtouch/mt
      +                          ouch_proximity.c: 228:         prox->counter = (mtouch_prox_statecounter_t)0;
  9273  0439  0825               	movf	Proximity_State_NotActivated@prox,w
  9274  043A  3E0C               	addlw	12
  9275  043B  0086               	movwf	6
  9276  043C  0187               	clrf	7
  9277  043D  3000               	movlw	0
  9278  043E  3FC0               	movwi [0]fsr1
  9279  043F  3FC1               	movwi [1]fsr1
  9280  0440                     l816:	
  9281                           
  9282                           ;mcc_generated_files/mtouch/mtouch_proximity.c: 233:     (prox->baseline_count)++;
  9283  0440  0020               	movlb	0	; select bank0
  9284  0441  0825               	movf	Proximity_State_NotActivated@prox,w
  9285  0442  3E0E               	addlw	14
  9286  0443  0086               	movwf	6
  9287  0444  0187               	clrf	7
  9288  0445  3001               	movlw	1
  9289  0446  0781               	addwf	1,f
  9290  0447  3141               	addfsr 1,1
  9291  0448  1803               	skipnc
  9292  0449  0A81               	incf	1,f
  9293                           
  9294                           ;mcc_generated_files/mtouch/mtouch_proximity.c: 234:     if ((prox->baseline_count) == (
      +                          (mtouch_prox_baselinecounter_t)128u))
  9295  044A  0825               	movf	Proximity_State_NotActivated@prox,w
  9296  044B  3E0E               	addlw	14
  9297  044C  0086               	movwf	6
  9298  044D  0187               	clrf	7
  9299  044E  0016               	moviw fsr1++
  9300  044F  3A80               	xorlw	128
  9301  0450  00A6               	movwf	??_Proximity_State_NotActivated
  9302  0451  0016               	moviw fsr1++
  9303  0452  04A6               	iorwf	??_Proximity_State_NotActivated,f
  9304  0453  1D03               	btfss	3,2
  9305  0454  2C56               	goto	u2691
  9306  0455  2C57               	goto	u2690
  9307  0456                     u2691:	
  9308  0456  2C62               	goto	l820
  9309  0457                     u2690:	
  9310  0457                     l3348:	
  9311                           
  9312                           ;mcc_generated_files/mtouch/mtouch_proximity.c: 235:     {;mcc_generated_files/mtouch/mt
      +                          ouch_proximity.c: 236:         prox->baseline_count = (mtouch_prox_baselinecounter_t)0;
  9313  0457  0825               	movf	Proximity_State_NotActivated@prox,w
  9314  0458  3E0E               	addlw	14
  9315  0459  0086               	movwf	6
  9316  045A  0187               	clrf	7
  9317  045B  3000               	movlw	0
  9318  045C  3FC0               	movwi [0]fsr1
  9319  045D  3FC1               	movwi [1]fsr1
  9320  045E                     l3350:	
  9321                           
  9322                           ;mcc_generated_files/mtouch/mtouch_proximity.c: 237:         Proximity_Baseline_Update(p
      +                          rox);
  9323  045E  0825               	movf	Proximity_State_NotActivated@prox,w
  9324  045F  3186  265D  3183   	fcall	_Proximity_Baseline_Update
  9325  0462                     l820:	
  9326  0462  0008               	return
  9327  0463                     __end_of_Proximity_State_NotActivated:	
  9328                           
  9329                           	psect	text56
  9330  065D                     __ptext56:	
  9331 ;; *************** function _Proximity_Baseline_Update *****************
  9332 ;; Defined at:
  9333 ;;		line 425 in file "mcc_generated_files/mtouch/mtouch_proximity.c"
  9334 ;; Parameters:    Size  Location     Type
  9335 ;;  prox            1    wreg     PTR struct .
  9336 ;;		 -> mtouch_proximity(18), 
  9337 ;; Auto vars:     Size  Location     Type
  9338 ;;  prox            1    5[COMMON] PTR struct .
  9339 ;;		 -> mtouch_proximity(18), 
  9340 ;; Return value:  Size  Location     Type
  9341 ;;                  1    wreg      void 
  9342 ;; Registers used:
  9343 ;;		wreg, fsr1l, fsr1h, status,2, status,0
  9344 ;; Tracked objects:
  9345 ;;		On entry : 0/0
  9346 ;;		On exit  : 0/0
  9347 ;;		Unchanged: 0/0
  9348 ;; Data sizes:     COMMON   BANK0   BANK1   BANK2   BANK3   BANK4   BANK5   BANK6
  9349 ;;      Params:         0       0       0       0       0       0       0       0
  9350 ;;      Locals:         1       0       0       0       0       0       0       0
  9351 ;;      Temps:          4       0       0       0       0       0       0       0
  9352 ;;      Totals:         5       0       0       0       0       0       0       0
  9353 ;;Total ram usage:        5 bytes
  9354 ;; Hardware stack levels used:    1
  9355 ;; Hardware stack levels required when called:    4
  9356 ;; This function calls:
  9357 ;;		Nothing
  9358 ;; This function is called by:
  9359 ;;		_Proximity_State_Initializing
  9360 ;;		_Proximity_State_NotActivated
  9361 ;; This function uses a non-reentrant model
  9362 ;;
  9363                           
  9364                           
  9365                           ;psect for function _Proximity_Baseline_Update
  9366  065D                     _Proximity_Baseline_Update:	
  9367                           
  9368                           ;incstack = 0
  9369                           ; Regs used in _Proximity_Baseline_Update: [wreg+fsr1l+fsr1h+status,2+status,0]
  9370                           ;Proximity_Baseline_Update@prox stored from wreg
  9371  065D  00F5               	movwf	Proximity_Baseline_Update@prox
  9372  065E                     l3152:	
  9373                           
  9374                           ;mcc_generated_files/mtouch/mtouch_proximity.c: 425: static void Proximity_Baseline_Upda
      +                          te(mtouch_proximity_t* prox);mcc_generated_files/mtouch/mtouch_proximity.c: 426: {;mcc_g
      +                          enerated_files/mtouch/mtouch_proximity.c: 427:     if (GIE == (uint8_t)1)
  9375  065E  1F8B               	btfss	11,7	;volatile
  9376  065F  2E61               	goto	u2341
  9377  0660  2E62               	goto	u2340
  9378  0661                     u2341:	
  9379  0661  2EA3               	goto	l3160
  9380  0662                     u2340:	
  9381  0662                     l3154:	
  9382                           
  9383                           ;mcc_generated_files/mtouch/mtouch_proximity.c: 428:     {;mcc_generated_files/mtouch/mt
      +                          ouch_proximity.c: 429:         GIE = (uint8_t)0;
  9384  0662  138B               	bcf	11,7	;volatile
  9385  0663                     l3156:	
  9386                           
  9387                           ;mcc_generated_files/mtouch/mtouch_proximity.c: 430:         prox->baseline -= (prox->ba
      +                          seline) >> ((uint8_t)4u);
  9388  0663  0875               	movf	Proximity_Baseline_Update@prox,w
  9389  0664  3E07               	addlw	7
  9390  0665  0086               	movwf	6
  9391  0666  0187               	clrf	7
  9392  0667  3F40               	moviw [0]fsr1
  9393  0668  00F1               	movwf	??_Proximity_Baseline_Update
  9394  0669  3F41               	moviw [1]fsr1
  9395  066A  00F2               	movwf	??_Proximity_Baseline_Update+1
  9396  066B  3F42               	moviw [2]fsr1
  9397  066C  00F3               	movwf	??_Proximity_Baseline_Update+2
  9398  066D  3F43               	moviw [3]fsr1
  9399  066E  00F4               	movwf	??_Proximity_Baseline_Update+3
  9400  066F  3004               	movlw	4
  9401  0670                     u2355:	
  9402  0670  36F4               	lsrf	??_Proximity_Baseline_Update+3,f
  9403  0671  0CF3               	rrf	??_Proximity_Baseline_Update+2,f
  9404  0672  0CF2               	rrf	??_Proximity_Baseline_Update+1,f
  9405  0673  0CF1               	rrf	??_Proximity_Baseline_Update,f
  9406  0674                     u2350:	
  9407  0674  0B89               	decfsz	9,f
  9408  0675  2E70               	goto	u2355
  9409  0676  0875               	movf	Proximity_Baseline_Update@prox,w
  9410  0677  3E07               	addlw	7
  9411  0678  0086               	movwf	6
  9412  0679  0187               	clrf	7
  9413  067A  0871               	movf	??_Proximity_Baseline_Update,w
  9414  067B  0281               	subwf	1,f
  9415  067C  3141               	addfsr 1,1
  9416  067D  0872               	movf	??_Proximity_Baseline_Update+1,w
  9417  067E  3B81               	subwfb	1,f
  9418  067F  3141               	addfsr 1,1
  9419  0680  0873               	movf	??_Proximity_Baseline_Update+2,w
  9420  0681  3B81               	subwfb	1,f
  9421  0682  3141               	addfsr 1,1
  9422  0683  0874               	movf	??_Proximity_Baseline_Update+3,w
  9423  0684  3B81               	subwfb	1,f
  9424  0685  317D               	addfsr 1,-3
  9425                           
  9426                           ;mcc_generated_files/mtouch/mtouch_proximity.c: 431:         prox->baseline += prox->rea
      +                          ding;
  9427  0686  0875               	movf	Proximity_Baseline_Update@prox,w
  9428  0687  3E03               	addlw	3
  9429  0688  0086               	movwf	6
  9430  0689  0187               	clrf	7
  9431  068A  3F40               	moviw [0]fsr1
  9432  068B  00F1               	movwf	??_Proximity_Baseline_Update
  9433  068C  3F41               	moviw [1]fsr1
  9434  068D  00F2               	movwf	??_Proximity_Baseline_Update+1
  9435  068E  3F42               	moviw [2]fsr1
  9436  068F  00F3               	movwf	??_Proximity_Baseline_Update+2
  9437  0690  3F43               	moviw [3]fsr1
  9438  0691  00F4               	movwf	??_Proximity_Baseline_Update+3
  9439  0692  0875               	movf	Proximity_Baseline_Update@prox,w
  9440  0693  3E07               	addlw	7
  9441  0694  0086               	movwf	6
  9442  0695  0187               	clrf	7
  9443  0696  0871               	movf	??_Proximity_Baseline_Update,w
  9444  0697  0781               	addwf	1,f
  9445  0698  3141               	addfsr 1,1
  9446  0699  0872               	movf	??_Proximity_Baseline_Update+1,w
  9447  069A  3D81               	addwfc	1,f
  9448  069B  3141               	addfsr 1,1
  9449  069C  0873               	movf	??_Proximity_Baseline_Update+2,w
  9450  069D  3D81               	addwfc	1,f
  9451  069E  3141               	addfsr 1,1
  9452  069F  0874               	movf	??_Proximity_Baseline_Update+3,w
  9453  06A0  3D81               	addwfc	1,f
  9454  06A1                     l3158:	
  9455                           
  9456                           ;mcc_generated_files/mtouch/mtouch_proximity.c: 432:         GIE = (uint8_t)1;
  9457  06A1  178B               	bsf	11,7	;volatile
  9458                           
  9459                           ;mcc_generated_files/mtouch/mtouch_proximity.c: 433:     }
  9460  06A2  2EE1               	goto	l904
  9461  06A3                     l3160:	
  9462                           
  9463                           ;mcc_generated_files/mtouch/mtouch_proximity.c: 435:     {;mcc_generated_files/mtouch/mt
      +                          ouch_proximity.c: 436:         prox->baseline -= (prox->baseline) >> ((uint8_t)4u);
  9464  06A3  0875               	movf	Proximity_Baseline_Update@prox,w
  9465  06A4  3E07               	addlw	7
  9466  06A5  0086               	movwf	6
  9467  06A6  0187               	clrf	7
  9468  06A7  3F40               	moviw [0]fsr1
  9469  06A8  00F1               	movwf	??_Proximity_Baseline_Update
  9470  06A9  3F41               	moviw [1]fsr1
  9471  06AA  00F2               	movwf	??_Proximity_Baseline_Update+1
  9472  06AB  3F42               	moviw [2]fsr1
  9473  06AC  00F3               	movwf	??_Proximity_Baseline_Update+2
  9474  06AD  3F43               	moviw [3]fsr1
  9475  06AE  00F4               	movwf	??_Proximity_Baseline_Update+3
  9476  06AF  3004               	movlw	4
  9477  06B0                     u2365:	
  9478  06B0  36F4               	lsrf	??_Proximity_Baseline_Update+3,f
  9479  06B1  0CF3               	rrf	??_Proximity_Baseline_Update+2,f
  9480  06B2  0CF2               	rrf	??_Proximity_Baseline_Update+1,f
  9481  06B3  0CF1               	rrf	??_Proximity_Baseline_Update,f
  9482  06B4                     u2360:	
  9483  06B4  0B89               	decfsz	9,f
  9484  06B5  2EB0               	goto	u2365
  9485  06B6  0875               	movf	Proximity_Baseline_Update@prox,w
  9486  06B7  3E07               	addlw	7
  9487  06B8  0086               	movwf	6
  9488  06B9  0187               	clrf	7
  9489  06BA  0871               	movf	??_Proximity_Baseline_Update,w
  9490  06BB  0281               	subwf	1,f
  9491  06BC  3141               	addfsr 1,1
  9492  06BD  0872               	movf	??_Proximity_Baseline_Update+1,w
  9493  06BE  3B81               	subwfb	1,f
  9494  06BF  3141               	addfsr 1,1
  9495  06C0  0873               	movf	??_Proximity_Baseline_Update+2,w
  9496  06C1  3B81               	subwfb	1,f
  9497  06C2  3141               	addfsr 1,1
  9498  06C3  0874               	movf	??_Proximity_Baseline_Update+3,w
  9499  06C4  3B81               	subwfb	1,f
  9500  06C5  317D               	addfsr 1,-3
  9501                           
  9502                           ;mcc_generated_files/mtouch/mtouch_proximity.c: 437:         prox->baseline += prox->rea
      +                          ding;
  9503  06C6  0875               	movf	Proximity_Baseline_Update@prox,w
  9504  06C7  3E03               	addlw	3
  9505  06C8  0086               	movwf	6
  9506  06C9  0187               	clrf	7
  9507  06CA  3F40               	moviw [0]fsr1
  9508  06CB  00F1               	movwf	??_Proximity_Baseline_Update
  9509  06CC  3F41               	moviw [1]fsr1
  9510  06CD  00F2               	movwf	??_Proximity_Baseline_Update+1
  9511  06CE  3F42               	moviw [2]fsr1
  9512  06CF  00F3               	movwf	??_Proximity_Baseline_Update+2
  9513  06D0  3F43               	moviw [3]fsr1
  9514  06D1  00F4               	movwf	??_Proximity_Baseline_Update+3
  9515  06D2  0875               	movf	Proximity_Baseline_Update@prox,w
  9516  06D3  3E07               	addlw	7
  9517  06D4  0086               	movwf	6
  9518  06D5  0187               	clrf	7
  9519  06D6  0871               	movf	??_Proximity_Baseline_Update,w
  9520  06D7  0781               	addwf	1,f
  9521  06D8  3141               	addfsr 1,1
  9522  06D9  0872               	movf	??_Proximity_Baseline_Update+1,w
  9523  06DA  3D81               	addwfc	1,f
  9524  06DB  3141               	addfsr 1,1
  9525  06DC  0873               	movf	??_Proximity_Baseline_Update+2,w
  9526  06DD  3D81               	addwfc	1,f
  9527  06DE  3141               	addfsr 1,1
  9528  06DF  0874               	movf	??_Proximity_Baseline_Update+3,w
  9529  06E0  3D81               	addwfc	1,f
  9530  06E1                     l904:	
  9531  06E1  0008               	return
  9532  06E2                     __end_of_Proximity_Baseline_Update:	
  9533                           
  9534                           	psect	text57
  9535  07D4                     __ptext57:	
  9536 ;; *************** function _Proximity_Baseline_Initialize *****************
  9537 ;; Defined at:
  9538 ;;		line 419 in file "mcc_generated_files/mtouch/mtouch_proximity.c"
  9539 ;; Parameters:    Size  Location     Type
  9540 ;;  prox            1    wreg     PTR struct .
  9541 ;;		 -> mtouch_proximity(18), 
  9542 ;; Auto vars:     Size  Location     Type
  9543 ;;  prox            1    9[COMMON] PTR struct .
  9544 ;;		 -> mtouch_proximity(18), 
  9545 ;; Return value:  Size  Location     Type
  9546 ;;                  1    wreg      void 
  9547 ;; Registers used:
  9548 ;;		wreg, fsr1l, fsr1h, status,2, status,0, pclath, cstack
  9549 ;; Tracked objects:
  9550 ;;		On entry : 0/0
  9551 ;;		On exit  : 0/0
  9552 ;;		Unchanged: 0/0
  9553 ;; Data sizes:     COMMON   BANK0   BANK1   BANK2   BANK3   BANK4   BANK5   BANK6
  9554 ;;      Params:         0       0       0       0       0       0       0       0
  9555 ;;      Locals:         1       0       0       0       0       0       0       0
  9556 ;;      Temps:          0       4       0       0       0       0       0       0
  9557 ;;      Totals:         1       4       0       0       0       0       0       0
  9558 ;;Total ram usage:        5 bytes
  9559 ;; Hardware stack levels used:    1
  9560 ;; Hardware stack levels required when called:    6
  9561 ;; This function calls:
  9562 ;;		_MTOUCH_Sensor_RawSample_Get
  9563 ;; This function is called by:
  9564 ;;		_Proximity_State_Initializing
  9565 ;; This function uses a non-reentrant model
  9566 ;;
  9567                           
  9568                           
  9569                           ;psect for function _Proximity_Baseline_Initialize
  9570  07D4                     _Proximity_Baseline_Initialize:	
  9571                           
  9572                           ;incstack = 0
  9573                           ; Regs used in _Proximity_Baseline_Initialize: [wreg+fsr1l+fsr1h+status,2+status,0+pclat
      +                          h+cstack]
  9574                           ;Proximity_Baseline_Initialize@prox stored from wreg
  9575  07D4  00F9               	movwf	Proximity_Baseline_Initialize@prox
  9576  07D5                     l4108:	
  9577                           
  9578                           ;mcc_generated_files/mtouch/mtouch_proximity.c: 419: static void Proximity_Baseline_Init
      +                          ialize(mtouch_proximity_t* prox);mcc_generated_files/mtouch/mtouch_proximity.c: 420: {;m
      +                          cc_generated_files/mtouch/mtouch_proximity.c: 421:     prox->baseline = MTOUCH_Sensor_Ra
      +                          wSample_Get(prox->sensor);
  9579  07D5  0A79               	incf	Proximity_Baseline_Initialize@prox,w
  9580  07D6  0086               	movwf	6
  9581  07D7  0187               	clrf	7
  9582  07D8  0801               	movf	1,w
  9583  07D9  318B  2341  3187   	fcall	_MTOUCH_Sensor_RawSample_Get
  9584  07DC  0875               	movf	?_MTOUCH_Sensor_RawSample_Get,w
  9585  07DD  0020               	movlb	0	; select bank0
  9586  07DE  00A0               	movwf	??_Proximity_Baseline_Initialize
  9587  07DF  0876               	movf	?_MTOUCH_Sensor_RawSample_Get+1,w
  9588  07E0  00A1               	movwf	??_Proximity_Baseline_Initialize+1
  9589  07E1  01A2               	clrf	??_Proximity_Baseline_Initialize+2
  9590  07E2  01A3               	clrf	??_Proximity_Baseline_Initialize+3
  9591  07E3  0879               	movf	Proximity_Baseline_Initialize@prox,w
  9592  07E4  3E07               	addlw	7
  9593  07E5  0086               	movwf	6
  9594  07E6  0187               	clrf	7
  9595  07E7  0820               	movf	??_Proximity_Baseline_Initialize,w
  9596  07E8  3FC0               	movwi [0]fsr1
  9597  07E9  0821               	movf	??_Proximity_Baseline_Initialize+1,w
  9598  07EA  3FC1               	movwi [1]fsr1
  9599  07EB  0822               	movf	??_Proximity_Baseline_Initialize+2,w
  9600  07EC  3FC2               	movwi [2]fsr1
  9601  07ED  0823               	movf	??_Proximity_Baseline_Initialize+3,w
  9602  07EE  3FC3               	movwi [3]fsr1
  9603  07EF                     l4110:	
  9604                           
  9605                           ;mcc_generated_files/mtouch/mtouch_proximity.c: 422:     prox->baseline <<= (((uint8_t)4
      +                          u) + ((uint8_t)1u));
  9606  07EF  0879               	movf	Proximity_Baseline_Initialize@prox,w
  9607  07F0  3E07               	addlw	7
  9608  07F1  0086               	movwf	6
  9609  07F2  0187               	clrf	7
  9610  07F3  3005               	movlw	5
  9611  07F4                     u3715:	
  9612  07F4  3581               	lslf	1,f
  9613  07F5  3141               	addfsr 1,1
  9614  07F6  0D81               	rlf	1,f
  9615  07F7  3141               	addfsr 1,1
  9616  07F8  0D81               	rlf	1,f
  9617  07F9  3141               	addfsr 1,1
  9618  07FA  0D81               	rlf	1,f
  9619  07FB  317D               	addfsr 1,-3
  9620  07FC  0B89               	decfsz	9,f
  9621  07FD  2FF4               	goto	u3715
  9622  07FE                     l899:	
  9623  07FE  0008               	return
  9624  07FF                     __end_of_Proximity_Baseline_Initialize:	
  9625                           
  9626                           	psect	text58
  9627  0C9A                     __ptext58:	
  9628 ;; *************** function _MTOUCH_Proximity_Initialize *****************
  9629 ;; Defined at:
  9630 ;;		line 133 in file "mcc_generated_files/mtouch/mtouch_proximity.c"
  9631 ;; Parameters:    Size  Location     Type
  9632 ;;  name            1    wreg     enum E3067
  9633 ;; Auto vars:     Size  Location     Type
  9634 ;;  name            1    2[COMMON] enum E3067
  9635 ;;  prox            1    3[COMMON] PTR struct .
  9636 ;;		 -> mtouch_proximity(18), 
  9637 ;; Return value:  Size  Location     Type
  9638 ;;                  1    wreg      void 
  9639 ;; Registers used:
  9640 ;;		wreg, fsr1l, fsr1h, status,2, status,0
  9641 ;; Tracked objects:
  9642 ;;		On entry : 0/0
  9643 ;;		On exit  : 0/0
  9644 ;;		Unchanged: 0/0
  9645 ;; Data sizes:     COMMON   BANK0   BANK1   BANK2   BANK3   BANK4   BANK5   BANK6
  9646 ;;      Params:         0       0       0       0       0       0       0       0
  9647 ;;      Locals:         2       0       0       0       0       0       0       0
  9648 ;;      Temps:          1       0       0       0       0       0       0       0
  9649 ;;      Totals:         3       0       0       0       0       0       0       0
  9650 ;;Total ram usage:        3 bytes
  9651 ;; Hardware stack levels used:    1
  9652 ;; Hardware stack levels required when called:    4
  9653 ;; This function calls:
  9654 ;;		Nothing
  9655 ;; This function is called by:
  9656 ;;		_MTOUCH_Proximity_InitializeAll
  9657 ;;		_Proximity_Service
  9658 ;;		_Proximity_State_NotActivated
  9659 ;;		_Proximity_State_Activated
  9660 ;;		_MTOUCH_Proximity_Recalibrate
  9661 ;; This function uses a non-reentrant model
  9662 ;;
  9663                           
  9664                           
  9665                           ;psect for function _MTOUCH_Proximity_Initialize
  9666  0C9A                     _MTOUCH_Proximity_Initialize:	
  9667                           
  9668                           ;incstack = 0
  9669                           ; Regs used in _MTOUCH_Proximity_Initialize: [wreg+fsr1l+fsr1h+status,2+status,0]
  9670                           ;MTOUCH_Proximity_Initialize@name stored from wreg
  9671  0C9A  00F2               	movwf	MTOUCH_Proximity_Initialize@name
  9672  0C9B                     l3138:	
  9673                           
  9674                           ;mcc_generated_files/mtouch/mtouch_proximity.c: 133: void MTOUCH_Proximity_Initialize(en
      +                          um mtouch_proximity_names name);mcc_generated_files/mtouch/mtouch_proximity.c: 134: {;mc
      +                          c_generated_files/mtouch/mtouch_proximity.c: 135:     mtouch_proximity_t* prox = &mtouch
      +                          _proximity[name];
  9675  0C9B  0E72               	swapf	MTOUCH_Proximity_Initialize@name,w
  9676  0C9C  39F0               	andlw	240
  9677  0C9D  0772               	addwf	MTOUCH_Proximity_Initialize@name,w
  9678  0C9E  0772               	addwf	MTOUCH_Proximity_Initialize@name,w
  9679  0C9F  3E58               	addlw	(low (_mtouch_proximity| 0))& (0+255)
  9680  0CA0  00F1               	movwf	??_MTOUCH_Proximity_Initialize
  9681  0CA1  0871               	movf	??_MTOUCH_Proximity_Initialize,w
  9682  0CA2  00F3               	movwf	MTOUCH_Proximity_Initialize@prox
  9683  0CA3                     l3140:	
  9684                           
  9685                           ;mcc_generated_files/mtouch/mtouch_proximity.c: 137:     prox->state = MTOUCH_PROXIMITY_
      +                          STATE_initializing;
  9686  0CA3  0873               	movf	MTOUCH_Proximity_Initialize@prox,w
  9687  0CA4  3E02               	addlw	2
  9688  0CA5  0086               	movwf	6
  9689  0CA6  0187               	clrf	7
  9690  0CA7  0181               	clrf	1
  9691  0CA8                     l3142:	
  9692                           
  9693                           ;mcc_generated_files/mtouch/mtouch_proximity.c: 138:     prox->baseline = (mtouch_prox_b
      +                          aseline_t)0;
  9694  0CA8  0873               	movf	MTOUCH_Proximity_Initialize@prox,w
  9695  0CA9  3E07               	addlw	7
  9696  0CAA  0086               	movwf	6
  9697  0CAB  0187               	clrf	7
  9698  0CAC  3000               	movlw	0
  9699  0CAD  3FC0               	movwi [0]fsr1
  9700  0CAE  3000               	movlw	0
  9701  0CAF  3FC1               	movwi [1]fsr1
  9702  0CB0  3FC2               	movwi [2]fsr1
  9703  0CB1  3FC3               	movwi [3]fsr1
  9704  0CB2                     l3144:	
  9705                           
  9706                           ;mcc_generated_files/mtouch/mtouch_proximity.c: 139:     prox->counter = (mtouch_prox_st
      +                          atecounter_t)0;
  9707  0CB2  0873               	movf	MTOUCH_Proximity_Initialize@prox,w
  9708  0CB3  3E0C               	addlw	12
  9709  0CB4  0086               	movwf	6
  9710  0CB5  0187               	clrf	7
  9711  0CB6  3000               	movlw	0
  9712  0CB7  3FC0               	movwi [0]fsr1
  9713  0CB8  3FC1               	movwi [1]fsr1
  9714  0CB9                     l3146:	
  9715                           
  9716                           ;mcc_generated_files/mtouch/mtouch_proximity.c: 140:     prox->baseline_count = (mtouch_
      +                          prox_baselinecounter_t)0;
  9717  0CB9  0873               	movf	MTOUCH_Proximity_Initialize@prox,w
  9718  0CBA  3E0E               	addlw	14
  9719  0CBB  0086               	movwf	6
  9720  0CBC  0187               	clrf	7
  9721  0CBD  3000               	movlw	0
  9722  0CBE  3FC0               	movwi [0]fsr1
  9723  0CBF  3FC1               	movwi [1]fsr1
  9724  0CC0                     l789:	
  9725  0CC0  0008               	return
  9726  0CC1                     __end_of_MTOUCH_Proximity_Initialize:	
  9727                           
  9728                           	psect	text59
  9729  0A7A                     __ptext59:	
  9730 ;; *************** function _Proximity_Reading_Update *****************
  9731 ;; Defined at:
  9732 ;;		line 393 in file "mcc_generated_files/mtouch/mtouch_proximity.c"
  9733 ;; Parameters:    Size  Location     Type
  9734 ;;  prox            1    wreg     PTR struct .
  9735 ;;		 -> mtouch_proximity(18), 
  9736 ;; Auto vars:     Size  Location     Type
  9737 ;;  prox            1   10[COMMON] PTR struct .
  9738 ;;		 -> mtouch_proximity(18), 
  9739 ;; Return value:  Size  Location     Type
  9740 ;;                  1    wreg      void 
  9741 ;; Registers used:
  9742 ;;		wreg, fsr1l, fsr1h, status,2, status,0, pclath, cstack
  9743 ;; Tracked objects:
  9744 ;;		On entry : 0/0
  9745 ;;		On exit  : 0/0
  9746 ;;		Unchanged: 0/0
  9747 ;; Data sizes:     COMMON   BANK0   BANK1   BANK2   BANK3   BANK4   BANK5   BANK6
  9748 ;;      Params:         0       0       0       0       0       0       0       0
  9749 ;;      Locals:         1       0       0       0       0       0       0       0
  9750 ;;      Temps:          0       0       0       0       0       0       0       0
  9751 ;;      Totals:         1       0       0       0       0       0       0       0
  9752 ;;Total ram usage:        1 bytes
  9753 ;; Hardware stack levels used:    1
  9754 ;; Hardware stack levels required when called:    7
  9755 ;; This function calls:
  9756 ;;		_Proximity_Reading_Update_Helper
  9757 ;; This function is called by:
  9758 ;;		_Proximity_Service
  9759 ;; This function uses a non-reentrant model
  9760 ;;
  9761                           
  9762                           
  9763                           ;psect for function _Proximity_Reading_Update
  9764  0A7A                     _Proximity_Reading_Update:	
  9765                           
  9766                           ;incstack = 0
  9767                           ; Regs used in _Proximity_Reading_Update: [wreg+fsr1l+fsr1h+status,2+status,0+pclath+cst
      +                          ack]
  9768                           ;Proximity_Reading_Update@prox stored from wreg
  9769  0A7A  00FA               	movwf	Proximity_Reading_Update@prox
  9770  0A7B                     l4182:	
  9771                           
  9772                           ;mcc_generated_files/mtouch/mtouch_proximity.c: 393: static void Proximity_Reading_Updat
      +                          e(mtouch_proximity_t* prox);mcc_generated_files/mtouch/mtouch_proximity.c: 394: {;mcc_ge
      +                          nerated_files/mtouch/mtouch_proximity.c: 395:     if (GIE == (uint8_t)1)
  9773  0A7B  1F8B               	btfss	11,7	;volatile
  9774  0A7C  2A7E               	goto	u3851
  9775  0A7D  2A7F               	goto	u3850
  9776  0A7E                     u3851:	
  9777  0A7E  2A86               	goto	l4190
  9778  0A7F                     u3850:	
  9779  0A7F                     l4184:	
  9780                           
  9781                           ;mcc_generated_files/mtouch/mtouch_proximity.c: 396:     {;mcc_generated_files/mtouch/mt
      +                          ouch_proximity.c: 397:         GIE = (uint8_t)0;
  9782  0A7F  138B               	bcf	11,7	;volatile
  9783  0A80                     l4186:	
  9784                           
  9785                           ;mcc_generated_files/mtouch/mtouch_proximity.c: 398:         Proximity_Reading_Update_He
      +                          lper(prox);
  9786  0A80  087A               	movf	Proximity_Reading_Update@prox,w
  9787  0A81  318F  2793  318A   	fcall	_Proximity_Reading_Update_Helper
  9788  0A84                     l4188:	
  9789                           
  9790                           ;mcc_generated_files/mtouch/mtouch_proximity.c: 399:         GIE = (uint8_t)1;
  9791  0A84  178B               	bsf	11,7	;volatile
  9792                           
  9793                           ;mcc_generated_files/mtouch/mtouch_proximity.c: 400:     }
  9794  0A85  2A8A               	goto	l891
  9795  0A86                     l4190:	
  9796                           
  9797                           ;mcc_generated_files/mtouch/mtouch_proximity.c: 402:     {;mcc_generated_files/mtouch/mt
      +                          ouch_proximity.c: 403:         Proximity_Reading_Update_Helper(prox);
  9798  0A86  087A               	movf	Proximity_Reading_Update@prox,w
  9799  0A87  318F  2793  318A   	fcall	_Proximity_Reading_Update_Helper
  9800  0A8A                     l891:	
  9801  0A8A  0008               	return
  9802  0A8B                     __end_of_Proximity_Reading_Update:	
  9803                           
  9804                           	psect	text60
  9805  0F93                     __ptext60:	
  9806 ;; *************** function _Proximity_Reading_Update_Helper *****************
  9807 ;; Defined at:
  9808 ;;		line 406 in file "mcc_generated_files/mtouch/mtouch_proximity.c"
  9809 ;; Parameters:    Size  Location     Type
  9810 ;;  prox            1    wreg     PTR struct .
  9811 ;;		 -> mtouch_proximity(18), 
  9812 ;; Auto vars:     Size  Location     Type
  9813 ;;  prox            1    9[COMMON] PTR struct .
  9814 ;;		 -> mtouch_proximity(18), 
  9815 ;; Return value:  Size  Location     Type
  9816 ;;                  1    wreg      void 
  9817 ;; Registers used:
  9818 ;;		wreg, fsr1l, fsr1h, status,2, status,0, pclath, cstack
  9819 ;; Tracked objects:
  9820 ;;		On entry : 0/0
  9821 ;;		On exit  : 0/0
  9822 ;;		Unchanged: 0/0
  9823 ;; Data sizes:     COMMON   BANK0   BANK1   BANK2   BANK3   BANK4   BANK5   BANK6
  9824 ;;      Params:         0       0       0       0       0       0       0       0
  9825 ;;      Locals:         1       0       0       0       0       0       0       0
  9826 ;;      Temps:          0       6       0       0       0       0       0       0
  9827 ;;      Totals:         1       6       0       0       0       0       0       0
  9828 ;;Total ram usage:        7 bytes
  9829 ;; Hardware stack levels used:    1
  9830 ;; Hardware stack levels required when called:    6
  9831 ;; This function calls:
  9832 ;;		_MTOUCH_Sensor_RawSample_Get
  9833 ;; This function is called by:
  9834 ;;		_Proximity_Reading_Update
  9835 ;; This function uses a non-reentrant model
  9836 ;;
  9837                           
  9838                           
  9839                           ;psect for function _Proximity_Reading_Update_Helper
  9840  0F93                     _Proximity_Reading_Update_Helper:	
  9841                           
  9842                           ;incstack = 0
  9843                           ; Regs used in _Proximity_Reading_Update_Helper: [wreg+fsr1l+fsr1h+status,2+status,0+pcl
      +                          ath+cstack]
  9844                           ;Proximity_Reading_Update_Helper@prox stored from wreg
  9845  0F93  00F9               	movwf	Proximity_Reading_Update_Helper@prox
  9846  0F94                     l4112:	
  9847                           
  9848                           ;mcc_generated_files/mtouch/mtouch_proximity.c: 406: static void Proximity_Reading_Updat
      +                          e_Helper (mtouch_proximity_t* prox);mcc_generated_files/mtouch/mtouch_proximity.c: 407: 
      +                          {;mcc_generated_files/mtouch/mtouch_proximity.c: 408:     if(prox->state != MTOUCH_PROXI
      +                          MITY_STATE_initializing)
  9849  0F94  0879               	movf	Proximity_Reading_Update_Helper@prox,w
  9850  0F95  3E02               	addlw	2
  9851  0F96  0086               	movwf	6
  9852  0F97  0187               	clrf	7
  9853  0F98  0801               	movf	1,w
  9854  0F99  1903               	btfsc	3,2
  9855  0F9A  2F9C               	goto	u3721
  9856  0F9B  2F9D               	goto	u3720
  9857  0F9C                     u3721:	
  9858  0F9C  2FDF               	goto	l4118
  9859  0F9D                     u3720:	
  9860  0F9D                     l4114:	
  9861                           
  9862                           ;mcc_generated_files/mtouch/mtouch_proximity.c: 409:     {;mcc_generated_files/mtouch/mt
      +                          ouch_proximity.c: 410:         prox->reading -= prox->reading>>((uint8_t)1u);
  9863  0F9D  0879               	movf	Proximity_Reading_Update_Helper@prox,w
  9864  0F9E  3E03               	addlw	3
  9865  0F9F  0086               	movwf	6
  9866  0FA0  0187               	clrf	7
  9867  0FA1  3F40               	moviw [0]fsr1
  9868  0FA2  0020               	movlb	0	; select bank0
  9869  0FA3  00A0               	movwf	??_Proximity_Reading_Update_Helper
  9870  0FA4  3F41               	moviw [1]fsr1
  9871  0FA5  00A1               	movwf	??_Proximity_Reading_Update_Helper+1
  9872  0FA6  3F42               	moviw [2]fsr1
  9873  0FA7  00A2               	movwf	??_Proximity_Reading_Update_Helper+2
  9874  0FA8  3F43               	moviw [3]fsr1
  9875  0FA9  00A3               	movwf	??_Proximity_Reading_Update_Helper+3
  9876  0FAA  3001               	movlw	1
  9877  0FAB                     u3735:	
  9878  0FAB  36A3               	lsrf	??_Proximity_Reading_Update_Helper+3,f
  9879  0FAC  0CA2               	rrf	??_Proximity_Reading_Update_Helper+2,f
  9880  0FAD  0CA1               	rrf	??_Proximity_Reading_Update_Helper+1,f
  9881  0FAE  0CA0               	rrf	??_Proximity_Reading_Update_Helper,f
  9882  0FAF                     u3730:	
  9883  0FAF  0B89               	decfsz	9,f
  9884  0FB0  2FAB               	goto	u3735
  9885  0FB1  0879               	movf	Proximity_Reading_Update_Helper@prox,w
  9886  0FB2  3E03               	addlw	3
  9887  0FB3  0086               	movwf	6
  9888  0FB4  0187               	clrf	7
  9889  0FB5  0820               	movf	??_Proximity_Reading_Update_Helper,w
  9890  0FB6  0281               	subwf	1,f
  9891  0FB7  3141               	addfsr 1,1
  9892  0FB8  0821               	movf	??_Proximity_Reading_Update_Helper+1,w
  9893  0FB9  3B81               	subwfb	1,f
  9894  0FBA  3141               	addfsr 1,1
  9895  0FBB  0822               	movf	??_Proximity_Reading_Update_Helper+2,w
  9896  0FBC  3B81               	subwfb	1,f
  9897  0FBD  3141               	addfsr 1,1
  9898  0FBE  0823               	movf	??_Proximity_Reading_Update_Helper+3,w
  9899  0FBF  3B81               	subwfb	1,f
  9900  0FC0  317D               	addfsr 1,-3
  9901  0FC1                     l4116:	
  9902                           
  9903                           ;mcc_generated_files/mtouch/mtouch_proximity.c: 411:         prox->reading += MTOUCH_Sen
      +                          sor_RawSample_Get(prox->sensor);
  9904  0FC1  0A79               	incf	Proximity_Reading_Update_Helper@prox,w
  9905  0FC2  0086               	movwf	6
  9906  0FC3  0187               	clrf	7
  9907  0FC4  0801               	movf	1,w
  9908  0FC5  318B  2341  318F   	fcall	_MTOUCH_Sensor_RawSample_Get
  9909  0FC8  0875               	movf	?_MTOUCH_Sensor_RawSample_Get,w
  9910  0FC9  0020               	movlb	0	; select bank0
  9911  0FCA  00A0               	movwf	??_Proximity_Reading_Update_Helper
  9912  0FCB  0876               	movf	?_MTOUCH_Sensor_RawSample_Get+1,w
  9913  0FCC  00A1               	movwf	??_Proximity_Reading_Update_Helper+1
  9914  0FCD  01A2               	clrf	??_Proximity_Reading_Update_Helper+2
  9915  0FCE  01A3               	clrf	??_Proximity_Reading_Update_Helper+3
  9916  0FCF  0879               	movf	Proximity_Reading_Update_Helper@prox,w
  9917  0FD0  3E03               	addlw	3
  9918  0FD1  0086               	movwf	6
  9919  0FD2  0187               	clrf	7
  9920  0FD3  0820               	movf	??_Proximity_Reading_Update_Helper,w
  9921  0FD4  0781               	addwf	1,f
  9922  0FD5  3141               	addfsr 1,1
  9923  0FD6  0821               	movf	??_Proximity_Reading_Update_Helper+1,w
  9924  0FD7  3D81               	addwfc	1,f
  9925  0FD8  3141               	addfsr 1,1
  9926  0FD9  0822               	movf	??_Proximity_Reading_Update_Helper+2,w
  9927  0FDA  3D81               	addwfc	1,f
  9928  0FDB  3141               	addfsr 1,1
  9929  0FDC  0823               	movf	??_Proximity_Reading_Update_Helper+3,w
  9930  0FDD  3D81               	addwfc	1,f
  9931                           
  9932                           ;mcc_generated_files/mtouch/mtouch_proximity.c: 412:     }
  9933  0FDE  2FFF               	goto	l896
  9934  0FDF                     l4118:	
  9935                           
  9936                           ;mcc_generated_files/mtouch/mtouch_proximity.c: 414:     {;mcc_generated_files/mtouch/mt
      +                          ouch_proximity.c: 415:         prox->reading = MTOUCH_Sensor_RawSample_Get(prox->sensor)
      +                           << ((uint8_t)1u);
  9937  0FDF  0A79               	incf	Proximity_Reading_Update_Helper@prox,w
  9938  0FE0  0086               	movwf	6
  9939  0FE1  0187               	clrf	7
  9940  0FE2  0801               	movf	1,w
  9941  0FE3  318B  2341  318F   	fcall	_MTOUCH_Sensor_RawSample_Get
  9942  0FE6  0875               	movf	?_MTOUCH_Sensor_RawSample_Get,w
  9943  0FE7  0020               	movlb	0	; select bank0
  9944  0FE8  00A0               	movwf	??_Proximity_Reading_Update_Helper
  9945  0FE9  0876               	movf	?_MTOUCH_Sensor_RawSample_Get+1,w
  9946  0FEA  00A1               	movwf	??_Proximity_Reading_Update_Helper+1
  9947  0FEB  35A0               	lslf	??_Proximity_Reading_Update_Helper,f
  9948  0FEC  0DA1               	rlf	??_Proximity_Reading_Update_Helper+1,f
  9949  0FED  0820               	movf	??_Proximity_Reading_Update_Helper,w
  9950  0FEE  00A2               	movwf	??_Proximity_Reading_Update_Helper+2
  9951  0FEF  0821               	movf	??_Proximity_Reading_Update_Helper+1,w
  9952  0FF0  00A3               	movwf	??_Proximity_Reading_Update_Helper+3
  9953  0FF1  01A4               	clrf	??_Proximity_Reading_Update_Helper+4
  9954  0FF2  01A5               	clrf	??_Proximity_Reading_Update_Helper+5
  9955  0FF3  0879               	movf	Proximity_Reading_Update_Helper@prox,w
  9956  0FF4  3E03               	addlw	3
  9957  0FF5  0086               	movwf	6
  9958  0FF6  0187               	clrf	7
  9959  0FF7  0822               	movf	??_Proximity_Reading_Update_Helper+2,w
  9960  0FF8  3FC0               	movwi [0]fsr1
  9961  0FF9  0823               	movf	??_Proximity_Reading_Update_Helper+3,w
  9962  0FFA  3FC1               	movwi [1]fsr1
  9963  0FFB  0824               	movf	??_Proximity_Reading_Update_Helper+4,w
  9964  0FFC  3FC2               	movwi [2]fsr1
  9965  0FFD  0825               	movf	??_Proximity_Reading_Update_Helper+5,w
  9966  0FFE  3FC3               	movwi [3]fsr1
  9967  0FFF                     l896:	
  9968  0FFF  0008               	return
  9969  1000                     __end_of_Proximity_Reading_Update_Helper:	
  9970                           
  9971                           	psect	text61
  9972  0B41                     __ptext61:	
  9973 ;; *************** function _MTOUCH_Sensor_RawSample_Get *****************
  9974 ;; Defined at:
  9975 ;;		line 775 in file "mcc_generated_files/mtouch/mtouch_sensor.c"
  9976 ;; Parameters:    Size  Location     Type
  9977 ;;  name            1    wreg     enum E2854
  9978 ;; Auto vars:     Size  Location     Type
  9979 ;;  name            1    8[COMMON] enum E2854
  9980 ;; Return value:  Size  Location     Type
  9981 ;;                  2    5[COMMON] unsigned short 
  9982 ;; Registers used:
  9983 ;;		wreg, fsr1l, fsr1h, status,2, status,0, pclath, cstack
  9984 ;; Tracked objects:
  9985 ;;		On entry : 0/0
  9986 ;;		On exit  : 0/0
  9987 ;;		Unchanged: 0/0
  9988 ;; Data sizes:     COMMON   BANK0   BANK1   BANK2   BANK3   BANK4   BANK5   BANK6
  9989 ;;      Params:         2       0       0       0       0       0       0       0
  9990 ;;      Locals:         1       0       0       0       0       0       0       0
  9991 ;;      Temps:          1       0       0       0       0       0       0       0
  9992 ;;      Totals:         4       0       0       0       0       0       0       0
  9993 ;;Total ram usage:        4 bytes
  9994 ;; Hardware stack levels used:    1
  9995 ;; Hardware stack levels required when called:    5
  9996 ;; This function calls:
  9997 ;;		___bmul
  9998 ;; This function is called by:
  9999 ;;		_Proximity_Reading_Update_Helper
 10000 ;;		_Proximity_Baseline_Initialize
 10001 ;; This function uses a non-reentrant model
 10002 ;;
 10003                           
 10004                           
 10005                           ;psect for function _MTOUCH_Sensor_RawSample_Get
 10006  0B41                     _MTOUCH_Sensor_RawSample_Get:	
 10007                           
 10008                           ;incstack = 0
 10009                           ; Regs used in _MTOUCH_Sensor_RawSample_Get: [wreg+fsr1l+fsr1h+status,2+status,0+pclath+
      +                          cstack]
 10010                           ;MTOUCH_Sensor_RawSample_Get@name stored from wreg
 10011  0B41  00F8               	movwf	MTOUCH_Sensor_RawSample_Get@name
 10012  0B42                     l4044:	
 10013                           
 10014                           ;mcc_generated_files/mtouch/mtouch_sensor.c: 775: mtouch_sensor_sample_t MTOUCH_Sensor_R
      +                          awSample_Get(enum mtouch_sensor_names name);mcc_generated_files/mtouch/mtouch_sensor.c: 
      +                          776: {;mcc_generated_files/mtouch/mtouch_sensor.c: 777:     if (name < 1u)
 10015  0B42  0878               	movf	MTOUCH_Sensor_RawSample_Get@name,w
 10016  0B43  1D03               	btfss	3,2
 10017  0B44  2B46               	goto	u3631
 10018  0B45  2B47               	goto	u3630
 10019  0B46                     u3631:	
 10020  0B46  2B57               	goto	l4052
 10021  0B47                     u3630:	
 10022  0B47                     l4046:	
 10023                           
 10024                           ;mcc_generated_files/mtouch/mtouch_sensor.c: 778:     {;mcc_generated_files/mtouch/mtouc
      +                          h_sensor.c: 779:         return mtouch_sensor[name].rawSample;
 10025  0B47  3009               	movlw	9
 10026  0B48  00F7               	movwf	??_MTOUCH_Sensor_RawSample_Get
 10027  0B49  0877               	movf	??_MTOUCH_Sensor_RawSample_Get,w
 10028  0B4A  00F1               	movwf	___bmul@multiplicand
 10029  0B4B  0878               	movf	MTOUCH_Sensor_RawSample_Get@name,w
 10030  0B4C  318A  22E7  318B   	fcall	___bmul
 10031  0B4F  3EC4               	addlw	(low ((_mtouch_sensor| 0+6)))& (0+255)
 10032  0B50  0086               	movwf	6
 10033  0B51  0187               	clrf	7
 10034  0B52  3F40               	moviw [0]fsr1
 10035  0B53  00F5               	movwf	?_MTOUCH_Sensor_RawSample_Get
 10036  0B54  3F41               	moviw [1]fsr1
 10037  0B55  00F6               	movwf	?_MTOUCH_Sensor_RawSample_Get+1
 10038  0B56  2B59               	goto	l294
 10039  0B57                     l4052:	
 10040                           
 10041                           ;mcc_generated_files/mtouch/mtouch_sensor.c: 782:         return (mtouch_sensor_sample_t
      +                          )0;
 10042  0B57  01F5               	clrf	?_MTOUCH_Sensor_RawSample_Get
 10043  0B58  01F6               	clrf	?_MTOUCH_Sensor_RawSample_Get+1
 10044  0B59                     l294:	
 10045  0B59  0008               	return
 10046  0B5A                     __end_of_MTOUCH_Sensor_RawSample_Get:	
 10047                           
 10048                           	psect	text62
 10049  0280                     __ptext62:	
 10050 ;; *************** function _Proximity_Deviation_Update *****************
 10051 ;; Defined at:
 10052 ;;		line 342 in file "mcc_generated_files/mtouch/mtouch_proximity.c"
 10053 ;; Parameters:    Size  Location     Type
 10054 ;;  name            1    wreg     enum E3067
 10055 ;; Auto vars:     Size  Location     Type
 10056 ;;  name            1   19[BANK0 ] enum E3067
 10057 ;;  deviation       4   15[BANK0 ] long 
 10058 ;; Return value:  Size  Location     Type
 10059 ;;                  1    wreg      void 
 10060 ;; Registers used:
 10061 ;;		wreg, fsr1l, fsr1h, status,2, status,0, pclath, cstack
 10062 ;; Tracked objects:
 10063 ;;		On entry : 0/0
 10064 ;;		On exit  : 0/0
 10065 ;;		Unchanged: 0/0
 10066 ;; Data sizes:     COMMON   BANK0   BANK1   BANK2   BANK3   BANK4   BANK5   BANK6
 10067 ;;      Params:         0       0       0       0       0       0       0       0
 10068 ;;      Locals:         0       5       0       0       0       0       0       0
 10069 ;;      Temps:          0      10       0       0       0       0       0       0
 10070 ;;      Totals:         0      15       0       0       0       0       0       0
 10071 ;;Total ram usage:       15 bytes
 10072 ;; Hardware stack levels used:    1
 10073 ;; Hardware stack levels required when called:    6
 10074 ;; This function calls:
 10075 ;;		_MTOUCH_Proximity_Baseline_Get
 10076 ;;		_MTOUCH_Proximity_Reading_Get
 10077 ;; This function is called by:
 10078 ;;		_Proximity_Service
 10079 ;; This function uses a non-reentrant model
 10080 ;;
 10081                           
 10082                           
 10083                           ;psect for function _Proximity_Deviation_Update
 10084  0280                     _Proximity_Deviation_Update:	
 10085                           
 10086                           ;incstack = 0
 10087                           ; Regs used in _Proximity_Deviation_Update: [wreg+fsr1l+fsr1h+status,2+status,0+pclath+c
      +                          stack]
 10088                           ;Proximity_Deviation_Update@name stored from wreg
 10089  0280  0020               	movlb	0	; select bank0
 10090  0281  00B3               	movwf	Proximity_Deviation_Update@name
 10091  0282                     l3292:	
 10092                           
 10093                           ;mcc_generated_files/mtouch/mtouch_proximity.c: 342: static void Proximity_Deviation_Upd
      +                          ate(enum mtouch_proximity_names name);mcc_generated_files/mtouch/mtouch_proximity.c: 343
      +                          : {;mcc_generated_files/mtouch/mtouch_proximity.c: 344:     int32_t deviation;;mcc_gener
      +                          ated_files/mtouch/mtouch_proximity.c: 345:     deviation = (int32_t)((uint32_t)(MTOUCH_P
      +                          roximity_Reading_Get(name)) - (uint32_t)(MTOUCH_Proximity_Baseline_Get(name)));
 10094  0282  0833               	movf	Proximity_Deviation_Update@name,w
 10095  0283  318C  241A  3182   	fcall	_MTOUCH_Proximity_Reading_Get
 10096  0286  0871               	movf	?_MTOUCH_Proximity_Reading_Get,w
 10097  0287  0020               	movlb	0	; select bank0
 10098  0288  00A5               	movwf	??_Proximity_Deviation_Update
 10099  0289  0872               	movf	?_MTOUCH_Proximity_Reading_Get+1,w
 10100  028A  00A6               	movwf	??_Proximity_Deviation_Update+1
 10101  028B  0873               	movf	?_MTOUCH_Proximity_Reading_Get+2,w
 10102  028C  00A7               	movwf	??_Proximity_Deviation_Update+2
 10103  028D  0874               	movf	?_MTOUCH_Proximity_Reading_Get+3,w
 10104  028E  00A8               	movwf	??_Proximity_Deviation_Update+3
 10105  028F  0833               	movf	Proximity_Deviation_Update@name,w
 10106  0290  318B  23DE  3182   	fcall	_MTOUCH_Proximity_Baseline_Get
 10107  0293  0020               	movlb	0	; select bank0
 10108  0294  0820               	movf	?_MTOUCH_Proximity_Baseline_Get,w
 10109  0295  02A5               	subwf	??_Proximity_Deviation_Update,f
 10110  0296  0821               	movf	?_MTOUCH_Proximity_Baseline_Get+1,w
 10111  0297  3BA6               	subwfb	??_Proximity_Deviation_Update+1,f
 10112  0298  0822               	movf	?_MTOUCH_Proximity_Baseline_Get+2,w
 10113  0299  3BA7               	subwfb	??_Proximity_Deviation_Update+2,f
 10114  029A  0823               	movf	?_MTOUCH_Proximity_Baseline_Get+3,w
 10115  029B  3BA8               	subwfb	??_Proximity_Deviation_Update+3,f
 10116  029C  0828               	movf	??_Proximity_Deviation_Update+3,w
 10117  029D  00B2               	movwf	Proximity_Deviation_Update@deviation+3
 10118  029E  0827               	movf	??_Proximity_Deviation_Update+2,w
 10119  029F  00B1               	movwf	Proximity_Deviation_Update@deviation+2
 10120  02A0  0826               	movf	??_Proximity_Deviation_Update+1,w
 10121  02A1  00B0               	movwf	Proximity_Deviation_Update@deviation+1
 10122  02A2  0825               	movf	??_Proximity_Deviation_Update,w
 10123  02A3  00AF               	movwf	Proximity_Deviation_Update@deviation
 10124  02A4                     l3294:	
 10125                           
 10126                           ;mcc_generated_files/mtouch/mtouch_proximity.c: 347:     deviation = deviation >> (mtouc
      +                          h_proximity[name].scaling);
 10127  02A4  082F               	movf	Proximity_Deviation_Update@deviation,w
 10128  02A5  00A5               	movwf	??_Proximity_Deviation_Update
 10129  02A6  0830               	movf	Proximity_Deviation_Update@deviation+1,w
 10130  02A7  00A6               	movwf	??_Proximity_Deviation_Update+1
 10131  02A8  0831               	movf	Proximity_Deviation_Update@deviation+2,w
 10132  02A9  00A7               	movwf	??_Proximity_Deviation_Update+2
 10133  02AA  0832               	movf	Proximity_Deviation_Update@deviation+3,w
 10134  02AB  00A8               	movwf	??_Proximity_Deviation_Update+3
 10135  02AC  0E33               	swapf	Proximity_Deviation_Update@name,w
 10136  02AD  39F0               	andlw	240
 10137  02AE  0733               	addwf	Proximity_Deviation_Update@name,w
 10138  02AF  0733               	addwf	Proximity_Deviation_Update@name,w
 10139  02B0  3E69               	addlw	(low ((_mtouch_proximity| 0+17)))& (0+255)
 10140  02B1  0086               	movwf	6
 10141  02B2  0187               	clrf	7
 10142  02B3  0A01               	incf	1,w
 10143  02B4  2AB9               	goto	u2550
 10144  02B5                     u2555:	
 10145  02B5  37A8               	asrf	??_Proximity_Deviation_Update+3,f
 10146  02B6  0CA7               	rrf	??_Proximity_Deviation_Update+2,f
 10147  02B7  0CA6               	rrf	??_Proximity_Deviation_Update+1,f
 10148  02B8  0CA5               	rrf	??_Proximity_Deviation_Update,f
 10149  02B9                     u2550:	
 10150  02B9  0B89               	decfsz	9,f
 10151  02BA  2AB5               	goto	u2555
 10152  02BB  0828               	movf	??_Proximity_Deviation_Update+3,w
 10153  02BC  00B2               	movwf	Proximity_Deviation_Update@deviation+3
 10154  02BD  0827               	movf	??_Proximity_Deviation_Update+2,w
 10155  02BE  00B1               	movwf	Proximity_Deviation_Update@deviation+2
 10156  02BF  0826               	movf	??_Proximity_Deviation_Update+1,w
 10157  02C0  00B0               	movwf	Proximity_Deviation_Update@deviation+1
 10158  02C1  0825               	movf	??_Proximity_Deviation_Update,w
 10159  02C2  00AF               	movwf	Proximity_Deviation_Update@deviation
 10160  02C3                     l3296:	
 10161                           
 10162                           ;mcc_generated_files/mtouch/mtouch_proximity.c: 350:     if (deviation > ((0x7f)))
 10163  02C3  1BB2               	btfsc	Proximity_Deviation_Update@deviation+3,7
 10164  02C4  2AD3               	goto	u2561
 10165  02C5  0832               	movf	Proximity_Deviation_Update@deviation+3,w
 10166  02C6  1D03               	btfss	3,2
 10167  02C7  2AD4               	goto	u2560
 10168  02C8  0831               	movf	Proximity_Deviation_Update@deviation+2,w
 10169  02C9  1D03               	btfss	3,2
 10170  02CA  2AD4               	goto	u2560
 10171  02CB  0830               	movf	Proximity_Deviation_Update@deviation+1,w
 10172  02CC  1D03               	btfss	3,2
 10173  02CD  2AD4               	goto	u2560
 10174  02CE  3080               	movlw	128
 10175  02CF  022F               	subwf	Proximity_Deviation_Update@deviation,w
 10176  02D0  1C03               	btfss	3,0
 10177  02D1  2AD3               	goto	u2561
 10178  02D2  2AD4               	goto	u2560
 10179  02D3                     u2561:	
 10180  02D3  2ADC               	goto	l3300
 10181  02D4                     u2560:	
 10182  02D4                     l3298:	
 10183                           
 10184                           ;mcc_generated_files/mtouch/mtouch_proximity.c: 351:     {;mcc_generated_files/mtouch/mt
      +                          ouch_proximity.c: 352:         deviation = ((0x7f));
 10185  02D4  3000               	movlw	0
 10186  02D5  00B2               	movwf	Proximity_Deviation_Update@deviation+3
 10187  02D6  3000               	movlw	0
 10188  02D7  00B1               	movwf	Proximity_Deviation_Update@deviation+2
 10189  02D8  3000               	movlw	0
 10190  02D9  00B0               	movwf	Proximity_Deviation_Update@deviation+1
 10191  02DA  307F               	movlw	127
 10192  02DB  00AF               	movwf	Proximity_Deviation_Update@deviation
 10193  02DC                     l3300:	
 10194                           
 10195                           ;mcc_generated_files/mtouch/mtouch_proximity.c: 354:     if (deviation < ((-1-0x7f)))
 10196  02DC  1FB2               	btfss	Proximity_Deviation_Update@deviation+3,7
 10197  02DD  2AE9               	goto	u2571
 10198  02DE  3080               	movlw	128
 10199  02DF  022F               	subwf	Proximity_Deviation_Update@deviation,w
 10200  02E0  30FF               	movlw	255
 10201  02E1  3B30               	subwfb	Proximity_Deviation_Update@deviation+1,w
 10202  02E2  30FF               	movlw	255
 10203  02E3  3B31               	subwfb	Proximity_Deviation_Update@deviation+2,w
 10204  02E4  30FF               	movlw	255
 10205  02E5  3B32               	subwfb	Proximity_Deviation_Update@deviation+3,w
 10206  02E6  1803               	btfsc	3,0
 10207  02E7  2AE9               	goto	u2571
 10208  02E8  2AEA               	goto	u2570
 10209  02E9                     u2571:	
 10210  02E9  2AF2               	goto	l3304
 10211  02EA                     u2570:	
 10212  02EA                     l3302:	
 10213                           
 10214                           ;mcc_generated_files/mtouch/mtouch_proximity.c: 355:     {;mcc_generated_files/mtouch/mt
      +                          ouch_proximity.c: 356:         deviation = ((-1-0x7f));
 10215  02EA  30FF               	movlw	255
 10216  02EB  00B2               	movwf	Proximity_Deviation_Update@deviation+3
 10217  02EC  30FF               	movlw	255
 10218  02ED  00B1               	movwf	Proximity_Deviation_Update@deviation+2
 10219  02EE  30FF               	movlw	255
 10220  02EF  00B0               	movwf	Proximity_Deviation_Update@deviation+1
 10221  02F0  3080               	movlw	128
 10222  02F1  00AF               	movwf	Proximity_Deviation_Update@deviation
 10223  02F2                     l3304:	
 10224                           
 10225                           ;mcc_generated_files/mtouch/mtouch_proximity.c: 359:     if(deviation < 0)
 10226  02F2  1FB2               	btfss	Proximity_Deviation_Update@deviation+3,7
 10227  02F3  2AF5               	goto	u2581
 10228  02F4  2AF6               	goto	u2580
 10229  02F5                     u2581:	
 10230  02F5  2AFF               	goto	l3308
 10231  02F6                     u2580:	
 10232  02F6                     l3306:	
 10233                           
 10234                           ;mcc_generated_files/mtouch/mtouch_proximity.c: 360:     {;mcc_generated_files/mtouch/mt
      +                          ouch_proximity.c: 361:         mtouch_proximity[name].integratedDeviation = 0;
 10235  02F6  0E33               	swapf	Proximity_Deviation_Update@name,w
 10236  02F7  39F0               	andlw	240
 10237  02F8  0733               	addwf	Proximity_Deviation_Update@name,w
 10238  02F9  0733               	addwf	Proximity_Deviation_Update@name,w
 10239  02FA  3E63               	addlw	(low ((_mtouch_proximity| 0+11)))& (0+255)
 10240  02FB  0086               	movwf	6
 10241  02FC  0187               	clrf	7
 10242  02FD  0181               	clrf	1
 10243                           
 10244                           ;mcc_generated_files/mtouch/mtouch_proximity.c: 362:     }
 10245  02FE  2B97               	goto	l881
 10246  02FF                     l3308:	
 10247  02FF  082F               	movf	Proximity_Deviation_Update@deviation,w
 10248  0300  3A80               	xorlw	128
 10249  0301  00A5               	movwf	??_Proximity_Deviation_Update
 10250  0302  0E33               	swapf	Proximity_Deviation_Update@name,w
 10251  0303  39F0               	andlw	240
 10252  0304  0733               	addwf	Proximity_Deviation_Update@name,w
 10253  0305  0733               	addwf	Proximity_Deviation_Update@name,w
 10254  0306  3E68               	addlw	(low ((_mtouch_proximity| 0+16)))& (0+255)
 10255  0307  0086               	movwf	6
 10256  0308  0187               	clrf	7
 10257  0309  0801               	movf	1,w
 10258  030A  00A6               	movwf	??_Proximity_Deviation_Update+1
 10259  030B  3003               	movlw	3
 10260  030C                     u2595:	
 10261  030C  1003               	clrc
 10262  030D  1BA6               	btfsc	??_Proximity_Deviation_Update+1,7
 10263  030E  1403               	setc
 10264  030F  0CA6               	rrf	??_Proximity_Deviation_Update+1,f
 10265  0310  0B89               	decfsz	9,f
 10266  0311  2B0C               	goto	u2595
 10267  0312  0826               	movf	??_Proximity_Deviation_Update+1,w
 10268  0313  3A80               	xorlw	128
 10269  0314  02A5               	subwf	??_Proximity_Deviation_Update,f
 10270  0315  1803               	skipnc
 10271  0316  2B18               	goto	u2601
 10272  0317  2B19               	goto	u2600
 10273  0318                     u2601:	
 10274  0318  2B33               	goto	l3314
 10275  0319                     u2600:	
 10276  0319                     l3310:	
 10277                           
 10278                           ;mcc_generated_files/mtouch/mtouch_proximity.c: 364:     {;mcc_generated_files/mtouch/mt
      +                          ouch_proximity.c: 366:         if(mtouch_proximity[name].integratedDeviation >0 )
 10279  0319  0E33               	swapf	Proximity_Deviation_Update@name,w
 10280  031A  39F0               	andlw	240
 10281  031B  0733               	addwf	Proximity_Deviation_Update@name,w
 10282  031C  0733               	addwf	Proximity_Deviation_Update@name,w
 10283  031D  3E63               	addlw	(low ((_mtouch_proximity| 0+11)))& (0+255)
 10284  031E  0086               	movwf	6
 10285  031F  0187               	clrf	7
 10286  0320  0801               	movf	1,w
 10287  0321  3A80               	xorlw	128
 10288  0322  3E7F               	addlw	-129
 10289  0323  1C03               	skipc
 10290  0324  2B26               	goto	u2611
 10291  0325  2B27               	goto	u2610
 10292  0326                     u2611:	
 10293  0326  2B97               	goto	l881
 10294  0327                     u2610:	
 10295  0327                     l3312:	
 10296                           
 10297                           ;mcc_generated_files/mtouch/mtouch_proximity.c: 367:             mtouch_proximity[name].
      +                          integratedDeviation--;
 10298  0327  30FF               	movlw	255
 10299  0328  00A5               	movwf	??_Proximity_Deviation_Update
 10300  0329  0E33               	swapf	Proximity_Deviation_Update@name,w
 10301  032A  39F0               	andlw	240
 10302  032B  0733               	addwf	Proximity_Deviation_Update@name,w
 10303  032C  0733               	addwf	Proximity_Deviation_Update@name,w
 10304  032D  3E63               	addlw	(low ((_mtouch_proximity| 0+11)))& (0+255)
 10305  032E  0086               	movwf	6
 10306  032F  0187               	clrf	7
 10307  0330  0825               	movf	??_Proximity_Deviation_Update,w
 10308  0331  0781               	addwf	1,f
 10309  0332  2B97               	goto	l881
 10310  0333                     l3314:	
 10311                           
 10312                           ;mcc_generated_files/mtouch/mtouch_proximity.c: 370:     {;mcc_generated_files/mtouch/mt
      +                          ouch_proximity.c: 371:         mtouch_proximity[name].integratedDeviation -= mtouch_prox
      +                          imity[name].integratedDeviation >> ((uint8_t)2u);;
 10313  0333  0E33               	swapf	Proximity_Deviation_Update@name,w
 10314  0334  39F0               	andlw	240
 10315  0335  0733               	addwf	Proximity_Deviation_Update@name,w
 10316  0336  0733               	addwf	Proximity_Deviation_Update@name,w
 10317  0337  3E63               	addlw	(low ((_mtouch_proximity| 0+11)))& (0+255)
 10318  0338  0086               	movwf	6
 10319  0339  0187               	clrf	7
 10320  033A  0801               	movf	1,w
 10321  033B  00A5               	movwf	??_Proximity_Deviation_Update
 10322  033C  3002               	movlw	2
 10323  033D                     u2625:	
 10324  033D  1003               	clrc
 10325  033E  1BA5               	btfsc	??_Proximity_Deviation_Update,7
 10326  033F  1403               	setc
 10327  0340  0CA5               	rrf	??_Proximity_Deviation_Update,f
 10328  0341  0B89               	decfsz	9,f
 10329  0342  2B3D               	goto	u2625
 10330  0343  0E33               	swapf	Proximity_Deviation_Update@name,w
 10331  0344  39F0               	andlw	240
 10332  0345  0733               	addwf	Proximity_Deviation_Update@name,w
 10333  0346  0733               	addwf	Proximity_Deviation_Update@name,w
 10334  0347  3E63               	addlw	(low ((_mtouch_proximity| 0+11)))& (0+255)
 10335  0348  0086               	movwf	6
 10336  0349  0187               	clrf	7
 10337  034A  0825               	movf	??_Proximity_Deviation_Update,w
 10338  034B  0281               	subwf	1,f
 10339                           
 10340                           ;mcc_generated_files/mtouch/mtouch_proximity.c: 372:         if(((0x7f)) - mtouch_proxim
      +                          ity[name].integratedDeviation > deviation)
 10341  034C  0E33               	swapf	Proximity_Deviation_Update@name,w
 10342  034D  39F0               	andlw	240
 10343  034E  0733               	addwf	Proximity_Deviation_Update@name,w
 10344  034F  0733               	addwf	Proximity_Deviation_Update@name,w
 10345  0350  3E63               	addlw	(low ((_mtouch_proximity| 0+11)))& (0+255)
 10346  0351  0086               	movwf	6
 10347  0352  0187               	clrf	7
 10348  0353  0801               	movf	1,w
 10349  0354  00A5               	movwf	??_Proximity_Deviation_Update
 10350  0355  01A6               	clrf	??_Proximity_Deviation_Update+1
 10351  0356  1BA5               	btfsc	??_Proximity_Deviation_Update,7
 10352  0357  03A6               	decf	??_Proximity_Deviation_Update+1,f
 10353  0358  307F               	movlw	127
 10354  0359  00A7               	movwf	??_Proximity_Deviation_Update+2
 10355  035A  0825               	movf	??_Proximity_Deviation_Update,w
 10356  035B  0227               	subwf	??_Proximity_Deviation_Update+2,w
 10357  035C  00A8               	movwf	??_Proximity_Deviation_Update+3
 10358  035D  0926               	comf	??_Proximity_Deviation_Update+1,w
 10359  035E  1803               	skipnc
 10360  035F  0A89               	incf	9,f
 10361  0360  00A9               	movwf	??_Proximity_Deviation_Update+4
 10362  0361  0828               	movf	??_Proximity_Deviation_Update+3,w
 10363  0362  00AA               	movwf	??_Proximity_Deviation_Update+5
 10364  0363  0829               	movf	??_Proximity_Deviation_Update+4,w
 10365  0364  00AB               	movwf	??_Proximity_Deviation_Update+6
 10366  0365  3000               	movlw	0
 10367  0366  1BAB               	btfsc	??_Proximity_Deviation_Update+6,7
 10368  0367  30FF               	movlw	255
 10369  0368  00AC               	movwf	??_Proximity_Deviation_Update+7
 10370  0369  00AD               	movwf	??_Proximity_Deviation_Update+8
 10371  036A  0832               	movf	Proximity_Deviation_Update@deviation+3,w
 10372  036B  3A80               	xorlw	128
 10373  036C  00AE               	movwf	??_Proximity_Deviation_Update+9
 10374  036D  082D               	movf	??_Proximity_Deviation_Update+8,w
 10375  036E  3A80               	xorlw	128
 10376  036F  022E               	subwf	??_Proximity_Deviation_Update+9,w
 10377  0370  1D03               	skipz
 10378  0371  2B7C               	goto	u2633
 10379  0372  082C               	movf	??_Proximity_Deviation_Update+7,w
 10380  0373  0231               	subwf	Proximity_Deviation_Update@deviation+2,w
 10381  0374  1D03               	skipz
 10382  0375  2B7C               	goto	u2633
 10383  0376  082B               	movf	??_Proximity_Deviation_Update+6,w
 10384  0377  0230               	subwf	Proximity_Deviation_Update@deviation+1,w
 10385  0378  1D03               	skipz
 10386  0379  2B7C               	goto	u2633
 10387  037A  082A               	movf	??_Proximity_Deviation_Update+5,w
 10388  037B  022F               	subwf	Proximity_Deviation_Update@deviation,w
 10389  037C                     u2633:	
 10390  037C  1803               	skipnc
 10391  037D  2B7F               	goto	u2631
 10392  037E  2B80               	goto	u2630
 10393  037F                     u2631:	
 10394  037F  2B8C               	goto	l3318
 10395  0380                     u2630:	
 10396  0380                     l3316:	
 10397                           
 10398                           ;mcc_generated_files/mtouch/mtouch_proximity.c: 373:             mtouch_proximity[name].
      +                          integratedDeviation += deviation;
 10399  0380  082F               	movf	Proximity_Deviation_Update@deviation,w
 10400  0381  00A5               	movwf	??_Proximity_Deviation_Update
 10401  0382  0E33               	swapf	Proximity_Deviation_Update@name,w
 10402  0383  39F0               	andlw	240
 10403  0384  0733               	addwf	Proximity_Deviation_Update@name,w
 10404  0385  0733               	addwf	Proximity_Deviation_Update@name,w
 10405  0386  3E63               	addlw	(low ((_mtouch_proximity| 0+11)))& (0+255)
 10406  0387  0086               	movwf	6
 10407  0388  0187               	clrf	7
 10408  0389  0825               	movf	??_Proximity_Deviation_Update,w
 10409  038A  0781               	addwf	1,f
 10410  038B  2B97               	goto	l881
 10411  038C                     l3318:	
 10412                           
 10413                           ;mcc_generated_files/mtouch/mtouch_proximity.c: 375:             mtouch_proximity[name].
      +                          integratedDeviation = ((0x7f));
 10414  038C  307F               	movlw	127
 10415  038D  00A5               	movwf	??_Proximity_Deviation_Update
 10416  038E  0E33               	swapf	Proximity_Deviation_Update@name,w
 10417  038F  39F0               	andlw	240
 10418  0390  0733               	addwf	Proximity_Deviation_Update@name,w
 10419  0391  0733               	addwf	Proximity_Deviation_Update@name,w
 10420  0392  3E63               	addlw	(low ((_mtouch_proximity| 0+11)))& (0+255)
 10421  0393  0086               	movwf	6
 10422  0394  0187               	clrf	7
 10423  0395  0825               	movf	??_Proximity_Deviation_Update,w
 10424  0396  0081               	movwf	1
 10425  0397                     l881:	
 10426  0397  0008               	return
 10427  0398                     __end_of_Proximity_Deviation_Update:	
 10428                           
 10429                           	psect	text63
 10430  0C1A                     __ptext63:	
 10431 ;; *************** function _MTOUCH_Proximity_Reading_Get *****************
 10432 ;; Defined at:
 10433 ;;		line 385 in file "mcc_generated_files/mtouch/mtouch_proximity.c"
 10434 ;; Parameters:    Size  Location     Type
 10435 ;;  name            1    wreg     enum E3067
 10436 ;; Auto vars:     Size  Location     Type
 10437 ;;  name            1    6[COMMON] enum E3067
 10438 ;; Return value:  Size  Location     Type
 10439 ;;                  4    1[COMMON] unsigned long 
 10440 ;; Registers used:
 10441 ;;		wreg, fsr1l, fsr1h, status,2, status,0
 10442 ;; Tracked objects:
 10443 ;;		On entry : 0/0
 10444 ;;		On exit  : 0/0
 10445 ;;		Unchanged: 0/0
 10446 ;; Data sizes:     COMMON   BANK0   BANK1   BANK2   BANK3   BANK4   BANK5   BANK6
 10447 ;;      Params:         5       0       0       0       0       0       0       0
 10448 ;;      Locals:         1       0       0       0       0       0       0       0
 10449 ;;      Temps:          0       0       0       0       0       0       0       0
 10450 ;;      Totals:         6       0       0       0       0       0       0       0
 10451 ;;Total ram usage:        6 bytes
 10452 ;; Hardware stack levels used:    1
 10453 ;; Hardware stack levels required when called:    4
 10454 ;; This function calls:
 10455 ;;		Nothing
 10456 ;; This function is called by:
 10457 ;;		_Proximity_State_NotActivated
 10458 ;;		_Proximity_Deviation_Update
 10459 ;; This function uses a non-reentrant model
 10460 ;;
 10461                           
 10462                           
 10463                           ;psect for function _MTOUCH_Proximity_Reading_Get
 10464  0C1A                     _MTOUCH_Proximity_Reading_Get:	
 10465                           
 10466                           ;incstack = 0
 10467                           ; Regs used in _MTOUCH_Proximity_Reading_Get: [wreg+fsr1l+fsr1h+status,2+status,0]
 10468                           ;MTOUCH_Proximity_Reading_Get@name stored from wreg
 10469  0C1A  00F6               	movwf	MTOUCH_Proximity_Reading_Get@name
 10470  0C1B                     l3162:	
 10471                           
 10472                           ;mcc_generated_files/mtouch/mtouch_proximity.c: 385: mtouch_prox_reading_t MTOUCH_Proxim
      +                          ity_Reading_Get(enum mtouch_proximity_names name);mcc_generated_files/mtouch/mtouch_prox
      +                          imity.c: 386: {;mcc_generated_files/mtouch/mtouch_proximity.c: 387:     if (name < 1u)
 10473  0C1B  0876               	movf	MTOUCH_Proximity_Reading_Get@name,w
 10474  0C1C  1D03               	btfss	3,2
 10475  0C1D  2C1F               	goto	u2371
 10476  0C1E  2C20               	goto	u2370
 10477  0C1F                     u2371:	
 10478  0C1F  2C30               	goto	l3170
 10479  0C20                     u2370:	
 10480  0C20                     l3164:	
 10481                           
 10482                           ;mcc_generated_files/mtouch/mtouch_proximity.c: 388:         return mtouch_proximity[nam
      +                          e].reading;
 10483  0C20  0E76               	swapf	MTOUCH_Proximity_Reading_Get@name,w
 10484  0C21  39F0               	andlw	240
 10485  0C22  0776               	addwf	MTOUCH_Proximity_Reading_Get@name,w
 10486  0C23  0776               	addwf	MTOUCH_Proximity_Reading_Get@name,w
 10487  0C24  3E5B               	addlw	(low ((_mtouch_proximity| 0+3)))& (0+255)
 10488  0C25  0086               	movwf	6
 10489  0C26  0187               	clrf	7
 10490  0C27  3F40               	moviw [0]fsr1
 10491  0C28  00F1               	movwf	?_MTOUCH_Proximity_Reading_Get
 10492  0C29  3F41               	moviw [1]fsr1
 10493  0C2A  00F2               	movwf	?_MTOUCH_Proximity_Reading_Get+1
 10494  0C2B  3F42               	moviw [2]fsr1
 10495  0C2C  00F3               	movwf	?_MTOUCH_Proximity_Reading_Get+2
 10496  0C2D  3F43               	moviw [3]fsr1
 10497  0C2E  00F4               	movwf	?_MTOUCH_Proximity_Reading_Get+3
 10498  0C2F  2C38               	goto	l885
 10499  0C30                     l3170:	
 10500                           
 10501                           ;mcc_generated_files/mtouch/mtouch_proximity.c: 390:         return (mtouch_prox_reading
      +                          _t)0;
 10502  0C30  3000               	movlw	0
 10503  0C31  00F4               	movwf	?_MTOUCH_Proximity_Reading_Get+3
 10504  0C32  3000               	movlw	0
 10505  0C33  00F3               	movwf	?_MTOUCH_Proximity_Reading_Get+2
 10506  0C34  3000               	movlw	0
 10507  0C35  00F2               	movwf	?_MTOUCH_Proximity_Reading_Get+1
 10508  0C36  3000               	movlw	0
 10509  0C37  00F1               	movwf	?_MTOUCH_Proximity_Reading_Get
 10510  0C38                     l885:	
 10511  0C38  0008               	return
 10512  0C39                     __end_of_MTOUCH_Proximity_Reading_Get:	
 10513                           
 10514                           	psect	text64
 10515  0BDE                     __ptext64:	
 10516 ;; *************** function _MTOUCH_Proximity_Baseline_Get *****************
 10517 ;; Defined at:
 10518 ;;		line 441 in file "mcc_generated_files/mtouch/mtouch_proximity.c"
 10519 ;; Parameters:    Size  Location     Type
 10520 ;;  name            1    wreg     enum E3067
 10521 ;; Auto vars:     Size  Location     Type
 10522 ;;  name            1   10[COMMON] enum E3067
 10523 ;; Return value:  Size  Location     Type
 10524 ;;                  4    0[BANK0 ] unsigned long 
 10525 ;; Registers used:
 10526 ;;		wreg, fsr1l, fsr1h, status,2, status,0, pclath, cstack
 10527 ;; Tracked objects:
 10528 ;;		On entry : 0/0
 10529 ;;		On exit  : 0/0
 10530 ;;		Unchanged: 0/0
 10531 ;; Data sizes:     COMMON   BANK0   BANK1   BANK2   BANK3   BANK4   BANK5   BANK6
 10532 ;;      Params:         0       5       0       0       0       0       0       0
 10533 ;;      Locals:         1       0       0       0       0       0       0       0
 10534 ;;      Temps:          0       0       0       0       0       0       0       0
 10535 ;;      Totals:         1       5       0       0       0       0       0       0
 10536 ;;Total ram usage:        6 bytes
 10537 ;; Hardware stack levels used:    1
 10538 ;; Hardware stack levels required when called:    5
 10539 ;; This function calls:
 10540 ;;		_Proximity_Baseline_Get_helper
 10541 ;; This function is called by:
 10542 ;;		_Proximity_State_NotActivated
 10543 ;;		_Proximity_Deviation_Update
 10544 ;; This function uses a non-reentrant model
 10545 ;;
 10546                           
 10547                           
 10548                           ;psect for function _MTOUCH_Proximity_Baseline_Get
 10549  0BDE                     _MTOUCH_Proximity_Baseline_Get:	
 10550                           
 10551                           ;incstack = 0
 10552                           ; Regs used in _MTOUCH_Proximity_Baseline_Get: [wreg+fsr1l+fsr1h+status,2+status,0+pclat
      +                          h+cstack]
 10553                           ;MTOUCH_Proximity_Baseline_Get@name stored from wreg
 10554  0BDE  00FA               	movwf	MTOUCH_Proximity_Baseline_Get@name
 10555  0BDF                     l3174:	
 10556                           
 10557                           ;mcc_generated_files/mtouch/mtouch_proximity.c: 441: mtouch_prox_reading_t MTOUCH_Proxim
      +                          ity_Baseline_Get(enum mtouch_proximity_names name);mcc_generated_files/mtouch/mtouch_pro
      +                          ximity.c: 442: {;mcc_generated_files/mtouch/mtouch_proximity.c: 443:     if (name < 1u)
 10558  0BDF  087A               	movf	MTOUCH_Proximity_Baseline_Get@name,w
 10559  0BE0  1D03               	btfss	3,2
 10560  0BE1  2BE3               	goto	u2381
 10561  0BE2  2BE4               	goto	u2380
 10562  0BE3                     u2381:	
 10563  0BE3  2BF2               	goto	l3182
 10564  0BE4                     u2380:	
 10565  0BE4                     l3176:	
 10566                           
 10567                           ;mcc_generated_files/mtouch/mtouch_proximity.c: 444:         return Proximity_Baseline_G
      +                          et_helper(name);
 10568  0BE4  087A               	movf	MTOUCH_Proximity_Baseline_Get@name,w
 10569  0BE5  318C  2458  318B   	fcall	_Proximity_Baseline_Get_helper
 10570  0BE8  0874               	movf	?_Proximity_Baseline_Get_helper+3,w
 10571  0BE9  0020               	movlb	0	; select bank0
 10572  0BEA  00A3               	movwf	?_MTOUCH_Proximity_Baseline_Get+3
 10573  0BEB  0873               	movf	?_Proximity_Baseline_Get_helper+2,w
 10574  0BEC  00A2               	movwf	?_MTOUCH_Proximity_Baseline_Get+2
 10575  0BED  0872               	movf	?_Proximity_Baseline_Get_helper+1,w
 10576  0BEE  00A1               	movwf	?_MTOUCH_Proximity_Baseline_Get+1
 10577  0BEF  0871               	movf	?_Proximity_Baseline_Get_helper,w
 10578  0BF0  00A0               	movwf	?_MTOUCH_Proximity_Baseline_Get
 10579  0BF1  2BFB               	goto	l908
 10580  0BF2                     l3182:	
 10581                           
 10582                           ;mcc_generated_files/mtouch/mtouch_proximity.c: 446:         return (mtouch_prox_reading
      +                          _t)0;
 10583  0BF2  3000               	movlw	0
 10584  0BF3  0020               	movlb	0	; select bank0
 10585  0BF4  00A3               	movwf	?_MTOUCH_Proximity_Baseline_Get+3
 10586  0BF5  3000               	movlw	0
 10587  0BF6  00A2               	movwf	?_MTOUCH_Proximity_Baseline_Get+2
 10588  0BF7  3000               	movlw	0
 10589  0BF8  00A1               	movwf	?_MTOUCH_Proximity_Baseline_Get+1
 10590  0BF9  3000               	movlw	0
 10591  0BFA  00A0               	movwf	?_MTOUCH_Proximity_Baseline_Get
 10592  0BFB                     l908:	
 10593  0BFB  0008               	return
 10594  0BFC                     __end_of_MTOUCH_Proximity_Baseline_Get:	
 10595                           
 10596                           	psect	text65
 10597  0C58                     __ptext65:	
 10598 ;; *************** function _Proximity_Baseline_Get_helper *****************
 10599 ;; Defined at:
 10600 ;;		line 450 in file "mcc_generated_files/mtouch/mtouch_proximity.c"
 10601 ;; Parameters:    Size  Location     Type
 10602 ;;  name            1    wreg     enum E3067
 10603 ;; Auto vars:     Size  Location     Type
 10604 ;;  name            1    9[COMMON] enum E3067
 10605 ;; Return value:  Size  Location     Type
 10606 ;;                  4    1[COMMON] unsigned long 
 10607 ;; Registers used:
 10608 ;;		wreg, fsr1l, fsr1h, status,2, status,0
 10609 ;; Tracked objects:
 10610 ;;		On entry : 0/0
 10611 ;;		On exit  : 0/0
 10612 ;;		Unchanged: 0/0
 10613 ;; Data sizes:     COMMON   BANK0   BANK1   BANK2   BANK3   BANK4   BANK5   BANK6
 10614 ;;      Params:         4       0       0       0       0       0       0       0
 10615 ;;      Locals:         1       0       0       0       0       0       0       0
 10616 ;;      Temps:          4       0       0       0       0       0       0       0
 10617 ;;      Totals:         9       0       0       0       0       0       0       0
 10618 ;;Total ram usage:        9 bytes
 10619 ;; Hardware stack levels used:    1
 10620 ;; Hardware stack levels required when called:    4
 10621 ;; This function calls:
 10622 ;;		Nothing
 10623 ;; This function is called by:
 10624 ;;		_MTOUCH_Proximity_Baseline_Get
 10625 ;; This function uses a non-reentrant model
 10626 ;;
 10627                           
 10628                           
 10629                           ;psect for function _Proximity_Baseline_Get_helper
 10630  0C58                     _Proximity_Baseline_Get_helper:	
 10631                           
 10632                           ;incstack = 0
 10633                           ; Regs used in _Proximity_Baseline_Get_helper: [wreg+fsr1l+fsr1h+status,2+status,0]
 10634                           ;Proximity_Baseline_Get_helper@name stored from wreg
 10635  0C58  00F9               	movwf	Proximity_Baseline_Get_helper@name
 10636  0C59                     l3066:	
 10637                           
 10638                           ;mcc_generated_files/mtouch/mtouch_proximity.c: 450: static mtouch_prox_reading_t Proxim
      +                          ity_Baseline_Get_helper(enum mtouch_proximity_names name);mcc_generated_files/mtouch/mto
      +                          uch_proximity.c: 451: {;mcc_generated_files/mtouch/mtouch_proximity.c: 452:     return (
      +                          mtouch_prox_reading_t)(mtouch_proximity[name].baseline >> ((uint8_t)4u));
 10639  0C59  0E79               	swapf	Proximity_Baseline_Get_helper@name,w
 10640  0C5A  39F0               	andlw	240
 10641  0C5B  0779               	addwf	Proximity_Baseline_Get_helper@name,w
 10642  0C5C  0779               	addwf	Proximity_Baseline_Get_helper@name,w
 10643  0C5D  3E5F               	addlw	(low ((_mtouch_proximity| 0+7)))& (0+255)
 10644  0C5E  0086               	movwf	6
 10645  0C5F  0187               	clrf	7
 10646  0C60  3F40               	moviw [0]fsr1
 10647  0C61  00F5               	movwf	??_Proximity_Baseline_Get_helper
 10648  0C62  3F41               	moviw [1]fsr1
 10649  0C63  00F6               	movwf	??_Proximity_Baseline_Get_helper+1
 10650  0C64  3F42               	moviw [2]fsr1
 10651  0C65  00F7               	movwf	??_Proximity_Baseline_Get_helper+2
 10652  0C66  3F43               	moviw [3]fsr1
 10653  0C67  00F8               	movwf	??_Proximity_Baseline_Get_helper+3
 10654  0C68  3004               	movlw	4
 10655  0C69                     u2235:	
 10656  0C69  36F8               	lsrf	??_Proximity_Baseline_Get_helper+3,f
 10657  0C6A  0CF7               	rrf	??_Proximity_Baseline_Get_helper+2,f
 10658  0C6B  0CF6               	rrf	??_Proximity_Baseline_Get_helper+1,f
 10659  0C6C  0CF5               	rrf	??_Proximity_Baseline_Get_helper,f
 10660  0C6D                     u2230:	
 10661  0C6D  0B89               	decfsz	9,f
 10662  0C6E  2C69               	goto	u2235
 10663  0C6F  0878               	movf	??_Proximity_Baseline_Get_helper+3,w
 10664  0C70  00F4               	movwf	?_Proximity_Baseline_Get_helper+3
 10665  0C71  0877               	movf	??_Proximity_Baseline_Get_helper+2,w
 10666  0C72  00F3               	movwf	?_Proximity_Baseline_Get_helper+2
 10667  0C73  0876               	movf	??_Proximity_Baseline_Get_helper+1,w
 10668  0C74  00F2               	movwf	?_Proximity_Baseline_Get_helper+1
 10669  0C75  0875               	movf	??_Proximity_Baseline_Get_helper,w
 10670  0C76  00F1               	movwf	?_Proximity_Baseline_Get_helper
 10671  0C77                     l912:	
 10672  0C77  0008               	return
 10673  0C78                     __end_of_Proximity_Baseline_Get_helper:	
 10674                           
 10675                           	psect	text66
 10676  0A2E                     __ptext66:	
 10677 ;; *************** function _MTOUCH_Sensor_wasSampled *****************
 10678 ;; Defined at:
 10679 ;;		line 942 in file "mcc_generated_files/mtouch/mtouch_sensor.c"
 10680 ;; Parameters:    Size  Location     Type
 10681 ;;  sensor          1    wreg     enum E2854
 10682 ;; Auto vars:     Size  Location     Type
 10683 ;;  sensor          1    6[COMMON] enum E2854
 10684 ;; Return value:  Size  Location     Type
 10685 ;;                  1    wreg      _Bool 
 10686 ;; Registers used:
 10687 ;;		wreg, fsr1l, fsr1h, status,2, status,0, pclath, cstack
 10688 ;; Tracked objects:
 10689 ;;		On entry : 0/0
 10690 ;;		On exit  : 0/0
 10691 ;;		Unchanged: 0/0
 10692 ;; Data sizes:     COMMON   BANK0   BANK1   BANK2   BANK3   BANK4   BANK5   BANK6
 10693 ;;      Params:         0       0       0       0       0       0       0       0
 10694 ;;      Locals:         1       0       0       0       0       0       0       0
 10695 ;;      Temps:          1       0       0       0       0       0       0       0
 10696 ;;      Totals:         2       0       0       0       0       0       0       0
 10697 ;;Total ram usage:        2 bytes
 10698 ;; Hardware stack levels used:    1
 10699 ;; Hardware stack levels required when called:    5
 10700 ;; This function calls:
 10701 ;;		___bmul
 10702 ;; This function is called by:
 10703 ;;		_Proximity_Service
 10704 ;; This function uses a non-reentrant model
 10705 ;;
 10706                           
 10707                           
 10708                           ;psect for function _MTOUCH_Sensor_wasSampled
 10709  0A2E                     _MTOUCH_Sensor_wasSampled:	
 10710                           
 10711                           ;incstack = 0
 10712                           ; Regs used in _MTOUCH_Sensor_wasSampled: [wreg+fsr1l+fsr1h+status,2+status,0+pclath+cst
      +                          ack]
 10713                           ;MTOUCH_Sensor_wasSampled@sensor stored from wreg
 10714  0A2E  00F6               	movwf	MTOUCH_Sensor_wasSampled@sensor
 10715  0A2F                     l4178:	
 10716                           
 10717                           ;mcc_generated_files/mtouch/mtouch_sensor.c: 942: _Bool MTOUCH_Sensor_wasSampled(enum mt
      +                          ouch_sensor_names sensor);mcc_generated_files/mtouch/mtouch_sensor.c: 943: {;mcc_generat
      +                          ed_files/mtouch/mtouch_sensor.c: 944:     return (_Bool)mtouch_sensor[sensor].sampled;
 10718  0A2F  3009               	movlw	9
 10719  0A30  00F5               	movwf	??_MTOUCH_Sensor_wasSampled
 10720  0A31  0875               	movf	??_MTOUCH_Sensor_wasSampled,w
 10721  0A32  00F1               	movwf	___bmul@multiplicand
 10722  0A33  0876               	movf	MTOUCH_Sensor_wasSampled@sensor,w
 10723  0A34  318A  22E7  318A   	fcall	___bmul
 10724  0A37  3EC6               	addlw	(low ((_mtouch_sensor| 0+8)))& (0+255)
 10725  0A38  0086               	movwf	6
 10726  0A39  0187               	clrf	7
 10727  0A3A  0801               	movf	1,w
 10728  0A3B  3901               	andlw	1
 10729  0A3C                     l367:	
 10730  0A3C  0008               	return
 10731  0A3D                     __end_of_MTOUCH_Sensor_wasSampled:	
 10732                           
 10733                           	psect	text67
 10734  0B12                     __ptext67:	
 10735 ;; *************** function _MTOUCH_Sensor_isCalibrated *****************
 10736 ;; Defined at:
 10737 ;;		line 895 in file "mcc_generated_files/mtouch/mtouch_sensor.c"
 10738 ;; Parameters:    Size  Location     Type
 10739 ;;  sensor          1    wreg     enum E2854
 10740 ;; Auto vars:     Size  Location     Type
 10741 ;;  sensor          1    6[COMMON] enum E2854
 10742 ;; Return value:  Size  Location     Type
 10743 ;;                  1    wreg      _Bool 
 10744 ;; Registers used:
 10745 ;;		wreg, fsr1l, fsr1h, status,2, status,0, pclath, cstack
 10746 ;; Tracked objects:
 10747 ;;		On entry : 0/0
 10748 ;;		On exit  : 0/0
 10749 ;;		Unchanged: 0/0
 10750 ;; Data sizes:     COMMON   BANK0   BANK1   BANK2   BANK3   BANK4   BANK5   BANK6
 10751 ;;      Params:         0       0       0       0       0       0       0       0
 10752 ;;      Locals:         1       0       0       0       0       0       0       0
 10753 ;;      Temps:          1       0       0       0       0       0       0       0
 10754 ;;      Totals:         2       0       0       0       0       0       0       0
 10755 ;;Total ram usage:        2 bytes
 10756 ;; Hardware stack levels used:    1
 10757 ;; Hardware stack levels required when called:    5
 10758 ;; This function calls:
 10759 ;;		___bmul
 10760 ;; This function is called by:
 10761 ;;		_Proximity_Service
 10762 ;; This function uses a non-reentrant model
 10763 ;;
 10764                           
 10765                           
 10766                           ;psect for function _MTOUCH_Sensor_isCalibrated
 10767  0B12                     _MTOUCH_Sensor_isCalibrated:	
 10768                           
 10769                           ;incstack = 0
 10770                           ; Regs used in _MTOUCH_Sensor_isCalibrated: [wreg+fsr1l+fsr1h+status,2+status,0+pclath+c
      +                          stack]
 10771                           ;MTOUCH_Sensor_isCalibrated@sensor stored from wreg
 10772  0B12  00F6               	movwf	MTOUCH_Sensor_isCalibrated@sensor
 10773  0B13                     l4166:	
 10774                           
 10775                           ;mcc_generated_files/mtouch/mtouch_sensor.c: 895: _Bool MTOUCH_Sensor_isCalibrated(enum 
      +                          mtouch_sensor_names sensor);mcc_generated_files/mtouch/mtouch_sensor.c: 896: {;mcc_gener
      +                          ated_files/mtouch/mtouch_sensor.c: 897:     if(sensor < 1u)
 10776  0B13  0876               	movf	MTOUCH_Sensor_isCalibrated@sensor,w
 10777  0B14  1D03               	btfss	3,2
 10778  0B15  2B17               	goto	u3841
 10779  0B16  2B18               	goto	u3840
 10780  0B17                     u3841:	
 10781  0B17  2B27               	goto	l4174
 10782  0B18                     u3840:	
 10783  0B18                     l4168:	
 10784                           
 10785                           ;mcc_generated_files/mtouch/mtouch_sensor.c: 898:         return (_Bool)mtouch_sensor[se
      +                          nsor].calibrated;
 10786  0B18  3009               	movlw	9
 10787  0B19  00F5               	movwf	??_MTOUCH_Sensor_isCalibrated
 10788  0B1A  0875               	movf	??_MTOUCH_Sensor_isCalibrated,w
 10789  0B1B  00F1               	movwf	___bmul@multiplicand
 10790  0B1C  0876               	movf	MTOUCH_Sensor_isCalibrated@sensor,w
 10791  0B1D  318A  22E7  318B   	fcall	___bmul
 10792  0B20  3EC6               	addlw	(low ((_mtouch_sensor| 0+8)))& (0+255)
 10793  0B21  0086               	movwf	6
 10794  0B22  0187               	clrf	7
 10795  0B23  0C01               	rrf	1,w
 10796  0B24  0C89               	rrf	9,f
 10797  0B25  3901               	andlw	1
 10798  0B26  2B28               	goto	l346
 10799  0B27                     l4174:	
 10800                           
 10801                           ;mcc_generated_files/mtouch/mtouch_sensor.c: 900:         return 0;
 10802  0B27  3000               	movlw	0
 10803  0B28                     l346:	
 10804  0B28  0008               	return
 10805  0B29                     __end_of_MTOUCH_Sensor_isCalibrated:	
 10806                           
 10807                           	psect	text68
 10808  0AE7                     __ptext68:	
 10809 ;; *************** function ___bmul *****************
 10810 ;; Defined at:
 10811 ;;		line 4 in file "C:\Program Files (x86)\Microchip\xc8\v2.10\pic\sources\c99\common\Umul8.c"
 10812 ;; Parameters:    Size  Location     Type
 10813 ;;  multiplier      1    wreg     unsigned char 
 10814 ;;  multiplicand    1    1[COMMON] unsigned char 
 10815 ;; Auto vars:     Size  Location     Type
 10816 ;;  multiplier      1    4[COMMON] unsigned char 
 10817 ;;  product         1    3[COMMON] unsigned char 
 10818 ;; Return value:  Size  Location     Type
 10819 ;;                  1    wreg      unsigned char 
 10820 ;; Registers used:
 10821 ;;		wreg, status,2, status,0
 10822 ;; Tracked objects:
 10823 ;;		On entry : 0/0
 10824 ;;		On exit  : 0/0
 10825 ;;		Unchanged: 0/0
 10826 ;; Data sizes:     COMMON   BANK0   BANK1   BANK2   BANK3   BANK4   BANK5   BANK6
 10827 ;;      Params:         1       0       0       0       0       0       0       0
 10828 ;;      Locals:         2       0       0       0       0       0       0       0
 10829 ;;      Temps:          1       0       0       0       0       0       0       0
 10830 ;;      Totals:         4       0       0       0       0       0       0       0
 10831 ;;Total ram usage:        4 bytes
 10832 ;; Hardware stack levels used:    1
 10833 ;; Hardware stack levels required when called:    4
 10834 ;; This function calls:
 10835 ;;		Nothing
 10836 ;; This function is called by:
 10837 ;;		_MTOUCH_Sensor_Initialize
 10838 ;;		_MTOUCH_Sensor_RawSample_Get
 10839 ;;		_MTOUCH_Sensor_Enable
 10840 ;;		_MTOUCH_Sensor_Calibrate
 10841 ;;		_MTOUCH_Sensor_isCalibrated
 10842 ;;		_MTOUCH_Sensor_wasSampled
 10843 ;;		_MTOUCH_Sensor_isAnySensorActive
 10844 ;;		_MTOUCH_Sensor_Disable
 10845 ;;		_MTOUCH_Sensor_isEnabled
 10846 ;;		_MTOUCH_Sensor_isActive
 10847 ;;		_MTOUCH_Sensor_AdditionalCap_Get
 10848 ;;		_MTOUCH_Sensor_AcquisitionTime_Get
 10849 ;;		_MTOUCH_Sensor_PreChargeTime_Get
 10850 ;;		_MTOUCH_Sensor_Oversampling_Get
 10851 ;;		_MTOUCH_Sensor_Oversampling_Set
 10852 ;; This function uses a non-reentrant model
 10853 ;;
 10854                           
 10855                           
 10856                           ;psect for function ___bmul
 10857  0AE7                     ___bmul:	
 10858                           
 10859                           ;incstack = 0
 10860                           ; Regs used in ___bmul: [wreg+status,2+status,0]
 10861                           ;___bmul@multiplier stored from wreg
 10862  0AE7  00F4               	movwf	___bmul@multiplier
 10863  0AE8                     l3828:	
 10864  0AE8  01F3               	clrf	___bmul@product
 10865  0AE9                     l3830:	
 10866  0AE9  1C74               	btfss	___bmul@multiplier,0
 10867  0AEA  2AEC               	goto	u3261
 10868  0AEB  2AED               	goto	u3260
 10869  0AEC                     u3261:	
 10870  0AEC  2AF1               	goto	l3834
 10871  0AED                     u3260:	
 10872  0AED                     l3832:	
 10873  0AED  0871               	movf	___bmul@multiplicand,w
 10874  0AEE  00F2               	movwf	??___bmul
 10875  0AEF  0872               	movf	??___bmul,w
 10876  0AF0  07F3               	addwf	___bmul@product,f
 10877  0AF1                     l3834:	
 10878  0AF1  1003               	clrc
 10879  0AF2  0DF1               	rlf	___bmul@multiplicand,f
 10880  0AF3                     l3836:	
 10881  0AF3  1003               	clrc
 10882  0AF4  0CF4               	rrf	___bmul@multiplier,f
 10883  0AF5  0874               	movf	___bmul@multiplier,w
 10884  0AF6  1D03               	btfss	3,2
 10885  0AF7  2AF9               	goto	u3271
 10886  0AF8  2AFA               	goto	u3270
 10887  0AF9                     u3271:	
 10888  0AF9  2AE9               	goto	l3830
 10889  0AFA                     u3270:	
 10890  0AFA                     l3838:	
 10891  0AFA  0873               	movf	___bmul@product,w
 10892  0AFB                     l1017:	
 10893  0AFB  0008               	return
 10894  0AFC                     __end_of___bmul:	
 10895                           
 10896                           	psect	text69
 10897  0B29                     __ptext69:	
 10898 ;; *************** function _MTOUCH_Proximity_isActivated *****************
 10899 ;; Defined at:
 10900 ;;		line 318 in file "mcc_generated_files/mtouch/mtouch_proximity.c"
 10901 ;; Parameters:    Size  Location     Type
 10902 ;;  name            1    wreg     enum E3067
 10903 ;; Auto vars:     Size  Location     Type
 10904 ;;  name            1    1[COMMON] enum E3067
 10905 ;; Return value:  Size  Location     Type
 10906 ;;                  1    wreg      _Bool 
 10907 ;; Registers used:
 10908 ;;		wreg, fsr1l, fsr1h, status,2, status,0
 10909 ;; Tracked objects:
 10910 ;;		On entry : 0/0
 10911 ;;		On exit  : 0/0
 10912 ;;		Unchanged: 0/0
 10913 ;; Data sizes:     COMMON   BANK0   BANK1   BANK2   BANK3   BANK4   BANK5   BANK6
 10914 ;;      Params:         0       0       0       0       0       0       0       0
 10915 ;;      Locals:         1       0       0       0       0       0       0       0
 10916 ;;      Temps:          0       0       0       0       0       0       0       0
 10917 ;;      Totals:         1       0       0       0       0       0       0       0
 10918 ;;Total ram usage:        1 bytes
 10919 ;; Hardware stack levels used:    1
 10920 ;; Hardware stack levels required when called:    4
 10921 ;; This function calls:
 10922 ;;		Nothing
 10923 ;; This function is called by:
 10924 ;;		_main
 10925 ;;		_touch_example
 10926 ;;		_MTOUCH_Proximity_Proximitymask_Get
 10927 ;; This function uses a non-reentrant model
 10928 ;;
 10929                           
 10930                           
 10931                           ;psect for function _MTOUCH_Proximity_isActivated
 10932  0B29                     _MTOUCH_Proximity_isActivated:	
 10933                           
 10934                           ;incstack = 0
 10935                           ; Regs used in _MTOUCH_Proximity_isActivated: [wreg+fsr1l+fsr1h+status,2+status,0]
 10936                           ;MTOUCH_Proximity_isActivated@name stored from wreg
 10937  0B29  00F1               	movwf	MTOUCH_Proximity_isActivated@name
 10938  0B2A                     l2358:	
 10939                           
 10940                           ;mcc_generated_files/mtouch/mtouch_proximity.c: 318: _Bool MTOUCH_Proximity_isActivated(
      +                          enum mtouch_proximity_names name);mcc_generated_files/mtouch/mtouch_proximity.c: 319: {;
      +                          mcc_generated_files/mtouch/mtouch_proximity.c: 320:     if(name < 1u)
 10941  0B2A  0871               	movf	MTOUCH_Proximity_isActivated@name,w
 10942  0B2B  1D03               	btfss	3,2
 10943  0B2C  2B2E               	goto	u1231
 10944  0B2D  2B2F               	goto	u1230
 10945  0B2E                     u1231:	
 10946  0B2E  2B3F               	goto	l2366
 10947  0B2F                     u1230:	
 10948  0B2F                     l2360:	
 10949                           
 10950                           ;mcc_generated_files/mtouch/mtouch_proximity.c: 321:         return (mtouch_proximity[na
      +                          me].state == MTOUCH_PROXIMITY_STATE_activated) ? 1 : 0;
 10951  0B2F  0E71               	swapf	MTOUCH_Proximity_isActivated@name,w
 10952  0B30  39F0               	andlw	240
 10953  0B31  0771               	addwf	MTOUCH_Proximity_isActivated@name,w
 10954  0B32  0771               	addwf	MTOUCH_Proximity_isActivated@name,w
 10955  0B33  3E5A               	addlw	(low ((_mtouch_proximity| 0+2)))& (0+255)
 10956  0B34  0086               	movwf	6
 10957  0B35  0187               	clrf	7
 10958  0B36  3002               	movlw	2
 10959  0B37  0601               	xorwf	1,w
 10960  0B38  1903               	btfsc	3,2
 10961  0B39  2B3B               	goto	u1241
 10962  0B3A  2B3D               	goto	u1240
 10963  0B3B                     u1241:	
 10964  0B3B  3001               	movlw	1
 10965  0B3C  2B3E               	goto	u1250
 10966  0B3D                     u1240:	
 10967  0B3D  3000               	movlw	0
 10968  0B3E                     u1250:	
 10969  0B3E  2B40               	goto	l858
 10970  0B3F                     l2366:	
 10971                           
 10972                           ;mcc_generated_files/mtouch/mtouch_proximity.c: 323:         return 0;
 10973  0B3F  3000               	movlw	0
 10974  0B40                     l858:	
 10975  0B40  0008               	return
 10976  0B41                     __end_of_MTOUCH_Proximity_isActivated:	
 10977                           
 10978                           	psect	text70
 10979  0BC1                     __ptext70:	
 10980 ;; *************** function _MTOUCH_Proximity_Threshold_Set *****************
 10981 ;; Defined at:
 10982 ;;		line 296 in file "mcc_generated_files/mtouch/mtouch_proximity.c"
 10983 ;; Parameters:    Size  Location     Type
 10984 ;;  name            1    wreg     enum E3067
 10985 ;;  threshold       1    1[COMMON] unsigned char 
 10986 ;; Auto vars:     Size  Location     Type
 10987 ;;  name            1    3[COMMON] enum E3067
 10988 ;; Return value:  Size  Location     Type
 10989 ;;                  1    wreg      void 
 10990 ;; Registers used:
 10991 ;;		wreg, fsr1l, fsr1h, status,2, status,0
 10992 ;; Tracked objects:
 10993 ;;		On entry : 0/0
 10994 ;;		On exit  : 0/0
 10995 ;;		Unchanged: 0/0
 10996 ;; Data sizes:     COMMON   BANK0   BANK1   BANK2   BANK3   BANK4   BANK5   BANK6
 10997 ;;      Params:         1       0       0       0       0       0       0       0
 10998 ;;      Locals:         1       0       0       0       0       0       0       0
 10999 ;;      Temps:          1       0       0       0       0       0       0       0
 11000 ;;      Totals:         3       0       0       0       0       0       0       0
 11001 ;;Total ram usage:        3 bytes
 11002 ;; Hardware stack levels used:    1
 11003 ;; Hardware stack levels required when called:    4
 11004 ;; This function calls:
 11005 ;;		Nothing
 11006 ;; This function is called by:
 11007 ;;		_main
 11008 ;; This function uses a non-reentrant model
 11009 ;;
 11010                           
 11011                           
 11012                           ;psect for function _MTOUCH_Proximity_Threshold_Set
 11013  0BC1                     _MTOUCH_Proximity_Threshold_Set:	
 11014                           
 11015                           ;incstack = 0
 11016                           ; Regs used in _MTOUCH_Proximity_Threshold_Set: [wreg+fsr1l+fsr1h+status,2+status,0]
 11017                           ;MTOUCH_Proximity_Threshold_Set@name stored from wreg
 11018  0BC1  00F3               	movwf	MTOUCH_Proximity_Threshold_Set@name
 11019  0BC2                     l3646:	
 11020                           
 11021                           ;mcc_generated_files/mtouch/mtouch_proximity.c: 296: void MTOUCH_Proximity_Threshold_Set
      +                          (enum mtouch_proximity_names name,mtouch_prox_threshold_t threshold);mcc_generated_files
      +                          /mtouch/mtouch_proximity.c: 297: {;mcc_generated_files/mtouch/mtouch_proximity.c: 298:  
      +                             if(name < 1u)
 11022  0BC2  0873               	movf	MTOUCH_Proximity_Threshold_Set@name,w
 11023  0BC3  1D03               	btfss	3,2
 11024  0BC4  2BC6               	goto	u3021
 11025  0BC5  2BC7               	goto	u3020
 11026  0BC6                     u3021:	
 11027  0BC6  2BDD               	goto	l844
 11028  0BC7                     u3020:	
 11029  0BC7                     l3648:	
 11030                           
 11031                           ;mcc_generated_files/mtouch/mtouch_proximity.c: 299:         if(threshold >= ((mtouch_pr
      +                          ox_threshold_t)(1)) && threshold <= ((mtouch_prox_threshold_t)(127)))
 11032  0BC7  0871               	movf	MTOUCH_Proximity_Threshold_Set@threshold,w
 11033  0BC8  1903               	btfsc	3,2
 11034  0BC9  2BCB               	goto	u3031
 11035  0BCA  2BCC               	goto	u3030
 11036  0BCB                     u3031:	
 11037  0BCB  2BDD               	goto	l844
 11038  0BCC                     u3030:	
 11039  0BCC                     l3650:	
 11040  0BCC  3080               	movlw	128
 11041  0BCD  0271               	subwf	MTOUCH_Proximity_Threshold_Set@threshold,w
 11042  0BCE  1803               	skipnc
 11043  0BCF  2BD1               	goto	u3041
 11044  0BD0  2BD2               	goto	u3040
 11045  0BD1                     u3041:	
 11046  0BD1  2BDD               	goto	l844
 11047  0BD2                     u3040:	
 11048  0BD2                     l3652:	
 11049                           
 11050                           ;mcc_generated_files/mtouch/mtouch_proximity.c: 300:             mtouch_proximity[name].
      +                          threshold = threshold;
 11051  0BD2  0871               	movf	MTOUCH_Proximity_Threshold_Set@threshold,w
 11052  0BD3  00F2               	movwf	??_MTOUCH_Proximity_Threshold_Set
 11053  0BD4  0E73               	swapf	MTOUCH_Proximity_Threshold_Set@name,w
 11054  0BD5  39F0               	andlw	240
 11055  0BD6  0773               	addwf	MTOUCH_Proximity_Threshold_Set@name,w
 11056  0BD7  0773               	addwf	MTOUCH_Proximity_Threshold_Set@name,w
 11057  0BD8  3E68               	addlw	(low ((_mtouch_proximity| 0+16)))& (0+255)
 11058  0BD9  0086               	movwf	6
 11059  0BDA  0187               	clrf	7
 11060  0BDB  0872               	movf	??_MTOUCH_Proximity_Threshold_Set,w
 11061  0BDC  0081               	movwf	1
 11062  0BDD                     l844:	
 11063  0BDD  0008               	return
 11064  0BDE                     __end_of_MTOUCH_Proximity_Threshold_Set:	
 11065                           
 11066                           	psect	text71
 11067  09F6                     __ptext71:	
 11068 ;; *************** function _EUSART_is_tx_ready *****************
 11069 ;; Defined at:
 11070 ;;		line 132 in file "mcc_generated_files/eusart.c"
 11071 ;; Parameters:    Size  Location     Type
 11072 ;;		None
 11073 ;; Auto vars:     Size  Location     Type
 11074 ;;		None
 11075 ;; Return value:  Size  Location     Type
 11076 ;;                  1    wreg      _Bool 
 11077 ;; Registers used:
 11078 ;;		wreg, status,2, status,0
 11079 ;; Tracked objects:
 11080 ;;		On entry : 0/0
 11081 ;;		On exit  : 0/0
 11082 ;;		Unchanged: 0/0
 11083 ;; Data sizes:     COMMON   BANK0   BANK1   BANK2   BANK3   BANK4   BANK5   BANK6
 11084 ;;      Params:         0       0       0       0       0       0       0       0
 11085 ;;      Locals:         0       0       0       0       0       0       0       0
 11086 ;;      Temps:          0       0       0       0       0       0       0       0
 11087 ;;      Totals:         0       0       0       0       0       0       0       0
 11088 ;;Total ram usage:        0 bytes
 11089 ;; Hardware stack levels used:    1
 11090 ;; Hardware stack levels required when called:    4
 11091 ;; This function calls:
 11092 ;;		Nothing
 11093 ;; This function is called by:
 11094 ;;		_main
 11095 ;; This function uses a non-reentrant model
 11096 ;;
 11097                           
 11098                           
 11099                           ;psect for function _EUSART_is_tx_ready
 11100  09F6                     _EUSART_is_tx_ready:	
 11101  09F6                     l3566:	
 11102                           ;incstack = 0
 11103                           ; Regs used in _EUSART_is_tx_ready: [wreg+status,2+status,0]
 11104                           
 11105                           
 11106                           ;mcc_generated_files/eusart.c: 134:     return (eusartTxBufferRemaining ? 1 : 0);
 11107  09F6  0020               	movlb	0	; select bank0
 11108  09F7  086C               	movf	_eusartTxBufferRemaining,w	;volatile
 11109  09F8  1D03               	btfss	3,2
 11110  09F9  29FB               	goto	u2901
 11111  09FA  29FD               	goto	u2900
 11112  09FB                     u2901:	
 11113  09FB  3001               	movlw	1
 11114  09FC  29FE               	goto	u2910
 11115  09FD                     u2900:	
 11116  09FD  3000               	movlw	0
 11117  09FE                     u2910:	
 11118  09FE                     l513:	
 11119  09FE  0008               	return
 11120  09FF                     __end_of_EUSART_is_tx_ready:	
 11121                           
 11122                           	psect	text72
 11123  097F                     __ptext72:	
 11124 ;; *************** function _EUSART_is_tx_done *****************
 11125 ;; Defined at:
 11126 ;;		line 142 in file "mcc_generated_files/eusart.c"
 11127 ;; Parameters:    Size  Location     Type
 11128 ;;		None
 11129 ;; Auto vars:     Size  Location     Type
 11130 ;;		None
 11131 ;; Return value:  Size  Location     Type
 11132 ;;                  1    wreg      _Bool 
 11133 ;; Registers used:
 11134 ;;		wreg, status,2, status,0
 11135 ;; Tracked objects:
 11136 ;;		On entry : 0/0
 11137 ;;		On exit  : 0/0
 11138 ;;		Unchanged: 0/0
 11139 ;; Data sizes:     COMMON   BANK0   BANK1   BANK2   BANK3   BANK4   BANK5   BANK6
 11140 ;;      Params:         0       0       0       0       0       0       0       0
 11141 ;;      Locals:         0       0       0       0       0       0       0       0
 11142 ;;      Temps:          0       0       0       0       0       0       0       0
 11143 ;;      Totals:         0       0       0       0       0       0       0       0
 11144 ;;Total ram usage:        0 bytes
 11145 ;; Hardware stack levels used:    1
 11146 ;; Hardware stack levels required when called:    4
 11147 ;; This function calls:
 11148 ;;		Nothing
 11149 ;; This function is called by:
 11150 ;;		_main
 11151 ;; This function uses a non-reentrant model
 11152 ;;
 11153                           
 11154                           
 11155                           ;psect for function _EUSART_is_tx_done
 11156  097F                     _EUSART_is_tx_done:	
 11157  097F                     l2374:	
 11158                           ;incstack = 0
 11159                           ; Regs used in _EUSART_is_tx_done: [wreg+status,2+status,0]
 11160                           
 11161                           
 11162                           ;mcc_generated_files/eusart.c: 144:     return TXSTAbits.TRMT;
 11163  097F  0023               	movlb	3	; select bank3
 11164  0980  0C1E               	rrf	30,w	;volatile
 11165  0981  3901               	andlw	1
 11166  0982                     l519:	
 11167  0982  0008               	return
 11168  0983                     __end_of_EUSART_is_tx_done:	
 11169                           
 11170                           	psect	text73
 11171  0D10                     __ptext73:	
 11172 ;; *************** function _EUSART_Write *****************
 11173 ;; Defined at:
 11174 ;;		line 173 in file "mcc_generated_files/eusart.c"
 11175 ;; Parameters:    Size  Location     Type
 11176 ;;  txData          1    wreg     unsigned char 
 11177 ;; Auto vars:     Size  Location     Type
 11178 ;;  txData          1    2[COMMON] unsigned char 
 11179 ;; Return value:  Size  Location     Type
 11180 ;;                  1    wreg      void 
 11181 ;; Registers used:
 11182 ;;		wreg, fsr1l, fsr1h, status,2, status,0
 11183 ;; Tracked objects:
 11184 ;;		On entry : 0/0
 11185 ;;		On exit  : 0/0
 11186 ;;		Unchanged: 0/0
 11187 ;; Data sizes:     COMMON   BANK0   BANK1   BANK2   BANK3   BANK4   BANK5   BANK6
 11188 ;;      Params:         0       0       0       0       0       0       0       0
 11189 ;;      Locals:         1       0       0       0       0       0       0       0
 11190 ;;      Temps:          1       0       0       0       0       0       0       0
 11191 ;;      Totals:         2       0       0       0       0       0       0       0
 11192 ;;Total ram usage:        2 bytes
 11193 ;; Hardware stack levels used:    1
 11194 ;; Hardware stack levels required when called:    4
 11195 ;; This function calls:
 11196 ;;		Nothing
 11197 ;; This function is called by:
 11198 ;;		_main
 11199 ;;		_putch
 11200 ;; This function uses a non-reentrant model
 11201 ;;
 11202                           
 11203                           
 11204                           ;psect for function _EUSART_Write
 11205  0D10                     _EUSART_Write:	
 11206                           
 11207                           ;incstack = 0
 11208                           ; Regs used in _EUSART_Write: [wreg+fsr1l+fsr1h+status,2+status,0]
 11209                           ;EUSART_Write@txData stored from wreg
 11210  0D10  00F2               	movwf	EUSART_Write@txData
 11211  0D11                     l3592:	
 11212  0D11                     l3594:	
 11213                           ;mcc_generated_files/eusart.c: 173: void EUSART_Write(uint8_t txData);mcc_generated_file
      +                          s/eusart.c: 174: {;mcc_generated_files/eusart.c: 175:     while(0 == eusartTxBufferRemai
      +                          ning)
 11214                           
 11215                           
 11216                           ;mcc_generated_files/eusart.c: 175:     while(0 == eusartTxBufferRemaining)
 11217  0D11  0020               	movlb	0	; select bank0
 11218  0D12  086C               	movf	_eusartTxBufferRemaining,w	;volatile
 11219  0D13  1903               	btfsc	3,2
 11220  0D14  2D16               	goto	u2941
 11221  0D15  2D17               	goto	u2940
 11222  0D16                     u2941:	
 11223  0D16  2D11               	goto	l3594
 11224  0D17                     u2940:	
 11225  0D17                     l534:	
 11226                           
 11227                           ;mcc_generated_files/eusart.c: 179:     if(0 == PIE1bits.TXIE)
 11228  0D17  0021               	movlb	1	; select bank1
 11229  0D18  1A11               	btfsc	17,4	;volatile
 11230  0D19  2D1B               	goto	u2951
 11231  0D1A  2D1C               	goto	u2950
 11232  0D1B                     u2951:	
 11233  0D1B  2D20               	goto	l535
 11234  0D1C                     u2950:	
 11235  0D1C                     l3596:	
 11236                           
 11237                           ;mcc_generated_files/eusart.c: 180:     {;mcc_generated_files/eusart.c: 181:         TXR
      +                          EG = txData;
 11238  0D1C  0872               	movf	EUSART_Write@txData,w
 11239  0D1D  0023               	movlb	3	; select bank3
 11240  0D1E  009A               	movwf	26	;volatile
 11241                           
 11242                           ;mcc_generated_files/eusart.c: 182:     }
 11243  0D1F  2D37               	goto	l3608
 11244  0D20                     l535:	
 11245                           ;mcc_generated_files/eusart.c: 183:     else
 11246                           
 11247                           
 11248                           ;mcc_generated_files/eusart.c: 184:     {;mcc_generated_files/eusart.c: 185:         PIE
      +                          1bits.TXIE = 0;
 11249  0D20  1211               	bcf	17,4	;volatile
 11250  0D21                     l3598:	
 11251                           
 11252                           ;mcc_generated_files/eusart.c: 186:         eusartTxBuffer[eusartTxHead++] = txData;
 11253  0D21  0872               	movf	EUSART_Write@txData,w
 11254  0D22  00F1               	movwf	??_EUSART_Write
 11255  0D23  0020               	movlb	0	; select bank0
 11256  0D24  0854               	movf	_eusartTxHead,w
 11257  0D25  3EB0               	addlw	(low (_eusartTxBuffer| 0))& (0+255)
 11258  0D26  0086               	movwf	6
 11259  0D27  0187               	clrf	7
 11260  0D28  0871               	movf	??_EUSART_Write,w
 11261  0D29  0081               	movwf	1
 11262  0D2A                     l3600:	
 11263  0D2A  3001               	movlw	1
 11264  0D2B  00F1               	movwf	??_EUSART_Write
 11265  0D2C  0871               	movf	??_EUSART_Write,w
 11266  0D2D  07D4               	addwf	_eusartTxHead,f	;volatile
 11267  0D2E                     l3602:	
 11268                           
 11269                           ;mcc_generated_files/eusart.c: 187:         if(sizeof(eusartTxBuffer) <= eusartTxHead)
 11270  0D2E  3008               	movlw	8
 11271  0D2F  0254               	subwf	_eusartTxHead,w	;volatile
 11272  0D30  1C03               	skipc
 11273  0D31  2D33               	goto	u2961
 11274  0D32  2D34               	goto	u2960
 11275  0D33                     u2961:	
 11276  0D33  2D35               	goto	l3606
 11277  0D34                     u2960:	
 11278  0D34                     l3604:	
 11279                           
 11280                           ;mcc_generated_files/eusart.c: 188:         {;mcc_generated_files/eusart.c: 189:        
      +                               eusartTxHead = 0;
 11281  0D34  01D4               	clrf	_eusartTxHead	;volatile
 11282  0D35                     l3606:	
 11283                           
 11284                           ;mcc_generated_files/eusart.c: 191:         eusartTxBufferRemaining--;
 11285  0D35  3001               	movlw	1
 11286  0D36  02EC               	subwf	_eusartTxBufferRemaining,f	;volatile
 11287  0D37                     l3608:	
 11288                           
 11289                           ;mcc_generated_files/eusart.c: 193:     PIE1bits.TXIE = 1;
 11290  0D37  0021               	movlb	1	; select bank1
 11291  0D38  1611               	bsf	17,4	;volatile
 11292  0D39                     l538:	
 11293  0D39  0008               	return
 11294  0D3A                     __end_of_EUSART_Write:	
 11295                           
 11296                           	psect	intentry
 11297  0004                     __pintentry:	
 11298 ;; *************** function _INTERRUPT_InterruptManager *****************
 11299 ;; Defined at:
 11300 ;;		line 52 in file "mcc_generated_files/interrupt_manager.c"
 11301 ;; Parameters:    Size  Location     Type
 11302 ;;		None
 11303 ;; Auto vars:     Size  Location     Type
 11304 ;;		None
 11305 ;; Return value:  Size  Location     Type
 11306 ;;                  1    wreg      void 
 11307 ;; Registers used:
 11308 ;;		wreg, fsr1l, fsr1h, status,2, status,0, pclath, cstack
 11309 ;; Tracked objects:
 11310 ;;		On entry : 0/0
 11311 ;;		On exit  : 0/0
 11312 ;;		Unchanged: 0/0
 11313 ;; Data sizes:     COMMON   BANK0   BANK1   BANK2   BANK3   BANK4   BANK5   BANK6
 11314 ;;      Params:         0       0       0       0       0       0       0       0
 11315 ;;      Locals:         0       0       0       0       0       0       0       0
 11316 ;;      Temps:          0       0       0       0       0       0       0       0
 11317 ;;      Totals:         0       0       0       0       0       0       0       0
 11318 ;;Total ram usage:        0 bytes
 11319 ;; Hardware stack levels used:    1
 11320 ;; Hardware stack levels required when called:    3
 11321 ;; This function calls:
 11322 ;;		Absolute function
 11323 ;;		_EUSART_Receive_ISR
 11324 ;;		_EUSART_Transmit_ISR
 11325 ;; This function is called by:
 11326 ;;		Interrupt level 1
 11327 ;; This function uses a non-reentrant model
 11328 ;;
 11329                           
 11330  0004                     _INTERRUPT_InterruptManager:	
 11331                           
 11332                           ;incstack = 0
 11333  0004  147E               	bsf	int$flags,0	;set compiler interrupt flag (level 1)
 11334                           
 11335                           ; Regs used in _INTERRUPT_InterruptManager: [wreg+fsr1l+fsr1h+status,2+status,0+pclath+c
      +                          stack]
 11336  0005  3180               	pagesel	$
 11337  0006                     i1l3740:	
 11338                           
 11339                           ;mcc_generated_files/interrupt_manager.c: 55:     if(INTCONbits.PEIE == 1)
 11340  0006  1F0B               	btfss	11,6	;volatile
 11341  0007  2809               	goto	u316_21
 11342  0008  280A               	goto	u316_20
 11343  0009                     u316_21:	
 11344  0009  282B               	goto	i1l606
 11345  000A                     u316_20:	
 11346  000A                     i1l3742:	
 11347                           
 11348                           ;mcc_generated_files/interrupt_manager.c: 56:     {;mcc_generated_files/interrupt_manage
      +                          r.c: 57:         if(PIE1bits.TXIE == 1 && PIR1bits.TXIF == 1)
 11349  000A  0021               	movlb	1	; select bank1
 11350  000B  1E11               	btfss	17,4	;volatile
 11351  000C  280E               	goto	u317_21
 11352  000D  280F               	goto	u317_20
 11353  000E                     u317_21:	
 11354  000E  281A               	goto	i1l601
 11355  000F                     u317_20:	
 11356  000F                     i1l3744:	
 11357  000F  0020               	movlb	0	; select bank0
 11358  0010  1E11               	btfss	17,4	;volatile
 11359  0011  2813               	goto	u318_21
 11360  0012  2814               	goto	u318_20
 11361  0013                     u318_21:	
 11362  0013  281A               	goto	i1l601
 11363  0014                     u318_20:	
 11364  0014                     i1l3746:	
 11365                           
 11366                           ;mcc_generated_files/interrupt_manager.c: 58:         {;mcc_generated_files/interrupt_ma
      +                          nager.c: 59:             EUSART_TxDefaultInterruptHandler();
 11367  0014  086B               	movf	_EUSART_TxDefaultInterruptHandler+1,w
 11368  0015  008A               	movwf	10
 11369  0016  086A               	movf	_EUSART_TxDefaultInterruptHandler,w
 11370  0017  000A               	callw
 11371  0018  3180               	pagesel	$
 11372                           
 11373                           ;mcc_generated_files/interrupt_manager.c: 60:         }
 11374  0019  282B               	goto	i1l606
 11375  001A                     i1l601:	
 11376                           ;mcc_generated_files/interrupt_manager.c: 61:         else if(PIE1bits.RCIE == 1 && PIR1
      +                          bits.RCIF == 1)
 11377                           
 11378  001A  0021               	movlb	1	; select bank1
 11379  001B  1E91               	btfss	17,5	;volatile
 11380  001C  281E               	goto	u319_21
 11381  001D  281F               	goto	u319_20
 11382  001E                     u319_21:	
 11383  001E  282B               	goto	i1l602
 11384  001F                     u319_20:	
 11385  001F                     i1l3748:	
 11386  001F  0020               	movlb	0	; select bank0
 11387  0020  1E91               	btfss	17,5	;volatile
 11388  0021  2823               	goto	u320_21
 11389  0022  2824               	goto	u320_20
 11390  0023                     u320_21:	
 11391  0023  282B               	goto	i1l602
 11392  0024                     u320_20:	
 11393  0024                     i1l3750:	
 11394                           
 11395                           ;mcc_generated_files/interrupt_manager.c: 62:         {;mcc_generated_files/interrupt_ma
      +                          nager.c: 63:             EUSART_RxDefaultInterruptHandler();
 11396  0024  0021               	movlb	1	; select bank1
 11397  0025  084E               	movf	(_EUSART_RxDefaultInterruptHandler+1)^(0+128),w
 11398  0026  008A               	movwf	10
 11399  0027  084D               	movf	_EUSART_RxDefaultInterruptHandler^(0+128),w
 11400  0028  000A               	callw
 11401  0029  3180               	pagesel	$
 11402                           
 11403                           ;mcc_generated_files/interrupt_manager.c: 64:         }
 11404  002A  282B               	goto	i1l606
 11405  002B                     i1l602:	
 11406  002B                     i1l606:	
 11407                           ;mcc_generated_files/interrupt_manager.c: 69:     }
 11408                           
 11409  002B  107E               	bcf	int$flags,0	;clear compiler interrupt flag (level 1)
 11410  002C  0009               	retfie
 11411  002D                     __end_of_INTERRUPT_InterruptManager:	
 11412                           
 11413                           	psect	text75
 11414  0C78                     __ptext75:	
 11415 ;; *************** function _EUSART_Transmit_ISR *****************
 11416 ;; Defined at:
 11417 ;;		line 206 in file "mcc_generated_files/eusart.c"
 11418 ;; Parameters:    Size  Location     Type
 11419 ;;		None
 11420 ;; Auto vars:     Size  Location     Type
 11421 ;;		None
 11422 ;; Return value:  Size  Location     Type
 11423 ;;                  1    wreg      void 
 11424 ;; Registers used:
 11425 ;;		wreg, fsr1l, fsr1h, status,2, status,0
 11426 ;; Tracked objects:
 11427 ;;		On entry : 0/0
 11428 ;;		On exit  : 0/0
 11429 ;;		Unchanged: 0/0
 11430 ;; Data sizes:     COMMON   BANK0   BANK1   BANK2   BANK3   BANK4   BANK5   BANK6
 11431 ;;      Params:         0       0       0       0       0       0       0       0
 11432 ;;      Locals:         0       0       0       0       0       0       0       0
 11433 ;;      Temps:          1       0       0       0       0       0       0       0
 11434 ;;      Totals:         1       0       0       0       0       0       0       0
 11435 ;;Total ram usage:        1 bytes
 11436 ;; Hardware stack levels used:    1
 11437 ;; This function calls:
 11438 ;;		Nothing
 11439 ;; This function is called by:
 11440 ;;		_EUSART_Initialize
 11441 ;;		_INTERRUPT_InterruptManager
 11442 ;; This function uses a non-reentrant model
 11443 ;;
 11444                           
 11445                           
 11446                           ;psect for function _EUSART_Transmit_ISR
 11447  0C78                     _EUSART_Transmit_ISR:	
 11448  0C78                     i1l3610:	
 11449                           ;incstack = 0
 11450                           ; Regs used in _EUSART_Transmit_ISR: [wreg+fsr1l+fsr1h+status,2+status,0]
 11451                           
 11452                           
 11453                           ;mcc_generated_files/eusart.c: 210:     if(sizeof(eusartTxBuffer) > eusartTxBufferRemain
      +                          ing)
 11454  0C78  3008               	movlw	8
 11455  0C79  0020               	movlb	0	; select bank0
 11456  0C7A  026C               	subwf	_eusartTxBufferRemaining,w	;volatile
 11457  0C7B  1803               	skipnc
 11458  0C7C  2C7E               	goto	u297_21
 11459  0C7D  2C7F               	goto	u297_20
 11460  0C7E                     u297_21:	
 11461  0C7E  2C97               	goto	i1l547
 11462  0C7F                     u297_20:	
 11463  0C7F                     i1l3612:	
 11464                           
 11465                           ;mcc_generated_files/eusart.c: 211:     {;mcc_generated_files/eusart.c: 212:         TXR
      +                          EG = eusartTxBuffer[eusartTxTail++];
 11466  0C7F  0853               	movf	_eusartTxTail,w
 11467  0C80  3EB0               	addlw	(low (_eusartTxBuffer| 0))& (0+255)
 11468  0C81  0086               	movwf	6
 11469  0C82  0187               	clrf	7
 11470  0C83  0801               	movf	1,w
 11471  0C84  0023               	movlb	3	; select bank3
 11472  0C85  009A               	movwf	26	;volatile
 11473  0C86                     i1l3614:	
 11474  0C86  3001               	movlw	1
 11475  0C87  00F0               	movwf	??_EUSART_Transmit_ISR
 11476  0C88  0870               	movf	??_EUSART_Transmit_ISR,w
 11477  0C89  0020               	movlb	0	; select bank0
 11478  0C8A  07D3               	addwf	_eusartTxTail,f	;volatile
 11479  0C8B                     i1l3616:	
 11480                           
 11481                           ;mcc_generated_files/eusart.c: 213:         if(sizeof(eusartTxBuffer) <= eusartTxTail)
 11482  0C8B  3008               	movlw	8
 11483  0C8C  0253               	subwf	_eusartTxTail,w	;volatile
 11484  0C8D  1C03               	skipc
 11485  0C8E  2C90               	goto	u298_21
 11486  0C8F  2C91               	goto	u298_20
 11487  0C90                     u298_21:	
 11488  0C90  2C92               	goto	i1l3620
 11489  0C91                     u298_20:	
 11490  0C91                     i1l3618:	
 11491                           
 11492                           ;mcc_generated_files/eusart.c: 214:         {;mcc_generated_files/eusart.c: 215:        
      +                               eusartTxTail = 0;
 11493  0C91  01D3               	clrf	_eusartTxTail	;volatile
 11494  0C92                     i1l3620:	
 11495                           
 11496                           ;mcc_generated_files/eusart.c: 217:         eusartTxBufferRemaining++;
 11497  0C92  3001               	movlw	1
 11498  0C93  00F0               	movwf	??_EUSART_Transmit_ISR
 11499  0C94  0870               	movf	??_EUSART_Transmit_ISR,w
 11500  0C95  07EC               	addwf	_eusartTxBufferRemaining,f	;volatile
 11501                           
 11502                           ;mcc_generated_files/eusart.c: 218:     }
 11503  0C96  2C99               	goto	i1l550
 11504  0C97                     i1l547:	
 11505                           ;mcc_generated_files/eusart.c: 219:     else
 11506                           
 11507                           
 11508                           ;mcc_generated_files/eusart.c: 220:     {;mcc_generated_files/eusart.c: 221:         PIE
      +                          1bits.TXIE = 0;
 11509  0C97  0021               	movlb	1	; select bank1
 11510  0C98  1211               	bcf	17,4	;volatile
 11511  0C99                     i1l550:	
 11512  0C99  0008               	return
 11513  0C9A                     __end_of_EUSART_Transmit_ISR:	
 11514                           
 11515                           	psect	text76
 11516  0D9B                     __ptext76:	
 11517 ;; *************** function _EUSART_Receive_ISR *****************
 11518 ;; Defined at:
 11519 ;;		line 225 in file "mcc_generated_files/eusart.c"
 11520 ;; Parameters:    Size  Location     Type
 11521 ;;		None
 11522 ;; Auto vars:     Size  Location     Type
 11523 ;;		None
 11524 ;; Return value:  Size  Location     Type
 11525 ;;                  1    wreg      void 
 11526 ;; Registers used:
 11527 ;;		wreg, fsr1l, fsr1h, status,2, status,0, pclath, cstack
 11528 ;; Tracked objects:
 11529 ;;		On entry : 0/0
 11530 ;;		On exit  : 0/0
 11531 ;;		Unchanged: 0/0
 11532 ;; Data sizes:     COMMON   BANK0   BANK1   BANK2   BANK3   BANK4   BANK5   BANK6
 11533 ;;      Params:         0       0       0       0       0       0       0       0
 11534 ;;      Locals:         0       0       0       0       0       0       0       0
 11535 ;;      Temps:          0       0       0       0       0       0       0       0
 11536 ;;      Totals:         0       0       0       0       0       0       0       0
 11537 ;;Total ram usage:        0 bytes
 11538 ;; Hardware stack levels used:    1
 11539 ;; Hardware stack levels required when called:    2
 11540 ;; This function calls:
 11541 ;;		Absolute function
 11542 ;;		_EUSART_DefaultErrorHandler
 11543 ;;		_EUSART_DefaultFramingErrorHandler
 11544 ;;		_EUSART_DefaultOverrunErrorHandler
 11545 ;;		_EUSART_RxDataHandler
 11546 ;; This function is called by:
 11547 ;;		_EUSART_Initialize
 11548 ;;		_INTERRUPT_InterruptManager
 11549 ;; This function uses a non-reentrant model
 11550 ;;
 11551                           
 11552                           
 11553                           ;psect for function _EUSART_Receive_ISR
 11554  0D9B                     _EUSART_Receive_ISR:	
 11555  0D9B                     i1l3622:	
 11556                           ;incstack = 0
 11557                           ; Regs used in _EUSART_Receive_ISR: [wreg+fsr1l+fsr1h+status,2+status,0+pclath+cstack]
 11558                           
 11559                           
 11560                           ;mcc_generated_files/eusart.c: 228:     eusartRxStatusBuffer[eusartRxHead].status = 0;
 11561  0D9B  087C               	movf	_eusartRxHead,w	;volatile
 11562  0D9C  3EA0               	addlw	(low (_eusartRxStatusBuffer| 0))& (0+255)
 11563  0D9D  0086               	movwf	6
 11564  0D9E  0187               	clrf	7
 11565  0D9F  0181               	clrf	1
 11566  0DA0                     i1l3624:	
 11567                           
 11568                           ;mcc_generated_files/eusart.c: 230:     if(RCSTAbits.FERR){
 11569  0DA0  0023               	movlb	3	; select bank3
 11570  0DA1  1D1D               	btfss	29,2	;volatile
 11571  0DA2  2DA4               	goto	u299_21
 11572  0DA3  2DA5               	goto	u299_20
 11573  0DA4                     u299_21:	
 11574  0DA4  2DB0               	goto	i1l3630
 11575  0DA5                     u299_20:	
 11576  0DA5                     i1l3626:	
 11577                           
 11578                           ;mcc_generated_files/eusart.c: 231:         eusartRxStatusBuffer[eusartRxHead].ferr = 1;
 11579  0DA5  087C               	movf	_eusartRxHead,w	;volatile
 11580  0DA6  3EA0               	addlw	(low (_eusartRxStatusBuffer| 0))& (0+255)
 11581  0DA7  0086               	movwf	6
 11582  0DA8  0187               	clrf	7
 11583  0DA9  1481               	bsf	1,1
 11584  0DAA                     i1l3628:	
 11585                           
 11586                           ;mcc_generated_files/eusart.c: 232:         EUSART_FramingErrorHandler();
 11587  0DAA  0021               	movlb	1	; select bank1
 11588  0DAB  084C               	movf	(_EUSART_FramingErrorHandler+1)^(0+128),w
 11589  0DAC  008A               	movwf	10
 11590  0DAD  084B               	movf	_EUSART_FramingErrorHandler^(0+128),w
 11591  0DAE  000A               	callw
 11592  0DAF  318D               	pagesel	$
 11593  0DB0                     i1l3630:	
 11594                           
 11595                           ;mcc_generated_files/eusart.c: 235:     if(RCSTAbits.OERR){
 11596  0DB0  0023               	movlb	3	; select bank3
 11597  0DB1  1C9D               	btfss	29,1	;volatile
 11598  0DB2  2DB4               	goto	u300_21
 11599  0DB3  2DB5               	goto	u300_20
 11600  0DB4                     u300_21:	
 11601  0DB4  2DC0               	goto	i1l3636
 11602  0DB5                     u300_20:	
 11603  0DB5                     i1l3632:	
 11604                           
 11605                           ;mcc_generated_files/eusart.c: 236:         eusartRxStatusBuffer[eusartRxHead].oerr = 1;
 11606  0DB5  087C               	movf	_eusartRxHead,w	;volatile
 11607  0DB6  3EA0               	addlw	(low (_eusartRxStatusBuffer| 0))& (0+255)
 11608  0DB7  0086               	movwf	6
 11609  0DB8  0187               	clrf	7
 11610  0DB9  1501               	bsf	1,2
 11611  0DBA                     i1l3634:	
 11612                           
 11613                           ;mcc_generated_files/eusart.c: 237:         EUSART_OverrunErrorHandler();
 11614  0DBA  0021               	movlb	1	; select bank1
 11615  0DBB  084A               	movf	(_EUSART_OverrunErrorHandler+1)^(0+128),w
 11616  0DBC  008A               	movwf	10
 11617  0DBD  0849               	movf	_EUSART_OverrunErrorHandler^(0+128),w
 11618  0DBE  000A               	callw
 11619  0DBF  318D               	pagesel	$
 11620  0DC0                     i1l3636:	
 11621                           
 11622                           ;mcc_generated_files/eusart.c: 240:     if(eusartRxStatusBuffer[eusartRxHead].status){
 11623  0DC0  087C               	movf	_eusartRxHead,w	;volatile
 11624  0DC1  3EA0               	addlw	(low (_eusartRxStatusBuffer| 0))& (0+255)
 11625  0DC2  0086               	movwf	6
 11626  0DC3  0187               	clrf	7
 11627  0DC4  0801               	movf	1,w
 11628  0DC5  1903               	btfsc	3,2
 11629  0DC6  2DC8               	goto	u301_21
 11630  0DC7  2DC9               	goto	u301_20
 11631  0DC8                     u301_21:	
 11632  0DC8  2DD0               	goto	i1l3640
 11633  0DC9                     u301_20:	
 11634  0DC9                     i1l3638:	
 11635                           
 11636                           ;mcc_generated_files/eusart.c: 241:         EUSART_ErrorHandler();
 11637  0DC9  0021               	movlb	1	; select bank1
 11638  0DCA  0848               	movf	(_EUSART_ErrorHandler+1)^(0+128),w
 11639  0DCB  008A               	movwf	10
 11640  0DCC  0847               	movf	_EUSART_ErrorHandler^(0+128),w
 11641  0DCD  000A               	callw
 11642  0DCE  318D               	pagesel	$
 11643                           
 11644                           ;mcc_generated_files/eusart.c: 242:     } else {
 11645  0DCF  2DD3               	goto	i1l557
 11646  0DD0                     i1l3640:	
 11647                           
 11648                           ;mcc_generated_files/eusart.c: 243:         EUSART_RxDataHandler();
 11649  0DD0  318B  2373  318D   	fcall	_EUSART_RxDataHandler
 11650  0DD3                     i1l557:	
 11651  0DD3  0008               	return
 11652  0DD4                     __end_of_EUSART_Receive_ISR:	
 11653                           
 11654                           	psect	text77
 11655  097B                     __ptext77:	
 11656 ;; *************** function _EUSART_DefaultOverrunErrorHandler *****************
 11657 ;; Defined at:
 11658 ;;		line 261 in file "mcc_generated_files/eusart.c"
 11659 ;; Parameters:    Size  Location     Type
 11660 ;;		None
 11661 ;; Auto vars:     Size  Location     Type
 11662 ;;		None
 11663 ;; Return value:  Size  Location     Type
 11664 ;;                  1    wreg      void 
 11665 ;; Registers used:
 11666 ;;		None
 11667 ;; Tracked objects:
 11668 ;;		On entry : 0/0
 11669 ;;		On exit  : 0/0
 11670 ;;		Unchanged: 0/0
 11671 ;; Data sizes:     COMMON   BANK0   BANK1   BANK2   BANK3   BANK4   BANK5   BANK6
 11672 ;;      Params:         0       0       0       0       0       0       0       0
 11673 ;;      Locals:         0       0       0       0       0       0       0       0
 11674 ;;      Temps:          0       0       0       0       0       0       0       0
 11675 ;;      Totals:         0       0       0       0       0       0       0       0
 11676 ;;Total ram usage:        0 bytes
 11677 ;; Hardware stack levels used:    1
 11678 ;; This function calls:
 11679 ;;		Nothing
 11680 ;; This function is called by:
 11681 ;;		_EUSART_Initialize
 11682 ;;		_EUSART_Receive_ISR
 11683 ;; This function uses a non-reentrant model
 11684 ;;
 11685                           
 11686                           
 11687                           ;psect for function _EUSART_DefaultOverrunErrorHandler
 11688  097B                     _EUSART_DefaultOverrunErrorHandler:	
 11689  097B                     i1l3534:	
 11690                           ;incstack = 0
 11691                           ; Regs used in _EUSART_DefaultOverrunErrorHandler: []
 11692                           
 11693                           
 11694                           ;mcc_generated_files/eusart.c: 264:     RCSTAbits.CREN = 0;
 11695  097B  0023               	movlb	3	; select bank3
 11696  097C  121D               	bcf	29,4	;volatile
 11697                           
 11698                           ;mcc_generated_files/eusart.c: 265:     RCSTAbits.CREN = 1;
 11699  097D  161D               	bsf	29,4	;volatile
 11700  097E                     i1l567:	
 11701  097E  0008               	return
 11702  097F                     __end_of_EUSART_DefaultOverrunErrorHandler:	
 11703                           
 11704                           	psect	text78
 11705  096D                     __ptext78:	
 11706 ;; *************** function _EUSART_DefaultFramingErrorHandler *****************
 11707 ;; Defined at:
 11708 ;;		line 259 in file "mcc_generated_files/eusart.c"
 11709 ;; Parameters:    Size  Location     Type
 11710 ;;		None
 11711 ;; Auto vars:     Size  Location     Type
 11712 ;;		None
 11713 ;; Return value:  Size  Location     Type
 11714 ;;                  1    wreg      void 
 11715 ;; Registers used:
 11716 ;;		None
 11717 ;; Tracked objects:
 11718 ;;		On entry : 0/0
 11719 ;;		On exit  : 0/0
 11720 ;;		Unchanged: 0/0
 11721 ;; Data sizes:     COMMON   BANK0   BANK1   BANK2   BANK3   BANK4   BANK5   BANK6
 11722 ;;      Params:         0       0       0       0       0       0       0       0
 11723 ;;      Locals:         0       0       0       0       0       0       0       0
 11724 ;;      Temps:          0       0       0       0       0       0       0       0
 11725 ;;      Totals:         0       0       0       0       0       0       0       0
 11726 ;;Total ram usage:        0 bytes
 11727 ;; Hardware stack levels used:    1
 11728 ;; This function calls:
 11729 ;;		Nothing
 11730 ;; This function is called by:
 11731 ;;		_EUSART_Initialize
 11732 ;;		_EUSART_Receive_ISR
 11733 ;; This function uses a non-reentrant model
 11734 ;;
 11735                           
 11736                           
 11737                           ;psect for function _EUSART_DefaultFramingErrorHandler
 11738  096D                     _EUSART_DefaultFramingErrorHandler:	
 11739  096D                     i1l564:	
 11740                           ;incstack = 0
 11741                           ; Regs used in _EUSART_DefaultFramingErrorHandler: []
 11742                           
 11743  096D  0008               	return
 11744  096E                     __end_of_EUSART_DefaultFramingErrorHandler:	
 11745                           
 11746                           	psect	text79
 11747  0977                     __ptext79:	
 11748 ;; *************** function _EUSART_DefaultErrorHandler *****************
 11749 ;; Defined at:
 11750 ;;		line 269 in file "mcc_generated_files/eusart.c"
 11751 ;; Parameters:    Size  Location     Type
 11752 ;;		None
 11753 ;; Auto vars:     Size  Location     Type
 11754 ;;		None
 11755 ;; Return value:  Size  Location     Type
 11756 ;;                  1    wreg      void 
 11757 ;; Registers used:
 11758 ;;		wreg, fsr1l, fsr1h, status,2, status,0, pclath, cstack
 11759 ;; Tracked objects:
 11760 ;;		On entry : 0/0
 11761 ;;		On exit  : 0/0
 11762 ;;		Unchanged: 0/0
 11763 ;; Data sizes:     COMMON   BANK0   BANK1   BANK2   BANK3   BANK4   BANK5   BANK6
 11764 ;;      Params:         0       0       0       0       0       0       0       0
 11765 ;;      Locals:         0       0       0       0       0       0       0       0
 11766 ;;      Temps:          0       0       0       0       0       0       0       0
 11767 ;;      Totals:         0       0       0       0       0       0       0       0
 11768 ;;Total ram usage:        0 bytes
 11769 ;; Hardware stack levels used:    1
 11770 ;; Hardware stack levels required when called:    1
 11771 ;; This function calls:
 11772 ;;		_EUSART_RxDataHandler
 11773 ;; This function is called by:
 11774 ;;		_EUSART_Initialize
 11775 ;;		_EUSART_Receive_ISR
 11776 ;; This function uses a non-reentrant model
 11777 ;;
 11778                           
 11779                           
 11780                           ;psect for function _EUSART_DefaultErrorHandler
 11781  0977                     _EUSART_DefaultErrorHandler:	
 11782  0977                     i1l3536:	
 11783                           ;incstack = 0
 11784                           ; Regs used in _EUSART_DefaultErrorHandler: [wreg+fsr1l+fsr1h+status,2+status,0+pclath+c
      +                          stack]
 11785                           
 11786                           
 11787                           ;mcc_generated_files/eusart.c: 270:     EUSART_RxDataHandler();
 11788  0977  318B  2373  3189   	fcall	_EUSART_RxDataHandler
 11789  097A                     i1l570:	
 11790  097A  0008               	return
 11791  097B                     __end_of_EUSART_DefaultErrorHandler:	
 11792                           
 11793                           	psect	text80
 11794  0B73                     __ptext80:	
 11795 ;; *************** function _EUSART_RxDataHandler *****************
 11796 ;; Defined at:
 11797 ;;		line 249 in file "mcc_generated_files/eusart.c"
 11798 ;; Parameters:    Size  Location     Type
 11799 ;;		None
 11800 ;; Auto vars:     Size  Location     Type
 11801 ;;		None
 11802 ;; Return value:  Size  Location     Type
 11803 ;;                  1    wreg      void 
 11804 ;; Registers used:
 11805 ;;		wreg, fsr1l, fsr1h, status,2, status,0
 11806 ;; Tracked objects:
 11807 ;;		On entry : 0/0
 11808 ;;		On exit  : 0/0
 11809 ;;		Unchanged: 0/0
 11810 ;; Data sizes:     COMMON   BANK0   BANK1   BANK2   BANK3   BANK4   BANK5   BANK6
 11811 ;;      Params:         0       0       0       0       0       0       0       0
 11812 ;;      Locals:         0       0       0       0       0       0       0       0
 11813 ;;      Temps:          1       0       0       0       0       0       0       0
 11814 ;;      Totals:         1       0       0       0       0       0       0       0
 11815 ;;Total ram usage:        1 bytes
 11816 ;; Hardware stack levels used:    1
 11817 ;; This function calls:
 11818 ;;		Nothing
 11819 ;; This function is called by:
 11820 ;;		_EUSART_Receive_ISR
 11821 ;;		_EUSART_DefaultErrorHandler
 11822 ;; This function uses a non-reentrant model
 11823 ;;
 11824                           
 11825                           
 11826                           ;psect for function _EUSART_RxDataHandler
 11827  0B73                     _EUSART_RxDataHandler:	
 11828  0B73                     i1l3444:	
 11829                           ;incstack = 0
 11830                           ; Regs used in _EUSART_RxDataHandler: [wreg+fsr1l+fsr1h+status,2+status,0]
 11831                           
 11832                           
 11833                           ;mcc_generated_files/eusart.c: 251:     eusartRxBuffer[eusartRxHead++] = RCREG;
 11834  0B73  0023               	movlb	3	; select bank3
 11835  0B74  0819               	movf	25,w	;volatile
 11836  0B75  00F0               	movwf	??_EUSART_RxDataHandler
 11837  0B76  087C               	movf	_eusartRxHead,w
 11838  0B77  3EA8               	addlw	(low (_eusartRxBuffer| 0))& (0+255)
 11839  0B78  0086               	movwf	6
 11840  0B79  0187               	clrf	7
 11841  0B7A  0870               	movf	??_EUSART_RxDataHandler,w
 11842  0B7B  0081               	movwf	1
 11843  0B7C                     i1l3446:	
 11844  0B7C  3001               	movlw	1
 11845  0B7D  00F0               	movwf	??_EUSART_RxDataHandler
 11846  0B7E  0870               	movf	??_EUSART_RxDataHandler,w
 11847  0B7F  07FC               	addwf	_eusartRxHead,f	;volatile
 11848  0B80                     i1l3448:	
 11849                           
 11850                           ;mcc_generated_files/eusart.c: 252:     if(sizeof(eusartRxBuffer) <= eusartRxHead)
 11851  0B80  3008               	movlw	8
 11852  0B81  027C               	subwf	_eusartRxHead,w	;volatile
 11853  0B82  1C03               	skipc
 11854  0B83  2B85               	goto	u283_21
 11855  0B84  2B86               	goto	u283_20
 11856  0B85                     u283_21:	
 11857  0B85  2B87               	goto	i1l3452
 11858  0B86                     u283_20:	
 11859  0B86                     i1l3450:	
 11860                           
 11861                           ;mcc_generated_files/eusart.c: 253:     {;mcc_generated_files/eusart.c: 254:         eus
      +                          artRxHead = 0;
 11862  0B86  01FC               	clrf	_eusartRxHead	;volatile
 11863  0B87                     i1l3452:	
 11864                           
 11865                           ;mcc_generated_files/eusart.c: 256:     eusartRxCount++;
 11866  0B87  3001               	movlw	1
 11867  0B88  00F0               	movwf	??_EUSART_RxDataHandler
 11868  0B89  0870               	movf	??_EUSART_RxDataHandler,w
 11869  0B8A  0020               	movlb	0	; select bank0
 11870  0B8B  07D1               	addwf	_eusartRxCount,f	;volatile
 11871  0B8C                     i1l561:	
 11872  0B8C  0008               	return
 11873  0B8D                     __end_of_EUSART_RxDataHandler:	
 11874  007E                     btemp	set	126	;btemp
 11875  007E                     int$flags	set	126
 11876  007E                     wtemp0	set	126


Data Sizes:
    Strings     0
    Constant    25
    Data        18
    BSS         57
    Persistent  43
    Stack       0

Auto Spaces:
    Space          Size  Autos    Used
    COMMON           14     12      13
    BANK0            80     42      80
    BANK1            80      0      47
    BANK2            80      0       0
    BANK3            80      0       0
    BANK4            80      0       0
    BANK5            80      0       0
    BANK6            16      0       0

Pointer List with Targets:

    Proximity_Service$2225$0	PTR struct . size(1) Largest target is 18
		 -> mtouch_proximity(BANK0[18]), 

    Proximity_Service$2225	PTR FTN(PTR struct .,)void  size(2) Largest target is 1
		 -> Proximity_State_Activated(), Proximity_State_NotActivated(), Proximity_State_Initializing(), 

    Proximity_StateMachine$0	PTR struct . size(1) Largest target is 18
		 -> mtouch_proximity(BANK0[18]), 

    memcpy@d1	PTR void  size(1) Largest target is 18
		 -> mtouch_proximity(BANK0[18]), 

    memcpy@d	PTR unsigned char  size(1) Largest target is 18
		 -> mtouch_proximity(BANK0[18]), 

    memcpy@s1	PTR const void  size(2) Largest target is 18
		 -> mtouch_proximity_init(CODE[18]), 

    memcpy@s	PTR const unsigned char  size(2) Largest target is 18
		 -> mtouch_proximity_init(CODE[18]), 

    Proximity_Baseline_Update@prox	PTR struct . size(1) Largest target is 18
		 -> mtouch_proximity(BANK0[18]), 

    Proximity_Baseline_Initialize@prox	PTR struct . size(1) Largest target is 18
		 -> mtouch_proximity(BANK0[18]), 

    Proximity_Reading_Update_Helper@prox	PTR struct . size(1) Largest target is 18
		 -> mtouch_proximity(BANK0[18]), 

    Proximity_Reading_Update@prox	PTR struct . size(1) Largest target is 18
		 -> mtouch_proximity(BANK0[18]), 

    Proximity_Tick_helper@prox	PTR struct . size(1) Largest target is 18
		 -> mtouch_proximity(BANK0[18]), 

    Proximity_State_Activated@prox	PTR struct . size(1) Largest target is 18
		 -> mtouch_proximity(BANK0[18]), 

    Proximity_State_NotActivated@prox	PTR struct . size(1) Largest target is 18
		 -> mtouch_proximity(BANK0[18]), 

    Proximity_State_Initializing@prox	PTR struct . size(1) Largest target is 18
		 -> mtouch_proximity(BANK0[18]), 

    Proximity_Service@prox	PTR struct . size(1) Largest target is 18
		 -> mtouch_proximity(BANK0[18]), 

    sp__memcpy	PTR void  size(1) Largest target is 18
		 -> mtouch_proximity(BANK0[18]), 

    MTOUCH_Proximity_Initialize@prox	PTR struct . size(1) Largest target is 18
		 -> mtouch_proximity(BANK0[18]), 

    Proximity_StateMachine	PTR FTN(PTR struct .,)void [3] size(2) Largest target is 1
		 -> Proximity_State_Activated(), Proximity_State_NotActivated(), Proximity_State_Initializing(), 

    EUSART_SetRxInterruptHandler@interruptHandler	PTR FTN()void  size(2) Largest target is 1
		 -> EUSART_Receive_ISR(), 

    EUSART_RxDefaultInterruptHandler	PTR FTN()void  size(2) Largest target is 1
		 -> Absolute function(), EUSART_Receive_ISR(), 

    EUSART_SetTxInterruptHandler@interruptHandler	PTR FTN()void  size(2) Largest target is 1
		 -> EUSART_Transmit_ISR(), 

    EUSART_TxDefaultInterruptHandler	PTR FTN()void  size(2) Largest target is 1
		 -> Absolute function(), EUSART_Transmit_ISR(), 

    EUSART_SetErrorHandler@interruptHandler	PTR FTN()void  size(2) Largest target is 1
		 -> EUSART_DefaultErrorHandler(), 

    EUSART_SetOverrunErrorHandler@interruptHandler	PTR FTN()void  size(2) Largest target is 1
		 -> EUSART_DefaultOverrunErrorHandler(), 

    EUSART_SetFramingErrorHandler@interruptHandler	PTR FTN()void  size(2) Largest target is 1
		 -> EUSART_DefaultFramingErrorHandler(), 

    EUSART_ErrorHandler	PTR FTN()void  size(2) Largest target is 1
		 -> Absolute function(), EUSART_DefaultErrorHandler(), 

    EUSART_OverrunErrorHandler	PTR FTN()void  size(2) Largest target is 1
		 -> Absolute function(), EUSART_DefaultOverrunErrorHandler(), 

    EUSART_FramingErrorHandler	PTR FTN()void  size(2) Largest target is 1
		 -> Absolute function(), EUSART_DefaultFramingErrorHandler(), 

    Sensor_setSampled@sensor	PTR struct . size(1) Largest target is 9
		 -> NULL(NULL[0]), mtouch_sensor(BANK1[9]), 

    Sensor_Sampled_Reset@sensor	PTR struct . size(1) Largest target is 9
		 -> mtouch_sensor(BANK1[9]), 

    MTOUCH_Sensor_Sampled_ResetAll@sensor	PTR struct . size(1) Largest target is 9
		 -> mtouch_sensor(BANK1[9]), 

    Sensor_isCalibratingAcqTime@sensor	PTR struct . size(1) Largest target is 9
		 -> NULL(NULL[0]), mtouch_sensor(BANK1[9]), 

    Sensor_setCalibratAcqTime@sensor	PTR struct . size(1) Largest target is 9
		 -> NULL(NULL[0]), mtouch_sensor(BANK1[9]), 

    Sensor_setCalibrated@sensor	PTR struct . size(1) Largest target is 9
		 -> NULL(NULL[0]), mtouch_sensor(BANK1[9]), 

    Sensor_isCalibrated@sensor	PTR struct . size(1) Largest target is 9
		 -> NULL(NULL[0]), mtouch_sensor(BANK1[9]), 

    Sensor_isActive@sensor	PTR struct . size(1) Largest target is 9
		 -> NULL(NULL[0]), mtouch_sensor(BANK1[9]), 

    Sensor_setInactive@sensor	PTR struct . size(1) Largest target is 9
		 -> NULL(NULL[0]), mtouch_sensor(BANK1[9]), 

    Sensor_setActive@sensor	PTR struct . size(1) Largest target is 9
		 -> NULL(NULL[0]), mtouch_sensor(BANK1[9]), 

    Sensor_isEnabled@sensor	PTR struct . size(1) Largest target is 9
		 -> NULL(NULL[0]), mtouch_sensor(BANK1[9]), 

    Sensor_RawSample_Update@sensor	PTR struct . size(1) Largest target is 9
		 -> NULL(NULL[0]), mtouch_sensor(BANK1[9]), 

    Sensor_Scanfrequency_Evaluation@sensor_adc2	PTR struct . size(1) Largest target is 0
		 -> NULL(NULL[0]), 

    Sensor_Scanfrequency_Evaluation@sensor_adc1	PTR struct . size(1) Largest target is 9
		 -> mtouch_sensor(BANK1[9]), 

    Sensor_autoCalibration@sensor	PTR struct . size(1) Largest target is 9
		 -> NULL(NULL[0]), mtouch_sensor(BANK1[9]), 

    Sensor_Acq_ExecutePacket@sensor_adc2	PTR struct . size(1) Largest target is 0
		 -> NULL(NULL[0]), 

    Sensor_Acq_ExecutePacket@sensor_adc1	PTR struct . size(1) Largest target is 9
		 -> mtouch_sensor(BANK1[9]), 

    Sensor_loadADCSettings@sensor	PTR struct . size(1) Largest target is 9
		 -> NULL(NULL[0]), mtouch_sensor(BANK1[9]), 

    Sensor_postAcquisitionProcess@sensor	PTR struct . size(1) Largest target is 9
		 -> NULL(NULL[0]), mtouch_sensor(BANK1[9]), 

    Sensor_Acquisition@sensor_adc2	PTR struct . size(1) Largest target is 0
		 -> NULL(NULL[0]), 

    Sensor_Acquisition@sensor_adc1	PTR struct . size(1) Largest target is 9
		 -> mtouch_sensor(BANK1[9]), 

    Sensor_getScanGroupIndex@sensor	PTR struct . size(1) Largest target is 9
		 -> NULL(NULL[0]), mtouch_sensor(BANK1[9]), 

    Sensor_Service@sensor_adc2	PTR struct . size(1) Largest target is 0
		 -> NULL(NULL[0]), 

    Sensor_Service@sensor_adc1	PTR struct . size(1) Largest target is 9
		 -> mtouch_sensor(BANK1[9]), 

    S60$sensor_adc2	PTR struct . size(1) Largest target is 0
		 -> NULL(NULL[0]), 

    sensor_scan_group.sensor_adc2	PTR struct . size(1) Largest target is 0
		 -> NULL(NULL[0]), 

    S60$sensor_adc1	PTR struct . size(1) Largest target is 9
		 -> mtouch_sensor(BANK1[9]), 

    sensor_scan_group.sensor_adc1	PTR struct . size(1) Largest target is 9
		 -> mtouch_sensor(BANK1[9]), 

    callback_sampled	PTR FTN(enum E2854,)void  size(2) Largest target is 1
		 -> Sensor_DefaultCallback(), 


Critical Paths under _main in COMMON

    _MTOUCH_Initialize->_MTOUCH_Sensor_InitializeAll
    _MTOUCH_Sensor_InitializeAll->_MTOUCH_Sensor_Initialize
    _MTOUCH_Sensor_Initialize->_MTOUCH_Sensor_Calibrate
    _MTOUCH_Sensor_Initialize->_MTOUCH_Sensor_Enable
    _MTOUCH_Sensor_Enable->___bmul
    _MTOUCH_Sensor_Calibrate->___bmul
    _MTOUCH_Proximity_InitializeAll->_memcpy
    _EUSART_Initialize->_EUSART_SetErrorHandler
    _EUSART_Initialize->_EUSART_SetFramingErrorHandler
    _EUSART_Initialize->_EUSART_SetOverrunErrorHandler
    _EUSART_Initialize->_EUSART_SetRxInterruptHandler
    _EUSART_Initialize->_EUSART_SetTxInterruptHandler
    _MTOUCH_Proximity_Tick->_Proximity_Tick_helper
    _MTOUCH_Sensor_Sampled_ResetAll->_Sensor_Sampled_Reset
    _Sensor_RawSample_Update->_Sensor_getScanGroupIndex
    _Sensor_Acquisition->_Sensor_Acq_ExecutePacket
    _Sensor_postAcquisitionProcess->_Sensor_getScanGroupIndex
    _Sensor_postAcquisitionProcess->_abs
    _Sensor_Scanfrequency_Evaluation->_Sensor_Acq_ExecutePacket
    _Sensor_Acq_ExecutePacket->_Sensor_autoCalibration
    _Sensor_loadADCSettings->_Sensor_isCalibrated
    _Sensor_loadADCSettings->_Sensor_isCalibratingAcqTime
    _Sensor_autoCalibration->_Sensor_getScanGroupIndex
    _Sensor_autoCalibration->_abs
    _MTOUCH_Proximity_ServiceAll->_Proximity_Service
    _Proximity_Service->_Proximity_Reading_Update
    _Proximity_State_NotActivated->_MTOUCH_Proximity_Baseline_Get
    _Proximity_Baseline_Initialize->_MTOUCH_Sensor_RawSample_Get
    _Proximity_Reading_Update->_Proximity_Reading_Update_Helper
    _Proximity_Reading_Update_Helper->_MTOUCH_Sensor_RawSample_Get
    _MTOUCH_Sensor_RawSample_Get->___bmul
    _Proximity_Deviation_Update->_MTOUCH_Proximity_Baseline_Get
    _MTOUCH_Proximity_Baseline_Get->_Proximity_Baseline_Get_helper
    _MTOUCH_Sensor_wasSampled->___bmul
    _MTOUCH_Sensor_isCalibrated->___bmul

Critical Paths under _INTERRUPT_InterruptManager in COMMON

    _INTERRUPT_InterruptManager->_EUSART_Transmit_ISR
    _EUSART_Receive_ISR->_EUSART_RxDataHandler
    _EUSART_DefaultErrorHandler->_EUSART_RxDataHandler

Critical Paths under _main in BANK0

    _main->_MTOUCH_Service_Mainloop
    _MTOUCH_Service_Mainloop->_MTOUCH_Sensor_SampleAll
    _MTOUCH_Sensor_SampleAll->_Sensor_Service
    _Sensor_Service->_Sensor_Acquisition
    _Sensor_Acquisition->_Sensor_Scanfrequency_Evaluation
    _Sensor_Scanfrequency_Evaluation->_Sensor_Acq_ExecutePacket
    _MTOUCH_Proximity_ServiceAll->_Proximity_Service
    _Proximity_Service->_Proximity_Deviation_Update
    _Proximity_State_NotActivated->_MTOUCH_Proximity_Baseline_Get
    _Proximity_Reading_Update->_Proximity_Reading_Update_Helper
    _Proximity_Deviation_Update->_MTOUCH_Proximity_Baseline_Get

Critical Paths under _INTERRUPT_InterruptManager in BANK0

    None.

Critical Paths under _main in BANK1

    None.

Critical Paths under _INTERRUPT_InterruptManager in BANK1

    None.

Critical Paths under _main in BANK2

    None.

Critical Paths under _INTERRUPT_InterruptManager in BANK2

    None.

Critical Paths under _main in BANK3

    None.

Critical Paths under _INTERRUPT_InterruptManager in BANK3

    None.

Critical Paths under _main in BANK4

    None.

Critical Paths under _INTERRUPT_InterruptManager in BANK4

    None.

Critical Paths under _main in BANK5

    None.

Critical Paths under _INTERRUPT_InterruptManager in BANK5

    None.

Critical Paths under _main in BANK6

    None.

Critical Paths under _INTERRUPT_InterruptManager in BANK6

    None.

Call Graph Tables:

 ---------------------------------------------------------------------------------
 (Depth) Function   	        Calls       Base Space   Used Autos Params    Refs
 ---------------------------------------------------------------------------------
 (0) _main                                                 1     1      0   24543
                                             41 BANK0      1     1      0
                       _EUSART_Write
                  _EUSART_is_tx_done
                 _EUSART_is_tx_ready
     _MTOUCH_Proximity_Threshold_Set
       _MTOUCH_Proximity_isActivated
            _MTOUCH_Service_Mainloop
                  _SYSTEM_Initialize
 ---------------------------------------------------------------------------------
 (1) _SYSTEM_Initialize                                    0     0      0    3472
                  _EUSART_Initialize
                  _MTOUCH_Initialize
              _OSCILLATOR_Initialize
             _PIN_MANAGER_Initialize
                    _TMR2_Initialize
                     _WDT_Initialize
 ---------------------------------------------------------------------------------
 (2) _WDT_Initialize                                       0     0      0       0
 ---------------------------------------------------------------------------------
 (2) _TMR2_Initialize                                      0     0      0       0
 ---------------------------------------------------------------------------------
 (2) _PIN_MANAGER_Initialize                               0     0      0       0
 ---------------------------------------------------------------------------------
 (2) _OSCILLATOR_Initialize                                0     0      0       0
 ---------------------------------------------------------------------------------
 (2) _MTOUCH_Initialize                                    0     0      0    2982
     _MTOUCH_Proximity_InitializeAll
        _MTOUCH_Sensor_InitializeAll
     _MTOUCH_Sensor_Sampled_ResetAll
      _MTOUCH_Sensor_Scan_Initialize
 ---------------------------------------------------------------------------------
 (3) _MTOUCH_Sensor_InitializeAll                          2     2      0    2387
                                              9 COMMON     2     2      0
           _MTOUCH_Sensor_Initialize
 ---------------------------------------------------------------------------------
 (4) _MTOUCH_Sensor_Initialize                             2     2      0    2288
                                              7 COMMON     2     2      0
            _MTOUCH_Sensor_Calibrate
               _MTOUCH_Sensor_Enable
               _Sensor_Sampled_Reset
                             ___bmul
 ---------------------------------------------------------------------------------
 (5) _MTOUCH_Sensor_Enable                                 2     2      0     723
                                              5 COMMON     2     2      0
                             ___bmul
 ---------------------------------------------------------------------------------
 (5) _MTOUCH_Sensor_Calibrate                              2     2      0     723
                                              5 COMMON     2     2      0
                             ___bmul
 ---------------------------------------------------------------------------------
 (3) _MTOUCH_Proximity_InitializeAll                       0     0      0     439
        _MTOUCH_Proximity_Initialize
                             _memcpy
 ---------------------------------------------------------------------------------
 (4) _memcpy                                              10     6      4     328
                                              1 COMMON    10     6      4
 ---------------------------------------------------------------------------------
 (2) _EUSART_Initialize                                    1     1      0     490
                                              3 COMMON     1     1      0
             _EUSART_SetErrorHandler
      _EUSART_SetFramingErrorHandler
      _EUSART_SetOverrunErrorHandler
       _EUSART_SetRxInterruptHandler
       _EUSART_SetTxInterruptHandler
 ---------------------------------------------------------------------------------
 (3) _EUSART_SetTxInterruptHandler                         2     0      2      98
                                              1 COMMON     2     0      2
 ---------------------------------------------------------------------------------
 (3) _EUSART_SetRxInterruptHandler                         2     0      2      98
                                              1 COMMON     2     0      2
 ---------------------------------------------------------------------------------
 (3) _EUSART_SetOverrunErrorHandler                        2     0      2      98
                                              1 COMMON     2     0      2
 ---------------------------------------------------------------------------------
 (3) _EUSART_SetFramingErrorHandler                        2     0      2      98
                                              1 COMMON     2     0      2
 ---------------------------------------------------------------------------------
 (3) _EUSART_SetErrorHandler                               2     0      2      98
                                              1 COMMON     2     0      2
 ---------------------------------------------------------------------------------
 (1) _MTOUCH_Service_Mainloop                              1     1      0   20811
                                             40 BANK0      1     1      0
        _MTOUCH_Proximity_ServiceAll
            _MTOUCH_Sensor_SampleAll
     _MTOUCH_Sensor_Sampled_ResetAll
                        _MTOUCH_Tick
                 _MTOUCH_needReburst
 ---------------------------------------------------------------------------------
 (2) _MTOUCH_needReburst                                   1     1      0      23
                                              1 COMMON     1     1      0
 ---------------------------------------------------------------------------------
 (2) _MTOUCH_Tick                                          0     0      0     121
              _MTOUCH_Proximity_Tick
 ---------------------------------------------------------------------------------
 (3) _MTOUCH_Proximity_Tick                                0     0      0     121
              _Proximity_Tick_helper
 ---------------------------------------------------------------------------------
 (4) _Proximity_Tick_helper                                3     3      0     121
                                              1 COMMON     3     3      0
 ---------------------------------------------------------------------------------
 (3) _MTOUCH_Sensor_Sampled_ResetAll                       2     2      0     156
                                              2 COMMON     2     2      0
               _Sensor_Sampled_Reset
 ---------------------------------------------------------------------------------
 (4) _Sensor_Sampled_Reset                                 1     1      0      88
                                              1 COMMON     1     1      0
 ---------------------------------------------------------------------------------
 (2) _MTOUCH_Sensor_SampleAll                              2     2      0   14526
                                             38 BANK0      2     2      0
                     _Sensor_Service
 ---------------------------------------------------------------------------------
 (3) _Sensor_Service                                       7     7      0   14427
                                             31 BANK0      7     7      0
                 _Sensor_Acquisition
             _Sensor_DefaultCallback
            _Sensor_RawSample_Update
                   _Sensor_isEnabled
                  _Sensor_setSampled
 ---------------------------------------------------------------------------------
 (4) _Sensor_setSampled                                    1     1      0      88
                                              1 COMMON     1     1      0
 ---------------------------------------------------------------------------------
 (4) _Sensor_RawSample_Update                              3     3      0     410
                                              5 COMMON     3     3      0
           _Sensor_getScanGroupIndex
 ---------------------------------------------------------------------------------
 (4) _Sensor_DefaultCallback                               1     0      1     106
                                              1 COMMON     1     0      1
 ---------------------------------------------------------------------------------
 (4) _Sensor_Acquisition                                   4     3      1   13171
                                             27 BANK0      4     3      1
           _Sensor_Acq_ExecutePacket
    _Sensor_Scanfrequency_Evaluation
                    _Sensor_isActive
                _Sensor_isCalibrated
      _Sensor_postAcquisitionProcess
 ---------------------------------------------------------------------------------
 (5) _Sensor_postAcquisitionProcess                        5     5      0    1297
                                              5 COMMON     5     5      0
           _Sensor_getScanGroupIndex
                   _Sensor_isEnabled
                   _Sensor_setActive
                 _Sensor_setInactive
                                _abs
 ---------------------------------------------------------------------------------
 (6) _Sensor_setInactive                                   1     1      0      55
                                              1 COMMON     1     1      0
 ---------------------------------------------------------------------------------
 (6) _Sensor_setActive                                     1     1      0      55
                                              1 COMMON     1     1      0
 ---------------------------------------------------------------------------------
 (5) _Sensor_Scanfrequency_Evaluation                     13    12      1    5745
                                             14 BANK0     13    12      1
           _Sensor_Acq_ExecutePacket
 ---------------------------------------------------------------------------------
 (6) _Sensor_Acq_ExecutePacket                            15    14      1    5202
                                             11 COMMON     1     0      1
                                              0 BANK0     14    14      0
      _MTOUCH_Sensor_Scan_Initialize
             _Sensor_autoCalibration
                    _Sensor_isActive
                _Sensor_isCalibrated
                   _Sensor_isEnabled
             _Sensor_loadADCSettings
            _TMR2_LoadPeriodRegister
                    _TMR2_StartTimer
                     _TMR2_StopTimer
                                _abs
 ---------------------------------------------------------------------------------
 (7) _TMR2_StopTimer                                       0     0      0       0
 ---------------------------------------------------------------------------------
 (7) _TMR2_StartTimer                                      0     0      0       0
 ---------------------------------------------------------------------------------
 (7) _TMR2_LoadPeriodRegister                              1     1      0      22
                                              1 COMMON     1     1      0
 ---------------------------------------------------------------------------------
 (7) _Sensor_loadADCSettings                               8     7      1     958
                                              2 COMMON     8     7      1
                _Sensor_isCalibrated
        _Sensor_isCalibratingAcqTime
 ---------------------------------------------------------------------------------
 (5) _Sensor_isCalibrated                                  1     1      0     187
                                              1 COMMON     1     1      0
 ---------------------------------------------------------------------------------
 (4) _Sensor_isEnabled                                     2     2      0     209
                                              1 COMMON     2     2      0
 ---------------------------------------------------------------------------------
 (5) _Sensor_isActive                                      1     1      0     143
                                              1 COMMON     1     1      0
 ---------------------------------------------------------------------------------
 (7) _Sensor_autoCalibration                               6     6      0    1482
                                              5 COMMON     6     6      0
           _Sensor_getScanGroupIndex
        _Sensor_isCalibratingAcqTime
          _Sensor_setCalibratAcqTime
               _Sensor_setCalibrated
                                _abs
 ---------------------------------------------------------------------------------
 (6) _abs                                                  4     2      2     522
                                              1 COMMON     4     2      2
 ---------------------------------------------------------------------------------
 (8) _Sensor_setCalibrated                                 1     1      0     110
                                              1 COMMON     1     1      0
 ---------------------------------------------------------------------------------
 (8) _Sensor_setCalibratAcqTime                            1     1      0     110
                                              1 COMMON     1     1      0
 ---------------------------------------------------------------------------------
 (8) _Sensor_isCalibratingAcqTime                          1     1      0      88
                                              1 COMMON     1     1      0
 ---------------------------------------------------------------------------------
 (5) _Sensor_getScanGroupIndex                             4     4      0     233
                                              1 COMMON     4     4      0
 ---------------------------------------------------------------------------------
 (3) _MTOUCH_Sensor_Scan_Initialize                        0     0      0       0
 ---------------------------------------------------------------------------------
 (2) _MTOUCH_Proximity_ServiceAll                          0     0      0    5985
                  _Proximity_Service
 ---------------------------------------------------------------------------------
 (3) _Proximity_Service                                    3     3      0    5985
                                             11 COMMON     1     1      0
                                             20 BANK0      2     2      0
        _MTOUCH_Proximity_Initialize
         _MTOUCH_Sensor_isCalibrated
           _MTOUCH_Sensor_wasSampled
         _Proximity_Deviation_Update
           _Proximity_Reading_Update
          _Proximity_State_Activated *
       _Proximity_State_Initializing *
       _Proximity_State_NotActivated *
 ---------------------------------------------------------------------------------
 (4) _Proximity_State_NotActivated                        12    11      1     856
                                              5 BANK0     12    11      1
      _MTOUCH_Proximity_Baseline_Get
        _MTOUCH_Proximity_Initialize
       _MTOUCH_Proximity_Reading_Get
          _Proximity_Baseline_Update
 ---------------------------------------------------------------------------------
 (4) _Proximity_State_Initializing                         3     2      1    1339
                                              5 BANK0      3     2      1
      _Proximity_Baseline_Initialize
          _Proximity_Baseline_Update
 ---------------------------------------------------------------------------------
 (5) _Proximity_Baseline_Update                            5     5      0     260
                                              1 COMMON     5     5      0
 ---------------------------------------------------------------------------------
 (5) _Proximity_Baseline_Initialize                        5     5      0     862
                                              9 COMMON     1     1      0
                                              0 BANK0      4     4      0
        _MTOUCH_Sensor_RawSample_Get
 ---------------------------------------------------------------------------------
 (4) _Proximity_State_Activated                            7     6      1     340
                                              5 BANK0      7     6      1
        _MTOUCH_Proximity_Initialize
 ---------------------------------------------------------------------------------
 (4) _MTOUCH_Proximity_Initialize                          3     3      0     111
                                              1 COMMON     3     3      0
 ---------------------------------------------------------------------------------
 (4) _Proximity_Reading_Update                             1     1      0    1110
                                             10 COMMON     1     1      0
    _Proximity_Reading_Update_Helper
 ---------------------------------------------------------------------------------
 (5) _Proximity_Reading_Update_Helper                      7     7      0    1012
                                              9 COMMON     1     1      0
                                              0 BANK0      6     6      0
        _MTOUCH_Sensor_RawSample_Get
 ---------------------------------------------------------------------------------
 (6) _MTOUCH_Sensor_RawSample_Get                          4     2      2     723
                                              5 COMMON     4     2      2
                             ___bmul
 ---------------------------------------------------------------------------------
 (4) _Proximity_Deviation_Update                          15    15      0     532
                                              5 BANK0     15    15      0
      _MTOUCH_Proximity_Baseline_Get
       _MTOUCH_Proximity_Reading_Get
 ---------------------------------------------------------------------------------
 (5) _MTOUCH_Proximity_Reading_Get                         6     1      5      44
                                              1 COMMON     6     1      5
 ---------------------------------------------------------------------------------
 (5) _MTOUCH_Proximity_Baseline_Get                        6     1      5      66
                                             10 COMMON     1     1      0
                                              0 BANK0      5     0      5
      _Proximity_Baseline_Get_helper
 ---------------------------------------------------------------------------------
 (6) _Proximity_Baseline_Get_helper                        9     5      4      22
                                              1 COMMON     9     5      4
 ---------------------------------------------------------------------------------
 (4) _MTOUCH_Sensor_wasSampled                             2     2      0     692
                                              5 COMMON     2     2      0
                             ___bmul
 ---------------------------------------------------------------------------------
 (4) _MTOUCH_Sensor_isCalibrated                           2     2      0     723
                                              5 COMMON     2     2      0
                             ___bmul
 ---------------------------------------------------------------------------------
 (5) ___bmul                                               4     3      1     661
                                              1 COMMON     4     3      1
 ---------------------------------------------------------------------------------
 (1) _MTOUCH_Proximity_isActivated                         1     1      0      30
                                              1 COMMON     1     1      0
 ---------------------------------------------------------------------------------
 (1) _MTOUCH_Proximity_Threshold_Set                       3     2      1     186
                                              1 COMMON     3     2      1
 ---------------------------------------------------------------------------------
 (1) _EUSART_is_tx_ready                                   0     0      0       0
 ---------------------------------------------------------------------------------
 (1) _EUSART_is_tx_done                                    0     0      0       0
 ---------------------------------------------------------------------------------
 (1) _EUSART_Write                                         2     2      0      44
                                              1 COMMON     2     2      0
 ---------------------------------------------------------------------------------
 Estimated maximum stack depth 8
 ---------------------------------------------------------------------------------
 (Depth) Function   	        Calls       Base Space   Used Autos Params    Refs
 ---------------------------------------------------------------------------------
 (9) _INTERRUPT_InterruptManager                           0     0      0       0
                   Absolute function *
                 _EUSART_Receive_ISR *
                _EUSART_Transmit_ISR *
 ---------------------------------------------------------------------------------
 (10) _EUSART_Transmit_ISR                                 1     1      0       0
                                              0 COMMON     1     1      0
 ---------------------------------------------------------------------------------
 (10) _EUSART_Receive_ISR                                  0     0      0       0
                   Absolute function *
         _EUSART_DefaultErrorHandler *
  _EUSART_DefaultFramingErrorHandler *
  _EUSART_DefaultOverrunErrorHandler *
               _EUSART_RxDataHandler
 ---------------------------------------------------------------------------------
 (11) _EUSART_DefaultOverrunErrorHandler                   0     0      0       0
 ---------------------------------------------------------------------------------
 (11) _EUSART_DefaultFramingErrorHandler                   0     0      0       0
 ---------------------------------------------------------------------------------
 (11) _EUSART_DefaultErrorHandler                          0     0      0       0
               _EUSART_RxDataHandler
 ---------------------------------------------------------------------------------
 (11) _EUSART_RxDataHandler                                1     1      0       0
                                              0 COMMON     1     1      0
 ---------------------------------------------------------------------------------
 (11) Absolute function(Fake)                              0     0      0       0
 ---------------------------------------------------------------------------------
 Estimated maximum stack depth 11
 ---------------------------------------------------------------------------------

 Call Graph Graphs:

 _main (ROOT)
   _EUSART_Write
   _EUSART_is_tx_done
   _EUSART_is_tx_ready
   _MTOUCH_Proximity_Threshold_Set
   _MTOUCH_Proximity_isActivated
   _MTOUCH_Service_Mainloop
     _MTOUCH_Proximity_ServiceAll
       _Proximity_Service
         _MTOUCH_Proximity_Initialize
         _MTOUCH_Sensor_isCalibrated
           ___bmul
         _MTOUCH_Sensor_wasSampled
           ___bmul
         _Proximity_Deviation_Update
           _MTOUCH_Proximity_Baseline_Get
             _Proximity_Baseline_Get_helper
           _MTOUCH_Proximity_Reading_Get
         _Proximity_Reading_Update
           _Proximity_Reading_Update_Helper
             _MTOUCH_Sensor_RawSample_Get
               ___bmul
         _Proximity_State_Activated *
           _MTOUCH_Proximity_Initialize
         _Proximity_State_Initializing *
           _Proximity_Baseline_Initialize
             _MTOUCH_Sensor_RawSample_Get
               ___bmul
           _Proximity_Baseline_Update
         _Proximity_State_NotActivated *
           _MTOUCH_Proximity_Baseline_Get
             _Proximity_Baseline_Get_helper
           _MTOUCH_Proximity_Initialize
           _MTOUCH_Proximity_Reading_Get
           _Proximity_Baseline_Update
     _MTOUCH_Sensor_SampleAll
       _Sensor_Service
         _Sensor_Acquisition
           _Sensor_Acq_ExecutePacket
             _MTOUCH_Sensor_Scan_Initialize
             _Sensor_autoCalibration
               _Sensor_getScanGroupIndex
               _Sensor_isCalibratingAcqTime
               _Sensor_setCalibratAcqTime
               _Sensor_setCalibrated
               _abs
             _Sensor_isActive
             _Sensor_isCalibrated
             _Sensor_isEnabled
             _Sensor_loadADCSettings
               _Sensor_isCalibrated
               _Sensor_isCalibratingAcqTime
             _TMR2_LoadPeriodRegister
             _TMR2_StartTimer
             _TMR2_StopTimer
             _abs
           _Sensor_Scanfrequency_Evaluation
             _Sensor_Acq_ExecutePacket
               _MTOUCH_Sensor_Scan_Initialize
               _Sensor_autoCalibration
                 _Sensor_getScanGroupIndex
                 _Sensor_isCalibratingAcqTime
                 _Sensor_setCalibratAcqTime
                 _Sensor_setCalibrated
                 _abs
               _Sensor_isActive
               _Sensor_isCalibrated
               _Sensor_isEnabled
               _Sensor_loadADCSettings
                 _Sensor_isCalibrated
                 _Sensor_isCalibratingAcqTime
               _TMR2_LoadPeriodRegister
               _TMR2_StartTimer
               _TMR2_StopTimer
               _abs
           _Sensor_isActive
           _Sensor_isCalibrated
           _Sensor_postAcquisitionProcess
             _Sensor_getScanGroupIndex
             _Sensor_isEnabled
             _Sensor_setActive
             _Sensor_setInactive
             _abs
         _Sensor_DefaultCallback
         _Sensor_RawSample_Update
           _Sensor_getScanGroupIndex
         _Sensor_isEnabled
         _Sensor_setSampled
     _MTOUCH_Sensor_Sampled_ResetAll
       _Sensor_Sampled_Reset
     _MTOUCH_Tick
       _MTOUCH_Proximity_Tick
         _Proximity_Tick_helper
     _MTOUCH_needReburst
   _SYSTEM_Initialize
     _EUSART_Initialize
       _EUSART_SetErrorHandler
       _EUSART_SetFramingErrorHandler
       _EUSART_SetOverrunErrorHandler
       _EUSART_SetRxInterruptHandler
       _EUSART_SetTxInterruptHandler
     _MTOUCH_Initialize
       _MTOUCH_Proximity_InitializeAll
         _MTOUCH_Proximity_Initialize
         _memcpy
       _MTOUCH_Sensor_InitializeAll
         _MTOUCH_Sensor_Initialize
           _MTOUCH_Sensor_Calibrate
             ___bmul
           _MTOUCH_Sensor_Enable
             ___bmul
           _Sensor_Sampled_Reset
           ___bmul
       _MTOUCH_Sensor_Sampled_ResetAll
         _Sensor_Sampled_Reset
       _MTOUCH_Sensor_Scan_Initialize
     _OSCILLATOR_Initialize
     _PIN_MANAGER_Initialize
     _TMR2_Initialize
     _WDT_Initialize

 _INTERRUPT_InterruptManager (ROOT)
   Absolute function(Fake) *
   _EUSART_Receive_ISR *
     Absolute function(Fake) *
     _EUSART_DefaultErrorHandler *
       _EUSART_RxDataHandler
     _EUSART_DefaultFramingErrorHandler *
     _EUSART_DefaultOverrunErrorHandler *
     _EUSART_RxDataHandler *
   _EUSART_Transmit_ISR *

 Address spaces:
Name               Size   Autos  Total    Cost      Usage
BIGRAM             1F0      0       0       0        0.0%
NULL                 0      0       0       0        0.0%
CODE                 0      0       0       0        0.0%
BITCOMMON            E      0       0       1        0.0%
BITSFR0              0      0       0       1        0.0%
SFR0                 0      0       0       1        0.0%
COMMON               E      C       D       2       92.9%
BITSFR1              0      0       0       2        0.0%
SFR1                 0      0       0       2        0.0%
BITSFR2              0      0       0       3        0.0%
SFR2                 0      0       0       3        0.0%
STACK                0      0       0       3        0.0%
BITSFR3              0      0       0       4        0.0%
SFR3                 0      0       0       4        0.0%
ABS                  0      0      8C       4        0.0%
BITBANK0            50      0       0       5        0.0%
BITSFR4              0      0       0       5        0.0%
SFR4                 0      0       0       5        0.0%
BANK0               50     2A      50       6      100.0%
BITSFR5              0      0       0       6        0.0%
SFR5                 0      0       0       6        0.0%
BITBANK1            50      0       0       7        0.0%
BITSFR6              0      0       0       7        0.0%
SFR6                 0      0       0       7        0.0%
BANK1               50      0      2F       8       58.8%
BITSFR7              0      0       0       8        0.0%
SFR7                 0      0       0       8        0.0%
BITBANK2            50      0       0       9        0.0%
BITSFR8              0      0       0       9        0.0%
SFR8                 0      0       0       9        0.0%
BANK2               50      0       0      10        0.0%
BITSFR9              0      0       0      10        0.0%
SFR9                 0      0       0      10        0.0%
BITBANK3            50      0       0      11        0.0%
BITSFR10             0      0       0      11        0.0%
SFR10                0      0       0      11        0.0%
BANK3               50      0       0      12        0.0%
BITSFR11             0      0       0      12        0.0%
SFR11                0      0       0      12        0.0%
BITBANK4            50      0       0      13        0.0%
BITSFR12             0      0       0      13        0.0%
SFR12                0      0       0      13        0.0%
BANK4               50      0       0      14        0.0%
BITSFR13             0      0       0      14        0.0%
SFR13                0      0       0      14        0.0%
BITBANK5            50      0       0      15        0.0%
BITSFR14             0      0       0      15        0.0%
SFR14                0      0       0      15        0.0%
BANK5               50      0       0      16        0.0%
BITSFR15             0      0       0      16        0.0%
SFR15                0      0       0      16        0.0%
BITBANK6            10      0       0      17        0.0%
BITSFR16             0      0       0      17        0.0%
SFR16                0      0       0      17        0.0%
BANK6               10      0       0      18        0.0%
BITSFR17             0      0       0      18        0.0%
SFR17                0      0       0      18        0.0%
BITSFR18             0      0       0      19        0.0%
SFR18                0      0       0      19        0.0%
DATA                 0      0      8C      19        0.0%
BITSFR19             0      0       0      20        0.0%
SFR19                0      0       0      20        0.0%
BITSFR20             0      0       0      21        0.0%
SFR20                0      0       0      21        0.0%
BITSFR21             0      0       0      22        0.0%
SFR21                0      0       0      22        0.0%
BITSFR22             0      0       0      23        0.0%
SFR22                0      0       0      23        0.0%
BITSFR23             0      0       0      24        0.0%
SFR23                0      0       0      24        0.0%
BITSFR24             0      0       0      25        0.0%
SFR24                0      0       0      25        0.0%
BITSFR25             0      0       0      26        0.0%
SFR25                0      0       0      26        0.0%
BITSFR26             0      0       0      27        0.0%
SFR26                0      0       0      27        0.0%
BITSFR27             0      0       0      28        0.0%
SFR27                0      0       0      28        0.0%
BITSFR28             0      0       0      29        0.0%
SFR28                0      0       0      29        0.0%
BITSFR29             0      0       0      30        0.0%
SFR29                0      0       0      30        0.0%
BITSFR30             0      0       0      31        0.0%
SFR30                0      0       0      31        0.0%
BITSFR31             0      0       0      32        0.0%
SFR31                0      0       0      32        0.0%


Microchip Technology PIC Macro Assembler V2.10 build 88905656 
Symbol Table                                                                                   Sat Nov 09 00:16:48 2019

                       ?_EUSART_SetRxInterruptHandler 0071                       Sensor_loadADCSettings@adc_index 0072  
                        ?_MTOUCH_Sensor_RawSample_Get 0075                                        ___bmul@product 0073  
                                         __CFG_CP$OFF 0000                 Proximity_State_NotActivated@deviation 002D  
                             ?_Sensor_autoCalibration 0070                            __end_of_Sensor_setInactive 09D8  
                            _Proximity_Reading_Update 0A7A                             _Sensor_setCalibratAcqTime 0A14  
                                         __CFG_LVP$ON 0000                        Proximity_Deviation_Update@name 0033  
                __end_of_MTOUCH_Proximity_isActivated 0B41                 __size_of_MTOUCH_Proximity_isActivated 0018  
                        _MTOUCH_Proximity_isActivated 0B29                                                   l200 0E10  
                                                 l211 0476                                                   l220 00B1  
                                                 l300 0D0F                                                   l213 0515  
                                                 l134 0A5A                                                   l207 0529  
                                                 l303 07FF                                                   l143 0B72  
                                                 l240 014D                                                   l224 027F  
                                                 l137 0A79                                                   l129 0B11  
                                                 l242 0147                                                   l330 09D7  
                                                 l314 0AD3                                                   l323 0AAD  
                                                 l171 05C4                                                   l244 014B  
                                                 l334 0A4B                                                   l350 0A07  
                                                 l182 07D3                                                   l510 0E4F  
                                                 l342 0AC0                                                   l247 0152  
                                                 l327 09D0                                                   l423 0A2D  
                                                 l432 0986                                                   l513 09FE  
                                                 l177 0D9A                                                   l353 0A13  
                                                 l257 020F                                                   l249 0156  
                                                 l346 0B28                                                   l370 09E5  
                                                 l275 065C                                                   l259 022A  
                                                 l435 0003                                                   l356 0A20  
                                                 l364 0C19                                                   l428 0C57  
                                                 l373 09DE                                                   l534 0D17  
                                                 l294 0B59                                                   l630 09BD  
                                                 l535 0D20                                                   l519 0982  
                                                 l367 0A3C                                                   l359 09ED  
                                                 l800 098F                                                   l288 0762  
                                                 l633 098A                                                   l538 0D39  
                                                 l811 0E93                                                   l627 0AE6  
                                                 l820 0462                                                   l804 0F19  
                                                 l740 0ED6                                                   l805 0F2B  
                                                 l573 09A5                                                   l582 09B7  
                                                 l662 0BC0                                                   l735 0ECA  
                                                 l912 0C77                                                   l904 06E1  
                                                 l816 0440                                                   l576 09AB  
                                                 l728 0EBB                                                   l681 0970  
                                                 l585 09B1                                                   l826 0F92  
                                                 l834 0CE7                                                   l738 0ED4  
                                                 l579 099F                                                   l844 0BDD  
                                                 l908 0BFB                                                   l684 0973  
                                                 l693 0994                                                   l829 0999  
                                                 l678 09F5                                                   l881 0397  
                                                 l858 0B40                                                   l891 0A8A  
                                                 l885 0C38                                                   l789 0CC0  
                                                 l797 0A9B                                                   l896 0FFF  
                                                 l899 07FE                                                   _GIE 005F  
                                                 _PR2 001B                                                   _abs 0B8D  
                              ??_EUSART_RxDataHandler 0070                        ?_EUSART_SetFramingErrorHandler 0071  
                             ?_Sensor_loadADCSettings 0072                                       _TMR2_Initialize 09EE  
                                        __CFG_BORV$LO 0000                                                   wreg 0009  
                    ??_MTOUCH_Sensor_Sampled_ResetAll 0072                       ?_MTOUCH_Sensor_Sampled_ResetAll 0070  
                    __size_of_MTOUCH_Sensor_SampleAll 0019                        Sensor_getScanGroupIndex@sensor 0073  
                   __size_of_MTOUCH_Sensor_Initialize 0016                             ?_MTOUCH_Sensor_Initialize 0070  
                                                l1017 0AFB                                                  ?_abs 0071  
                                                l2300 0BA7                                                  l2310 0BB5  
                                                l2302 0BAB                                                  l4000 0228  
                                                l2312 0BB7                                                  l2304 0BAE  
                                                l2320 0987                                                  l4010 0235  
                                                l3050 09CB                                                  l2314 0BBC  
                                                l2306 0BB0                                                  l2322 09EE  
                                                l3300 02DC                                                  l3140 0CA3  
                                                l4020 0257                                                  l4012 023A  
                                                l4004 022E                                                  l4100 074B  
                                                l3052 09D2                                                  l2316 09B8  
                                                l2308 0BB2                                                  l2324 09F1  
                                                l1445 0BA6                                                  l3310 0319  
                                                l3302 02EA                                                  l3142 0CA8  
                                                l4110 07EF                                                  l4030 0274  
                                                l4022 025C                                                  l4014 023F  
                                                l4102 074F                                                  l1454 0D67  
                                                l2318 09BB                                                  l2326 09F2  
                                                l2360 0B2F                                                  l3312 0327  
                                                l3304 02F2                                                  l4112 0F94  
                                                l3144 0CB2                                                  l3160 06A3  
                                                l3152 065E                                                  l4200 0E75  
                                                l1448 0BA6                                                  l4032 0276  
                                                l4024 0265                                                  l4016 0244  
                                                l4008 0230                                                  l4104 0755  
                                                l3080 0DD5                                                  l3240 0CE9  
                                                l4120 0AFD                                                  l2328 09F3  
                                                l3066 0C59                                                  l3170 0C30  
                                                l3162 0C1B                                                  l3314 0333  
                                                l3306 02F6                                                  l4114 0F9D  
                                                l3146 0CB9                                                  l3138 0C9B  
                                                l3154 0662                                                  l4202 0E86  
                                                l4034 0278                                                  l4026 026E  
                                                l4018 024D                                                  l3090 0E07  
                                                l3082 0DDC                                                  l4130 0773  
                                                l3250 0D03                                                  l3242 0CF0  
                                                l4210 0A4D                                                  l3164 0C20  
                                                l3316 0380                                                  l3308 02FF  
                                                l4052 0B57                                                  l4044 0B42  
                                                l4116 0FC1                                                  l4108 07D5  
                                                l3156 0663                                                  l3340 040F  
                                                l3332 0398                                                  l2700 0D69  
                                                l4036 027A                                                  l4028 0272  
                                                l3092 0E0C                                                  l3084 0DE5  
                                                l4140 077F                                                  l4124 0765  
                                                l3244 0CF4                                                  l3252 09D9  
                                                l4220 0557                                                  l3500 0983  
                                                l4300 0C3C                                                  l4060 0AAF  
                                                l4212 0A51                                                  l4204 0A4C  
                                                l2374 097F                                                  l2366 0B3F  
                                                l2358 0B2A                                                  l3182 0BF2  
                                                l3174 0BDF                                                  l3318 038C  
                                                l4046 0B47                                                  l4118 0FDF  
                                                l3158 06A1                                                  l3350 045E  
                                                l3342 0417                                                  l3334 03C1  
                                                l4038 027C                                                  l4070 06FA  
                                                l3086 0DFC                                                  l4150 07A0  
                                                l4142 078C                                                  l4134 0775  
                                                l4126 0769                                                  l3246 0CF5  
                                                l4222 0560                                                  l4230 057A  
                                                l3078 09E0                                                  l3422 0C09  
                                                l4310 0C50                                                  l4302 0C44  
                                                l3510 0E26                                                  l3502 0E11  
                                                l3270 0D3B                                                  l3430 0A97  
                                                l4062 0AB4                                                  l4214 0A55  
                                                l3600 0D2A                                                  l3176 0BE4  
                                                l3344 0429                                                  l3336 03EE  
                                                l3352 0F2C                                                  l2712 0D7D  
                                                l2800 04F6                                                  l4072 06FE  
                                                l4064 06E4                                                  l3088 0DFE  
                                                l4152 07AA                                                  l4144 0792  
                                                l4136 077D                                                  l4128 076E  
                                                l3248 0D01                                                  l4232 0584  
                                                l4224 0566                                                  l4216 052C  
                                                l3424 0C0D                                                  l3360 0CC2  
                                                l3432 0995                                                  l4312 0C53  
                                                l3440 09A6                                                  l3520 0E34  
                                                l3512 0E28                                                  l3504 0E13  
                                                l3272 0D44                                                  l3280 0D5B  
                                                l4056 0AC2                                                  l4400 0E94  
                                                l3602 0D2E                                                  l3346 0439  
                                                l3338 0408                                                  l3354 0F3E  
                                                l2714 0D8E                                                  l2706 0D6A  
                                                l2730 0B9A                                                  l2810 05C6  
                                                l2802 0509                                                  l4090 0721  
                                                l4082 070A                                                  l4066 06F2  
                                                l4162 07D2                                                  l4154 07B4  
                                                l4146 0796                                                  l4234 058A  
                                                l4226 056A                                                  l4242 059F  
                                                l4218 054A                                                  l3426 0C11  
                                                l3418 0BFC                                                  l3362 0CCC  
                                                l4314 0C56                                                  l4306 0C46  
                                                l3442 099A                                                  l3434 09AC  
                                                l3530 0E4C                                                  l3522 0E3B  
                                                l3514 0E2A                                                  l3506 0E1A  
                                                l3274 0D4C                                                  l4058 0AC7  
                                                l4410 0EAA                                                  l4402 0E97  
                                                l3604 0D34                                                  l3292 0282  
                                                l3348 0457                                                  l3356 0F46  
                                                l4260 0EF0                                                  l2740 0A6A  
                                                l2708 0D7B                                                  l2732 09E7  
                                                l2820 0607                                                  l2812 05CD  
                                                l2724 0A00                                                  l2804 0991  
                                                l4084 0710                                                  l4068 06F6  
                                                l4156 07BE                                                  l4148 079C  
                                                l4236 058E                                                  l4244 05C2  
                                                l4228 056F                                                  l3364 0CDF  
                                                l4308 0C49                                                  l3436 09B2  
                                                l3532 0E4D                                                  l3524 0E46  
                                                l3516 0E2C                                                  l3508 0E23  
                                                l3276 0D50                                                  l3428 0A8B  
                                                l4324 0AD4                                                  l4420 0EC7  
                                                l4412 0EB3                                                  l4404 0E98  
                                                l3606 0D35                                                  l4174 0B27  
                                                l4166 0B13                                                  l3294 02A4  
                                                l4190 0A86                                                  l4182 0A7B  
                                                l3358 0F7C                                                  l4262 0EFD  
                                                l2750 0A76                                                  l2742 0A6D  
                                                l2718 0D90                                                  l2830 0650  
                                                l2814 05D6                                                  l2822 060C  
                                                l2806 096E                                                  l4094 0723  
                                                l4086 0714                                                  l4078 06FF  
                                                l4158 07C8                                                  l4238 0593  
                                                l3438 09A0                                                  l3526 0E4A  
                                                l3518 0E2D                                                  l3278 0D57  
                                                l4326 0AE3                                                  l4414 0EBD  
                                                l4422 0ECC                                                  l4406 0E99  
                                                l3608 0D37                                                  l4168 0B18  
                                                l3296 02C3                                                  l4184 0A7F  
                                                l4192 0E50                                                  l4264 0F07  
                                                l4256 0EDC                                                  l2744 0A6F  
                                                l2736 0A15                                                  l2728 0B8D  
                                                l2832 0658                                                  l2824 0631  
                                                l2816 05F4                                                  l2760 0AAC  
                                                l2752 0A9D                                                  l2808 0971  
                                                l4096 0730                                                  l4088 0719  
                                                l4280 0B67                                                  l3528 0E4B  
                                                l4416 0EC1                                                  l4408 0EA2  
                                                l3650 0BCC                                                  l4178 0A2F  
                                                l3298 02D4                                                  l4186 0A80  
                                                l4194 0E62                                                  l4266 0F12  
                                                l4258 0EE4                                                  l2746 0A71  
                                                l2738 0A09                                                  l2826 0639  
                                                l2818 0602                                                  l2770 0A45  
                                                l2754 0AA2                                                  l4098 073B  
                                                l4282 0B71                                                  l4274 0B5C  
                                                l4290 0A27                                                  l4418 0EC5  
                                                l3652 0BD2                                                  l4188 0A84  
                                                l4196 0E67                                                  l2748 0A74  
                                                l2828 063E                                                  l2764 0A3E  
                                                l2780 046F                                                  l3900 00E1  
                                                l4276 0B65                                                  l4268 0B5A  
                                                l4292 0A2A                                                  l3566 09F6  
                                                l3646 0BC2                                                  l3830 0AE9  
                                                l4198 0E6B                                                  l4294 098B  
                                                l2766 0A43                                                  l2790 04A9  
                                                l2782 0472                                                  l2774 0464  
                                                l3910 0108                                                  l3902 00E4  
                                                l3494 0002                                                  l4286 0A21  
                                                l3592 0D11                                                  l3648 0BC7  
                                                l3832 0AED                                                  l2792 04B3  
                                                l2784 047A                                                  l3920 011A  
                                                l3912 0109                                                  l3904 00F6  
                                                l4464 05AC                                                  l3496 0002  
                                                l4296 0C39                                                  l4288 0A24  
                                                l3594 0D11                                                  l3834 0AF1  
                                                l2794 04BC                                                  l2786 048B  
                                                l2778 046A                                                  l3930 0129  
                                                l3922 011C                                                  l3914 010C  
                                                l3906 00F9                                                  l3850 0077  
                                                l3842 005E                                                  l4466 05B1  
                                                l4298 0C3C                                                  l3596 0D1C  
                                                l3836 0AF3                                                  l3828 0AE8  
                                                l2796 04E1                                                  l2788 049D  
                                                l3940 0137                                                  l3932 012F  
                                                l3924 011E                                                  l3916 010E  
                                                l3908 00FF                                                  l3860 0097  
                                                l3852 007F                                                  l3844 0065  
                                                l3598 0D21                                                  l3838 0AFA  
                                                l2798 04ED                                                  l3950 0151  
                                                l3942 013A                                                  l3934 0131  
                                                l3926 0121                                                  l3918 0111  
                                                l3862 009C                                                  l3854 0084  
                                                l3846 006A                                                  l3960 0188  
                                                l3952 0157                                                  l3944 013D  
                                                l3936 0132                                                  l3928 0123  
                                                l3864 009F                                                  l3856 0087  
                                                l3848 006F                                                  l3970 01CE  
                                                l3962 019A                                                  l3954 016E  
                                                l3946 0142                                                  l3938 0133  
                                                l3890 00CF                                                  l3866 00A7  
                                                l3858 008F                                                  l3874 00B2  
                                                l3972 01D3                                                  l3980 0201  
                                                l3964 01A3                                                  l3956 0173  
                                                l3948 0146                                                  l3876 00B7  
                                                l3868 00AF                                                  l3990 0214  
                                                l3982 0206                                                  l3974 01E5  
                                                l3966 01B5                                                  l3958 0183  
                                                l3878 00BC                                                  l3886 00C5  
                                                l3992 0217                                                  l3984 0207  
                                                l3976 01EE                                                  l3968 01BE  
                                                l3888 00CA                                                  l3994 021B  
                                                l3986 0209                                                  l3898 00D8  
                                                l3996 021F                                                  l3988 020D  
                                                l3998 0223                                                  u1230 0B2F  
                                                u1231 0B2E                                                  u1240 0B3D  
                                                u1241 0B3B                                                  u1250 0B3E  
                                                u3020 0BC7                                                  u3021 0BC6  
                                                _LATA 010C                                                  u3030 0BCC  
                                                u2230 0C6D                                                  _LATB 010D  
                                                u3031 0BCB                                                  _LATC 010E  
                                                u3040 0BD2                                                  u3041 0BD1  
                                                u2235 0C69                                                  u2340 0662  
                                                u1700 0D99                                                  u3300 0077  
                                                u2260 0DE5                                                  u4100 0EAA  
                                                u2341 0661                                                  u1701 0D98  
                                                u3301 0076                                                  u2261 0DE4  
                                                u4101 0EA9                                                  u2350 0674  
                                                u1710 0B9A                                                  u3310 007F  
                                                u2270 0E07                                                  u2510 0CF4  
                                                u4110 0EB3                                                  u1711 0B99  
                                                u3311 007E                                                  u2271 0E06  
                                                u2511 0CF3                                                  u4111 0EB2  
                                                u2600 0319                                                  u2360 06B4  
                                                u1720 0AA2                                                  u3400 00CF  
                                                u3320 008F                                                  u4120 0EBB  
                                                u2601 0318                                                  u1721 0AA1  
                                                u3401 00CE                                                  u3321 008E  
                                                u4121 0EBA                                                  u2370 0C20  
                                                u2610 0327                                                  u1810 05F4  
                                                u1730 0A43                                                  u3410 00D7  
                                                u3330 0097                                                  u2530 0D67  
                                                u4130 0ED4                                                  u2371 0C1F  
                                                u2611 0326                                                  u2355 0670  
                                                u1715 0B96                                                  u1811 05F3  
                                                u1731 0A42                                                  u3411 00D6  
                                                u3331 0096                                                  u2531 0D66  
                                                u4131 0ED3                                                  u3260 0AED  
                                                u2380 0BE4                                                  u2700 0F3E  
                                                u1820 0602                                                  u1740 0469  
                                                u3500 0188                                                  u3420 00E1  
                                                u3340 00A7                                                  u3261 0AEC  
                                                u2381 0BE3                                                  u2365 06B0  
                                                u2701 0F3D                                                  u1821 0601  
                                                u1805 05E6                                                  u1741 0468  
                                                u3501 0187                                                  u3421 00E0  
                                                u3341 00A6                                                  u3270 0AFA  
                                                u2630 0380                                                  u2550 02B9  
                                                u1830 0631                                                  u1750 046F  
                                                u3510 01D3                                                  u3430 00FF  
                                                u3350 00AF                                                  u3271 0AF9  
                                                u2631 037F                                                  u1831 0630  
                                                u1815 05F0                                                  u1751 046E  
                                                u3511 01D2                                                  u3431 00FE  
                                                u3351 00AE                                                  u2560 02D4  
                                                u1680 0D7B                                                  u1840 0650  
                                                u1760 04BC                                                  u3600 0257  
                                                u3520 0206                                                  u3440 0142  
                                                u3360 00B7                                                  u3280 006A  
                                                u2633 037C                                                  u2625 033D  
                                                u2561 02D3                                                  u1681 0D7A  
                                                u1841 064F                                                  u1761 04BB  
                                                u3601 0256                                                  u3521 0205  
                                                u3441 0141                                                  u3361 00B6  
                                                u3281 0069                                                  u2570 02EA  
                                                u2730 0F7C                                                  u1690 0D8E  
                                                u1770 04F6                                                  u3610 0265  
                                                u3530 020D                                                  u3450 0146  
                                                u3370 00BC                                                  u3290 006F  
                                                u2810 0C08                                                  u2571 02E9  
                                                u2555 02B5                                                  u2731 0F7B  
                                                u2715 0F4D                                                  u1691 0D8D  
                                                u1835 062D                                                  u1771 04F5  
                                                u3611 0264                                                  u3531 020C  
                                                u3451 0145                                                  u3371 00BB  
                                                u3291 006E                                                  u2811 0C07  
                                                u4147 0EBE                                                  u2900 09FD  
                                                u2580 02F6                                                  u2660 03EE  
                                                u3620 026E                                                  u3540 0214  
                                                u3460 014B                                                  u3380 00C4  
                                                u3700 0755                                                  u2820 0C19  
                                                u2740 0CCC                                                  u2901 09FB  
                                                u2581 02F5                                                  u2661 03ED  
                                                u3621 026D                                                  u3541 0213  
                                                u3461 014A                                                  u3381 00C3  
                                                u3701 0754                                                  u2821 0C18  
                                                u2741 0CCB                                                  u2910 09FE  
                                                u3630 0B47                                                  u2670 0408  
                                                u1790 05D6                                                  u3550 0228  
                                                u3470 0151                                                  u3390 00CA  
                                                u2750 0CDF                                                  u3631 0B46  
                                                u2671 0407                                                  u2663 03EA  
                                                u2735 0F78                                                  u1791 05D5  
                                                u3551 0227                                                  u3471 0150  
                                                u3391 00C9                                                  u2751 0CDE  
                                                u3720 0F9D                                                  u2680 0429  
                                                u3560 022E                                                  u3480 0156  
                                                u3800 07AA                                                  u3640 0AC7  
                                                u3721 0F9C                                                  u2681 0428  
                                                u1785 051D                                                  u3561 022D  
                                                u3481 0155                                                  u3801 07A9  
                                                u3641 0AC6                                                  u3730 0FAF  
                                                u2690 0457                                                  u3570 0235  
                                                u3490 0173                                                  u3810 07B4  
                                                u3650 0AB4                                                  u2595 030C  
                                                u3715 07F4                                                  u2691 0456  
                                                u3571 0234                                                  u3491 0172  
                                                u3811 07B3                                                  u3651 0AB3  
                                                u2940 0D17                                                  u3580 023F  
                                                u3660 0710                                                  u3820 07BE  
                                                u3740 076E                                                  u3900 0566  
                                                u2941 0D16                                                  u3581 023E  
                                                u3661 070F                                                  u3821 07BD  
                                                u3741 076D                                                  u3901 0565  
                                                u2950 0D1C                                                  u3590 024D  
                                                u3670 0721                                                  u3830 07C8  
                                                u3750 0773                                                  u3910 0584  
                                                u2951 0D1B                                                  u3735 0FAB  
                                                u3591 024C                                                  u3671 0720  
                                                u3831 07C7                                                  u3751 0772  
                                                u3911 0583                                                  u2960 0D34  
                                                u3840 0B18                                                  u3680 0730  
                                                u3760 077D                                                  u3920 058A  
                                                u2961 0D33                                                  u3841 0B17  
                                                u3681 072F                                                  u3761 077C  
                                                u3921 0589                                                  u3850 0A7F  
                                                u3930 0EF0                                                  u3690 073B  
                                                u3770 078C                                                  u3851 0A7E  
                                                u3931 0EEF                                                  u3691 073A  
                                                u3771 078B                                                  u3860 0E62  
                                                u3940 0EFD                                                  u3780 0792  
                                                u3861 0E61                                                  u3941 0EFC  
                                                u3781 0791                                                  u3870 0E86  
                                                u3950 0F12                                                  u3790 079C  
                                                u3871 0E85                                                  u3951 0F11  
                                                u3695 0737                                                  u3791 079B  
                                                u3960 0B65                                                  u3880 0A5A  
                                                u3961 0B64                                                  u3881 0A59  
                                                u3890 0560                                                  u3970 0B71  
                                                u3891 055F                                                  u3971 0B70  
                                                u3980 0C44                                                  u3981 0C43  
                      ?_Proximity_Baseline_Initialize 0070                                                  _TMR2 001A  
                                   _Proximity_Service 0EDA                                                  _WPUA 020C  
                                                _WPUB 020D                     __size_of_Sensor_Acq_ExecutePacket 0224  
                            _Sensor_getScanGroupIndex 0D68                             ?_Sensor_Acq_ExecutePacket 007B  
                                        __CFG_WRT$OFF 0000                                    _MTOUCH_needReburst 0002  
                                                abs@a 0071                                                  _main 0E94  
                           _Proximity_Baseline_Update 065D                                                  fsr0h 0005  
                                                fsr1h 0007                                                  indf0 0000  
                                                fsr0l 0004                                                  indf1 0001  
                                                fsr1l 0006                                    ?_Proximity_Service 0070  
                __size_of_MTOUCH_Sensor_InitializeAll 000F                                                  btemp 007E  
                         ??_Proximity_State_Activated 0026                                                  start 002D  
                         ?_Proximity_Deviation_Update 0070                                     ___bmul@multiplier 0074  
                                       __CFG_MCLRE$ON 0000                                   ?_MTOUCH_needReburst 0070  
                                 ??_Proximity_Service 007B                        __end_of_Sensor_autoCalibration 065D  
__end_ofSensor_Scanfrequency_Evaluation@frequency_hop 1017          Sensor_Scanfrequency_Evaluation@frequency_hop 1012  
                            ?_MTOUCH_Service_Mainloop 0070                                                 ??_abs 0073  
               Sensor_postAcquisitionProcess@adcIndex 0078                         ??_MTOUCH_Sensor_RawSample_Get 0077  
                       Sensor_RawSample_Update@sensor 0077                             __size_of_Sensor_isEnabled 0012  
                                       ?_EUSART_Write 0070                        __size_of_OSCILLATOR_Initialize 0006  
                       __end_of_OSCILLATOR_Initialize 09BE     Sensor_Scanfrequency_Evaluation@best_packet_sample 0036  
                 __end_of_Sensor_isCalibratingAcqTime 09EE                           _Sensor_isCalibratingAcqTime 09E6  
                                               ?_main 0070                                         __CFG_WDTE$OFF 0000  
                      __end_of_Sensor_loadADCSettings 052A                                                 _T2CON 001C  
                                               i1l601 001A                                                 i1l602 002B  
                                               i1l550 0C99                                                 i1l606 002B  
                             ??_Proximity_Tick_helper 0071                                                 i1l561 0B8C  
                                               i1l570 097A                                                 i1l547 0C97  
                                               i1l564 096D                                                 i1l557 0DD3  
                                               i1l567 097E                                                 u2725n 0F60  
                                               u2725o 0F64                                                 _RCREG 0199  
                                               _RCSTA 019D                                                 _TRISA 008C  
                                               _TRISB 008D                                                 _TRISC 008E  
                       ?_MTOUCH_Proximity_isActivated 0070                                                 _TXREG 019A  
                                               _TXSTA 019E                                  ??_MTOUCH_needReburst 0071  
                     __size_of_Sensor_DefaultCallback 0001                             __end_of_Proximity_Service 0F2C  
                             __size_of_Sensor_Service 009B                 __end_of_MTOUCH_Sensor_Scan_Initialize 0A7A  
              __size_of_MTOUCH_Sensor_Scan_Initialize 0010                         _MTOUCH_Sensor_Scan_Initialize 0A6A  
                                      _WDT_Initialize 0987                               Sensor_setSampled@sensor 0071  
                                               pclath 000A                                  _Sensor_Sampled_Reset 09DF  
                                               status 0003                                                 wtemp0 007E  
                                     _TMR2_StartTimer 096E                      __size_of_TMR2_LoadPeriodRegister 0005  
                           __size_of_Sensor_setActive 0007                                Sensor_isEnabled@sensor 0072  
                                     __initialization 002F                                          __end_of_main 0EDA  
                               _MTOUCH_Proximity_Tick 0995                                  _Sensor_setCalibrated 0A08  
                                      ??_EUSART_Write 0071                               __end_of_TMR2_Initialize 09F6  
                                      __CFG_LPBOR$OFF 0000                           ?_INTERRUPT_InterruptManager 0070  
                      ??_EUSART_SetRxInterruptHandler 0073                                                ??_main 0049  
                           _Proximity_State_Activated 0F2C                               _MTOUCH_Sensor_Calibrate 0AAE  
                           Sensor_Service@sensor_adc1 0044                             Sensor_Service@sensor_adc2 0045  
                MTOUCH_Sensor_Sampled_ResetAll@sensor 0073                                __end_of_WDT_Initialize 098B  
                       __end_of_mtouch_proximity_init 1012                                          ?_MTOUCH_Tick 0070  
           __end_of_EUSART_DefaultFramingErrorHandler 096E            __size_of_EUSART_DefaultFramingErrorHandler 0001  
                 ??_EUSART_DefaultFramingErrorHandler 0070                    ?_EUSART_DefaultFramingErrorHandler 0070  
                   _EUSART_DefaultFramingErrorHandler 096D                            _EUSART_OverrunErrorHandler 00C9  
                __size_of_MTOUCH_Sensor_RawSample_Get 0019                                                _APFCON 011D  
                                              _ANSELA 018C                                                _ANSELB 018D  
                                              _ANSELC 018E                                                _BORCON 0116  
                    MTOUCH_Proximity_isActivated@name 0071                                                i1l3450 0B86  
                                              i1l3610 0C78                                                i1l3452 0B87  
                                              i1l3444 0B73                                                i1l3620 0C92  
                                              i1l3612 0C7F                                                i1l3446 0B7C  
                                              i1l3534 097B                                                i1l3630 0DB0  
                                              i1l3622 0D9B                                                i1l3614 0C86  
                                              i1l3448 0B80                                                i1l3536 0977  
                                              i1l3640 0DD0                                                i1l3632 0DB5  
                                              i1l3624 0DA0                                                i1l3616 0C8B  
                                              i1l3634 0DBA                                                i1l3626 0DA5  
                                              i1l3618 0C91                                                i1l3636 0DC0  
                                              i1l3628 0DAA                                                i1l3740 0006  
                                              i1l3638 0DC9                                                i1l3750 0024  
                                              i1l3742 000A                                                u300_20 0DB5  
                                              i1l3744 000F                                                u300_21 0DB4  
                                              i1l3746 0014                                                i1l3748 001F  
                                              u301_20 0DC9                                                u301_21 0DC8  
                                              u320_20 0024                                                u320_21 0023  
                               ?_Sensor_Sampled_Reset 0070                                                u316_20 000A  
                                              u316_21 0009                            __end_of_EUSART_is_tx_ready 09FF  
                                              u317_20 000F                                                u317_21 000E  
                                              u318_20 0014                                                u318_21 0013  
                                              u319_20 001F                                                u319_21 001E  
                                              u283_20 0B86                                                u283_21 0B85  
                                              u297_20 0C7F                                                u297_21 0C7E  
                                              u298_20 0C91                                                _OSCCON 0099  
                                              u298_21 0C90                                                u299_20 0DA5  
                                              u299_21 0DA4                                                _SPBRGH 019C  
                                              _SPBRGL 019B                                                _WDTCON 0097  
                    ??_MTOUCH_Proximity_Threshold_Set 0072                       ?_MTOUCH_Proximity_Threshold_Set 0071  
                     __end_of_MTOUCH_Service_Mainloop 0C58                                        __CFG_PWRTE$OFF 0000  
                                 _Sensor_isCalibrated 09FF                                _Sensor_DefaultCallback 07FF  
                                       _packet_sample 004A                                      _mtouch_proximity 0058  
                                              ___bmul 0AE7                                 ?_Sensor_setCalibrated 0070  
                        Sensor_DefaultCallback@sensor 0071                                        __CFG_STVREN$ON 0000  
                                 _EUSART_Transmit_ISR 0C78                                                _memcpy 0D3A  
                        Sensor_autoCalibration@sensor 007A                               _MTOUCH_Sensor_SampleAll 0B5A  
                                ?_Sensor_isCalibrated 0070                                       ?_WDT_Initialize 0070  
                            ?_Sensor_RawSample_Update 0070                            __end_of_Sensor_Acquisition 07D4  
                 __size_of_Proximity_Deviation_Update 0118                            __size_of_Proximity_Service 0052  
                 Sensor_postAcquisitionProcess@sensor 0079                               __end_of_TMR2_StartTimer 0971  
                  __size_of_Sensor_setCalibratAcqTime 000D                        ??_MTOUCH_Proximity_isActivated 0071  
                            __size_of_Sensor_isActive 000F                                  ?_EUSART_Transmit_ISR 0070  
                     MTOUCH_Sensor_RawSample_Get@name 0078                   Sensor_getScanGroupIndex@sensorGroup 0074  
                                   _SYSTEM_Initialize 0AD4                               __end_of__initialization 0058  
                     MTOUCH_Proximity_Initialize@name 0072                        ?_MTOUCH_Sensor_Scan_Initialize 0070  
                     ??_Sensor_postAcquisitionProcess 0075                       MTOUCH_Proximity_Initialize@prox 0073  
                                  ?_SYSTEM_Initialize 0070                         MTOUCH_Sensor_Calibrate@sensor 0076  
                __end_of_EUSART_SetTxInterruptHandler 09B8                 __size_of_EUSART_SetTxInterruptHandler 0006  
                        _EUSART_SetTxInterruptHandler 09B2           Sensor_Acq_ExecutePacket@sensor1ForceEnabled 0024  
                                 ___bmul@multiplicand 0071                            ??_Proximity_Reading_Update 007A  
                              ?_MTOUCH_Proximity_Tick 0070                __end_of_MTOUCH_Proximity_InitializeAll 0A9C  
             __size_of_MTOUCH_Proximity_InitializeAll 0011                        _MTOUCH_Proximity_InitializeAll 0A8B  
                                      __pcstackCOMMON 0070                                          __pidataBANK0 0974  
                                        __pidataBANK1 0A5B                                   ??_SYSTEM_Initialize 007B  
                  __size_of_Proximity_Baseline_Update 0085                      Proximity_State_Initializing@prox 0025  
                    __end_of_MTOUCH_Sensor_Initialize 0B12                             ??_MTOUCH_Sensor_Calibrate 0075  
                                    _Sensor_isEnabled 0A9C                                      ?_TMR2_Initialize 0070  
                            Sensor_setInactive@sensor 0071                       ??_Proximity_Baseline_Get_helper 0075  
                    __end_of_Sensor_Acq_ExecutePacket 0280                                        _OPTION_REGbits 0095  
                               ??_Sensor_isCalibrated 0071                            ??_Sensor_getScanGroupIndex 0071  
                                _eusartRxStatusBuffer 00A0                         Proximity_State_Activated@prox 0025  
                 Sensor_Acq_ExecutePacket@sensor_adc1 002D                   Sensor_Acq_ExecutePacket@sensor_adc2 007B  
                     ??_EUSART_SetOverrunErrorHandler 0073                                        _Sensor_Service 052A  
                       __size_of_MTOUCH_Sensor_Enable 0013                                    _Sensor_setInactive 09D1  
                                   _sensor_scan_group 1017                             __end_of_SYSTEM_Initialize 0AE7  
                                   _lowpowerActivated 0057                                 ??_EUSART_Transmit_ISR 0070  
                    MTOUCH_Sensor_isCalibrated@sensor 0076                                ??_Sensor_Sampled_Reset 0071  
                                          __pbssBANK0 004A                                            __pbssBANK1 00A0  
                                __end_of_EUSART_Write 0D3A                               _TMR2_LoadPeriodRegister 0990  
                        Sensor_loadADCSettings@sensor 0079                                   ?_Sensor_setInactive 0070  
                                    _Sensor_setActive 09CA                           __size_of_EUSART_Receive_ISR 0039  
             __end_of_Proximity_Reading_Update_Helper 1000              __size_of_Proximity_Reading_Update_Helper 006D  
                   ??_Proximity_Reading_Update_Helper 0020                      ?_Proximity_Reading_Update_Helper 0070  
                     _Proximity_Reading_Update_Helper 0F93           Sensor_Acq_ExecutePacket@sensor2ForceEnabled 0025  
                              ??_Sensor_setCalibrated 0071                                            __pmaintext 0E94  
                                             ?___bmul 0071                         ?_EUSART_SetTxInterruptHandler 0071  
                    _EUSART_TxDefaultInterruptHandler 006A                                               _AD1CON0 0711  
                                             _AD1CON2 0713                                               _AD1CON3 0714  
                                             _AD2CON0 0791                                               _AD2CON2 0793  
                                             _AD2CON3 0794                                               _AAD1CAP 0719  
                                             _AAD1GRD 0718                                               _AAD2GRD 0798  
                     ??_Proximity_Baseline_Initialize 0020                        MTOUCH_Sensor_wasSampled@sensor 0076  
                                          __pintentry 0004                   Proximity_Deviation_Update@deviation 002F  
                                             ?_memcpy 0071                                               _BAUDCON 019F  
                                           _AD1ACQCON 0717                                             _AD2ACQCON 0797  
                        ?_MTOUCH_Proximity_Initialize 0070                          ??_EUSART_DefaultErrorHandler 0071  
                 __end_of_MTOUCH_Sensor_InitializeAll 0A5B                           _MTOUCH_Sensor_InitializeAll 0A4C  
                           ??_MTOUCH_Sensor_SampleAll 0046                       __end_of_Sensor_RawSample_Update 0D10  
                                ??_Sensor_setInactive 0071                     __size_of_MTOUCH_Sensor_wasSampled 000F  
                           ?_MTOUCH_Sensor_wasSampled 0070                                         _eusartRxCount 0051  
                                           _AD1PRECON 0716                             Sensor_isCalibrated@sensor 0071  
                                           _AD2PRECON 0796                                __end_of_Sensor_Service 05C5  
                             Sensor_Service@scanGroup 0042                        __size_of_Proximity_Tick_helper 0027  
                       __end_of_Proximity_Tick_helper 0CE8                             __end_of_sensor_scan_group 1019  
                       __size_of_EUSART_RxDataHandler 001A                      __size_of_MTOUCH_Service_Mainloop 001F  
                             __size_of_TMR2_StopTimer 0003                              ??_EUSART_SetErrorHandler 0073  
                                    ?_TMR2_StartTimer 0070                       Sensor_setCalibratAcqTime@sensor 0071  
                  __size_of_Proximity_State_Activated 0067                                  __size_of_MTOUCH_Tick 0004  
                 Sensor_loadADCSettings@addressOffset 0078                  __size_of_Sensor_isCalibratingAcqTime 0008  
               Sensor_Acq_ExecutePacket@ADCOMCON_temp 0021                                     ??_Sensor_isActive 0071  
                 __size_of_EUSART_DefaultErrorHandler 0004                 __end_of_Sensor_postAcquisitionProcess 0E11  
              __size_of_Sensor_postAcquisitionProcess 003D                         _Sensor_postAcquisitionProcess 0DD4  
                             Sensor_Acquisition@retry 003D                                       __size_of___bmul 0015  
                __end_of_Proximity_State_Initializing 0E94                 __size_of_Proximity_State_Initializing 0044  
                        _Proximity_State_Initializing 0E50                                           _AD1CON0bits 0711  
                                         _AD2CON0bits 0791                 __end_of_MTOUCH_Proximity_Baseline_Get 0BFC  
              __size_of_MTOUCH_Proximity_Baseline_Get 001E                         _MTOUCH_Proximity_Baseline_Get 0BDE  
                        ?_MTOUCH_Proximity_ServiceAll 0070            Sensor_Scanfrequency_Evaluation@sensor_adc1 0031  
          Sensor_Scanfrequency_Evaluation@sensor_adc2 002E                                       __size_of_memcpy 002E  
                                             __ptext1 0AD4                                               __ptext2 0987  
                                             __ptext3 09EE                                               __ptext4 0BA7  
                                             __ptext5 09B8                                               __ptext6 0A21  
                                             __ptext7 0A4C                                               __ptext8 0AFC  
                                             __ptext9 0AC1                         ??_MTOUCH_Proximity_Initialize 0071  
                            _MTOUCH_Sensor_Initialize 0AFC                                 _OSCILLATOR_Initialize 09B8  
                                           _T2CONbits 001C                                          __size_of_abs 001A  
                                     ?_Sensor_Service 0070                              ??_PIN_MANAGER_Initialize 0071  
                         __size_of_MTOUCH_needReburst 0002                     MTOUCH_Sensor_InitializeAll@sensor 007A  
                            _Sensor_Acq_ExecutePacket 005C                                      _callback_sampled 006D  
                           ??_TMR2_LoadPeriodRegister 0071                       Sensor_RawSample_Update@adcIndex 0076  
                          __size_of_SYSTEM_Initialize 0013                                               clrloop0 09BF  
                      MTOUCH_Sensor_Initialize@sensor 0078                                  end_of_initialization 0058  
               __end_of_EUSART_SetOverrunErrorHandler 09AC                __size_of_EUSART_SetOverrunErrorHandler 0006  
                       _EUSART_SetOverrunErrorHandler 09A6                                               memcpy@d 007A  
                                             memcpy@n 0073                                               memcpy@s 0076  
                                             init_ram 09C4                                               initloop 09C5  
                   Proximity_Baseline_Initialize@prox 0079                               ?_Sensor_DefaultCallback 0071  
                       Sensor_Acquisition@sensor_adc1 003E                         Sensor_Acquisition@sensor_adc2 003B  
                                   _EUSART_Initialize 0E11                          ??_MTOUCH_Sensor_isCalibrated 0075  
                                  ?_EUSART_Initialize 0070                             Proximity_Tick_helper@prox 0073  
                 __end_of_MTOUCH_Sensor_RawSample_Get 0B5A                           _MTOUCH_Sensor_RawSample_Get 0B41  
                                           _RCSTAbits 019D                                    _EUSART_is_tx_ready 09F6  
                __end_of_Proximity_State_NotActivated 0463                 __size_of_Proximity_State_NotActivated 00CB  
                        _Proximity_State_NotActivated 0398                         ?_Proximity_State_Initializing 0025  
                                 ??_EUSART_Initialize 0073                                      ??_WDT_Initialize 0071  
                      ??_EUSART_SetTxInterruptHandler 0073                         ??_MTOUCH_Proximity_ServiceAll 007C  
                              Sensor_setActive@sensor 0071                                   ?_EUSART_is_tx_ready 0070  
                                    __CFG_FOSC$INTOSC 0000     Sensor_Scanfrequency_Evaluation@best_sample_period 0034  
                Sensor_Acq_ExecutePacket@AD1CON2_temp 0022                                 __size_of_EUSART_Write 002A  
                          MTOUCH_Sensor_Enable@sensor 0076                  Sensor_Acq_ExecutePacket@AD2CON2_temp 0023  
                               _mtouch_proximity_init 1000                   __size_of_MTOUCH_Sensor_isCalibrated 0017  
                     __size_of_EUSART_SetErrorHandler 0006       Sensor_Scanfrequency_Evaluation@packet_noise_Max 0032  
                    Proximity_State_NotActivated@prox 0025                                    _sensor_globalFlags 0056  
                            __end_of_Sensor_isEnabled 0AAE                            Sensor_setCalibrated@sensor 0071  
                      __end_of_Sensor_DefaultCallback 0800                  __size_of_MTOUCH_Proximity_Initialize 0027  
                           __end_of_EUSART_Initialize 0E50                                  ??_EUSART_is_tx_ready 0071  
                          _Sensor_loadADCSettings$507 0076                              ??_Sensor_autoCalibration 0075  
                             ??_MTOUCH_Proximity_Tick 0074                                             _TXSTAbits 019E  
                    __size_of_Sensor_RawSample_Update 0028                                    _Sensor_Acquisition 0763  
                            ??_Sensor_loadADCSettings 0073                                        __end_of___bmul 0AFC  
                  __end_of_EUSART_DefaultErrorHandler 097B                            _EUSART_DefaultErrorHandler 0977  
                                 ?_Sensor_Acquisition 003B                       ??_MTOUCH_Sensor_Scan_Initialize 0071  
                      ?_Sensor_postAcquisitionProcess 0070                         ?_Proximity_State_NotActivated 0025  
                                        _EUSART_Write 0D10                                        __end_of_memcpy 0D68  
                              ?_OSCILLATOR_Initialize 0070                              __end_of_Sensor_setActive 09D1  
                    TMR2_LoadPeriodRegister@periodVal 0071                        ?_MTOUCH_Proximity_Baseline_Get 0020  
                                 start_initialization 002F                               _MTOUCH_Service_Mainloop 0C39  
                    ??_MTOUCH_Proximity_InitializeAll 007B                       ?_MTOUCH_Proximity_InitializeAll 0070  
                              _Proximity_StateMachine 00B8                       __size_of_PIN_MANAGER_Initialize 001A  
                                         __end_of_abs 0BA7                                        _TMR2_StopTimer 0971  
        EUSART_SetRxInterruptHandler@interruptHandler 0071          EUSART_SetTxInterruptHandler@interruptHandler 0071  
                                ??_Sensor_Acquisition 003C                  __size_of_MTOUCH_Proximity_ServiceAll 0005  
                      Sensor_autoCalibration@adcIndex 0079                        ?_EUSART_SetOverrunErrorHandler 0071  
                    __end_of_MTOUCH_Sensor_wasSampled 0A3D                          ??_Proximity_Deviation_Update 0025  
                        __end_of_MTOUCH_Sensor_Enable 0AD4                                          _packet_noise 004E  
                          _EUSART_FramingErrorHandler 00CB                                              ??___bmul 0072  
                              _EUSART_SetErrorHandler 099A                                           __pdataBANK0 006D  
                                         __pdataBANK1 00B8                                              ??_memcpy 0075  
                         __end_of_Sensor_isCalibrated 0A08                                         _sample_period 006F  
                          Sensor_Sampled_Reset@sensor 0071                          ?_Sensor_isCalibratingAcqTime 0070  
                         __end_of_EUSART_Transmit_ISR 0C9A                        ??_Proximity_State_Initializing 0026  
                              __end_of_TMR2_StopTimer 0974                     __size_of_Proximity_Reading_Update 0011  
                                         __pbssCOMMON 007C                             ?_Proximity_Reading_Update 0070  
                                           ___latbits 0002                                 Proximity_Service@name 0034  
                                       __pcstackBANK0 0020                                 Proximity_Service@prox 0035  
                            __size_of_TMR2_Initialize 0008                  __end_of_MTOUCH_Proximity_Reading_Get 0C39  
               __size_of_MTOUCH_Proximity_Reading_Get 001F                          _MTOUCH_Proximity_Reading_Get 0C1A  
                                     _Sensor_isActive 0A3D                                   Sensor_Service@error 0043  
                          __end_of_EUSART_Receive_ISR 0DD4                         __size_of_Sensor_Sampled_Reset 0007  
                          __size_of_EUSART_Initialize 003F                            ?_Sensor_setCalibratAcqTime 0070  
                    _EUSART_RxDefaultInterruptHandler 00CD                          Proximity_Reading_Update@prox 007A  
                  __end_of_MTOUCH_Sensor_isCalibrated 0B29                            _MTOUCH_Sensor_isCalibrated 0B12  
                                           __pnvBANK0 006A                                             __pnvBANK1 00C7  
                     __size_of_Sensor_autoCalibration 0098                     __size_of_Sensor_getScanGroupIndex 0033  
                                   _Sensor_setSampled 09D8                             ?_Sensor_getScanGroupIndex 0070  
                        __end_of_EUSART_RxDataHandler 0B8D                                _PIN_MANAGER_Initialize 0BA7  
                            ?_MTOUCH_Sensor_Calibrate 0070                                    ?_Sensor_setSampled 0070  
                          ??_MTOUCH_Sensor_Initialize 0077                         __size_of_Sensor_setCalibrated 000C  
                     __size_of_Sensor_loadADCSettings 00C7                                              _AAD1CON2 0713  
                                            _AAD1CON3 0714                                              _AAD2CON3 0794  
                                            _AAD1RES0 071A                                          _eusartRxHead 007C  
                                            _AAD2RES0 079A                                          _eusartTxHead 0054  
                                        _eusartRxTail 0052                                          _eusartTxTail 0053  
                                    ??_Sensor_Service 003F                            ??_Sensor_Acq_ExecutePacket 0020  
                        ??_INTERRUPT_InterruptManager 0071                                   ??_Sensor_setSampled 0071  
                           ??_MTOUCH_Service_Mainloop 0048                            ?_Proximity_Baseline_Update 0070  
                                            _ADCOMCON 0712                               _eusartTxBufferRemaining 006C  
                         __size_of_Sensor_setInactive 0007                        Sensor_Acq_ExecutePacket@last_a 0028  
                      Sensor_Acq_ExecutePacket@last_b 002A                                       ?_TMR2_StopTimer 0070  
                       ??_Sensor_isCalibratingAcqTime 0071                        ??_Proximity_State_NotActivated 0026  
                                       ??_MTOUCH_Tick 0074                                 _Proximity_Tick_helper 0CC1  
                 Proximity_Reading_Update_Helper@prox 0079                         ?_MTOUCH_Proximity_Reading_Get 0071  
                                      _eusartRxBuffer 00A8                                        _eusartTxBuffer 00B0  
                           __end_of_Sensor_setSampled 09DF                                              _LATAbits 010C  
              EUSART_SetErrorHandler@interruptHandler 0071                                              _LATCbits 010E  
                             _Sensor_RawSample_Update 0CE8                     __end_of_Sensor_setCalibratAcqTime 0A21  
                                           clear_ram0 09BE                                              _PIE1bits 0091  
                                   _eusartRxLastError 0050                              __size_of_TMR2_StartTimer 0003  
                 __size_of_INTERRUPT_InterruptManager 0029                                              _PIR1bits 0011  
                     ??_EUSART_SetFramingErrorHandler 0073                Sensor_Acq_ExecutePacket@packet_counter 002C  
                                            _PIR2bits 0012                                     _EUSART_is_tx_done 097F  
                  MTOUCH_Proximity_Threshold_Set@name 0073                __end_of_MTOUCH_Sensor_Sampled_ResetAll 0C1A  
             __size_of_MTOUCH_Sensor_Sampled_ResetAll 001E                        _MTOUCH_Sensor_Sampled_ResetAll 0BFC  
                            ?_MTOUCH_Sensor_SampleAll 0070             __end_of_EUSART_DefaultOverrunErrorHandler 097F  
          __size_of_EUSART_DefaultOverrunErrorHandler 0004                   ??_EUSART_DefaultOverrunErrorHandler 0070  
                  ?_EUSART_DefaultOverrunErrorHandler 0070                     _EUSART_DefaultOverrunErrorHandler 097B  
                   Proximity_Baseline_Get_helper@name 0079                    Sensor_Acq_ExecutePacket@ADxIF_flag 0026  
                                  ?_EUSART_is_tx_done 0070                              _MTOUCH_Sensor_wasSampled 0A2E  
                                  _mtouch_time_toScan 0055               MTOUCH_Proximity_Threshold_Set@threshold 0071  
                             __end_of_Sensor_isActive 0A4C                                _Sensor_autoCalibration 05C5  
                   __end_of_Proximity_Baseline_Update 06E2                            __end_of_MTOUCH_needReburst 0004  
                                 ??_EUSART_is_tx_done 0071                                _Sensor_loadADCSettings 0463  
                                _MTOUCH_Sensor_Enable 0AC1                                     ?_Sensor_isEnabled 0070  
                                   ??_TMR2_Initialize 0071                                   __end_of_MTOUCH_Tick 0987  
                                   _MTOUCH_Initialize 0A21                       __end_of_MTOUCH_Sensor_Calibrate 0AC1  
                          ?_Proximity_State_Activated 0025                                    ??_Sensor_isEnabled 0071  
                           __end_of_EUSART_is_tx_done 0983                    __end_of_Proximity_Deviation_Update 0398  
                          _Proximity_Deviation_Update 0280                                    ?_MTOUCH_Initialize 0070  
                      __size_of_MTOUCH_Proximity_Tick 0005                         __end_of_MTOUCH_Proximity_Tick 099A  
              Sensor_postAcquisitionProcess@deviation 0076                                             memcpy@tmp 0078  
                                          _APFCONbits 011D                               ??_OSCILLATOR_Initialize 0071  
                                 _EUSART_ErrorHandler 00C7                                   ??_MTOUCH_Initialize 007B  
                 __end_of_MTOUCH_Proximity_Initialize 0CC1                           _MTOUCH_Proximity_Initialize 0C9A  
                         ?_EUSART_DefaultErrorHandler 0070                      MTOUCH_Proximity_Reading_Get@name 0076  
                                   ?_Sensor_setActive 0070                              ?_TMR2_LoadPeriodRegister 0070  
                               Sensor_isActive@sensor 0071                  Sensor_Scanfrequency_Evaluation@retry 0035  
                                  ??_Sensor_setActive 0071                                  _EUSART_RxDataHandler 0B73  
                              ?_Proximity_Tick_helper 0070                                 ?_MTOUCH_Sensor_Enable 0070  
                                            __ptext10 0AAE                                              __ptext11 0A8B  
                                            __ptext20 0002                                              __ptext12 0D3A  
                                            __ptext21 0983                                              __ptext13 0E11  
                                            __ptext30 07FF                                              __ptext22 0995  
                                            __ptext14 09B2                                              __ptext31 0763  
                                            __ptext23 0CC1                                              __ptext15 09AC  
                                            __ptext40 0463                                              __ptext32 0DD4  
                                            __ptext24 0BFC                                              __ptext16 09A6  
                                            __ptext41 09FF                                              __ptext33 09D1  
                                            __ptext25 09DF                                              __ptext17 09A0  
                                            __ptext50 0A6A                                              __ptext42 0A9C  
                                            __ptext34 09CA                                              __ptext26 0B5A  
                                            __ptext18 099A                                              __ptext51 098B  
                                            __ptext43 0A3D                                              __ptext35 06E2  
                                            __ptext27 052A                                              __ptext19 0C39  
                                            __ptext60 0F93                                              __ptext52 0EDA  
                                            __ptext44 05C5                                              __ptext36 005C  
                                            __ptext28 09D8                                              __ptext61 0B41  
                                            __ptext53 0F2C                                              __ptext45 0B8D  
                                            __ptext37 0971                                              __ptext29 0CE8  
                                            __ptext70 0BC1                                              __ptext62 0280  
                                            __ptext54 0E50                                              __ptext46 0A08  
                                            __ptext38 096E                                              __ptext71 09F6  
                                            __ptext63 0C1A                                              __ptext55 0398  
                                            __ptext47 0A14                                              __ptext39 0990  
                                            __ptext80 0B73                                              __ptext72 097F  
                                            __ptext64 0BDE                                              __ptext56 065D  
                                            __ptext48 09E6                                              __ptext73 0D10  
                                            __ptext65 0C58                                              __ptext57 07D4  
                                            __ptext49 0D68                                              __ptext66 0A2E  
                                            __ptext58 0C9A                                              __ptext75 0C78  
                                            __ptext67 0B12                                              __ptext59 0A7A  
                                            __ptext76 0D9B                                              __ptext68 0AE7  
                                            __ptext77 097B                                              __ptext69 0B29  
                                            __ptext78 096D                                              __ptext79 0977  
               __end_of_Proximity_Baseline_Get_helper 0C78                __size_of_Proximity_Baseline_Get_helper 0020  
                       _Proximity_Baseline_Get_helper 0C58                             __end_of_MTOUCH_Initialize 0A2E  
                           ??_Sensor_RawSample_Update 0075                            __size_of_Sensor_setSampled 0007  
                                       __size_of_main 0046                        ??_MTOUCH_Proximity_Reading_Get 0076  
                     ??_MTOUCH_Proximity_Baseline_Get 007A                           __size_of_EUSART_is_tx_ready 0009  
                     __end_of_MTOUCH_Sensor_SampleAll 0B73                      Sensor_Scanfrequency_Evaluation@i 003A  
                   __end_of_Proximity_State_Activated 0F93                               ?_EUSART_SetErrorHandler 0071  
       EUSART_SetOverrunErrorHandler@interruptHandler 0071                      __end_of_Proximity_Reading_Update 0A8B  
                                            int$flags 007E                   __end_of_MTOUCH_Proximity_ServiceAll 0990  
                         _MTOUCH_Proximity_ServiceAll 098B                                     ??_TMR2_StartTimer 0071  
                  __end_of_INTERRUPT_InterruptManager 002D                            _INTERRUPT_InterruptManager 0004  
               __end_of_EUSART_SetFramingErrorHandler 09A6                __size_of_EUSART_SetFramingErrorHandler 0006  
                       _EUSART_SetFramingErrorHandler 09A0                          MTOUCH_Sensor_SampleAll@group 0047  
                        ?_MTOUCH_Sensor_InitializeAll 0070                                      ?_Sensor_isActive 0070  
              __end_of_MTOUCH_Proximity_Threshold_Set 0BDE               __size_of_MTOUCH_Proximity_Threshold_Set 001D  
                      _MTOUCH_Proximity_Threshold_Set 0BC1                                            _INTCONbits 000B  
                               ?_EUSART_RxDataHandler 0070                                         _mtouch_sensor 00BE  
                                            memcpy@d1 0079                 __end_of_Proximity_Baseline_Initialize 07FF  
              __size_of_Proximity_Baseline_Initialize 002B                         _Proximity_Baseline_Initialize 07D4  
                                            memcpy@s1 0071                      __end_of_Sensor_getScanGroupIndex 0D9B  
                                   __CFG_BOREN$NSLEEP 0000                                           _MTOUCH_Tick 0983  
                             __size_of_WDT_Initialize 0004                                              intlevel1 0000  
                         __size_of_Sensor_Acquisition 0071               __end_of_Sensor_Scanfrequency_Evaluation 0763  
            __size_of_Sensor_Scanfrequency_Evaluation 0081                     ??_Sensor_Scanfrequency_Evaluation 002F  
                    ?_Sensor_Scanfrequency_Evaluation 002E                       _Sensor_Scanfrequency_Evaluation 06E2  
                             ?_PIN_MANAGER_Initialize 0070                           ??_Sensor_setCalibratAcqTime 0071  
                      __end_of_EUSART_SetErrorHandler 09A0                                     __CFG_CLKOUTEN$OFF 0000  
                         ?_MTOUCH_Sensor_isCalibrated 0070                            __size_of_EUSART_is_tx_done 0004  
                __end_of_EUSART_SetRxInterruptHandler 09B2                 __size_of_EUSART_SetRxInterruptHandler 0006  
                        _EUSART_SetRxInterruptHandler 09AC                                    _EUSART_Receive_ISR 0D9B  
       EUSART_SetFramingErrorHandler@interruptHandler 0071                          __end_of_Sensor_Sampled_Reset 09E6  
                                    ??_TMR2_StopTimer 0071                       __end_of_TMR2_LoadPeriodRegister 0995  
                                       __pstringtext1 1012                                         __pstringtext2 1017  
                                       __pstringtext3 1000                           ??_Proximity_Baseline_Update 0071  
                                 ?_EUSART_Receive_ISR 0070                         ??_MTOUCH_Sensor_InitializeAll 0079  
                Sensor_Acq_ExecutePacket@activeSensor 0027                      __size_of_MTOUCH_Sensor_Calibrate 0013  
                              ??_MTOUCH_Sensor_Enable 0075                     Sensor_isCalibratingAcqTime@sensor 0071  
                        __size_of_Sensor_isCalibrated 0009                              ??_Sensor_DefaultCallback 0072  
                        __end_of_Sensor_setCalibrated 0A14                                    EUSART_Write@txData 0072  
                        __size_of_EUSART_Transmit_ISR 0022                            __size_of_MTOUCH_Initialize 000D  
                      __end_of_PIN_MANAGER_Initialize 0BC1                     MTOUCH_Proximity_Baseline_Get@name 007A  
                                ??_EUSART_Receive_ISR 0071                            ??_MTOUCH_Sensor_wasSampled 0075  
                       Proximity_Baseline_Update@prox 0075                        ?_Proximity_Baseline_Get_helper 0071  
