

Microchip MPLAB XC8 Assembler V2.10 build 88905656 
                                                                                               Tue Nov 05 01:05:13 2019

Microchip MPLAB XC8 C Compiler v2.10 (Free license) build 20190730164152 Og1 
     1                           	processor	16LF1559
     2                           	opt	pw 120
     3                           	opt	flic
     4                           	psect	idataBANK0,global,class=CODE,delta=2
     5                           	psect	idataBANK1,global,class=CODE,delta=2
     6                           	psect	stringtext1,global,class=STRCODE,delta=2
     7                           	psect	stringtext2,global,class=STRCODE,delta=2
     8                           	psect	stringtext3,global,class=STRCODE,delta=2
     9                           	psect	nvBANK0,global,class=BANK0,space=1,delta=1
    10                           	psect	nvBANK1,global,class=BANK1,space=1,delta=1
    11                           	psect	cinit,global,class=CODE,merge=1,delta=2
    12                           	psect	bssCOMMON,global,class=COMMON,space=1,delta=1
    13                           	psect	bssBANK0,global,class=BANK0,space=1,delta=1
    14                           	psect	dataBANK0,global,class=BANK0,space=1,delta=1
    15                           	psect	bssBANK1,global,class=BANK1,space=1,delta=1
    16                           	psect	dataBANK1,global,class=BANK1,space=1,delta=1
    17                           	psect	inittext,global,class=CODE,delta=2
    18                           	psect	clrtext,global,class=CODE,delta=2
    19                           	psect	cstackCOMMON,global,class=COMMON,space=1,delta=1
    20                           	psect	cstackBANK0,global,class=BANK0,space=1,delta=1
    21                           	psect	maintext,global,class=CODE,merge=1,split=1,delta=2
    22                           	psect	text1,local,class=CODE,merge=1,delta=2
    23                           	psect	text2,local,class=CODE,merge=1,delta=2
    24                           	psect	text3,local,class=CODE,merge=1,delta=2
    25                           	psect	text4,local,class=CODE,merge=1,delta=2
    26                           	psect	text5,local,class=CODE,merge=1,delta=2
    27                           	psect	text6,local,class=CODE,merge=1,delta=2
    28                           	psect	text7,local,class=CODE,merge=1,delta=2
    29                           	psect	text8,local,class=CODE,merge=1,delta=2
    30                           	psect	text9,local,class=CODE,merge=1,delta=2
    31                           	psect	text10,local,class=CODE,merge=1,delta=2
    32                           	psect	text11,local,class=CODE,merge=1,delta=2
    33                           	psect	text12,local,class=CODE,merge=1,delta=2,group=2
    34                           	psect	text13,local,class=CODE,merge=1,delta=2
    35                           	psect	text14,local,class=CODE,merge=1,delta=2
    36                           	psect	text15,local,class=CODE,merge=1,delta=2
    37                           	psect	text16,local,class=CODE,merge=1,delta=2
    38                           	psect	text17,local,class=CODE,merge=1,delta=2
    39                           	psect	text18,local,class=CODE,merge=1,delta=2
    40                           	psect	text19,local,class=CODE,merge=1,delta=2
    41                           	psect	text20,local,class=CODE,merge=1,delta=2
    42                           	psect	text21,local,class=CODE,merge=1,delta=2
    43                           	psect	text22,local,class=CODE,merge=1,delta=2
    44                           	psect	text23,local,class=CODE,merge=1,delta=2
    45                           	psect	text24,local,class=CODE,merge=1,delta=2
    46                           	psect	text25,local,class=CODE,merge=1,delta=2
    47                           	psect	text26,local,class=CODE,merge=1,inline,delta=2
    48                           	psect	text27,local,class=CODE,merge=1,delta=2
    49                           	psect	text28,local,class=CODE,merge=1,delta=2
    50                           	psect	text29,local,class=CODE,merge=1,inline,delta=2
    51                           	psect	text30,local,class=CODE,merge=1,delta=2
    52                           	psect	text31,local,class=CODE,merge=1,delta=2
    53                           	psect	text32,local,class=CODE,merge=1,delta=2
    54                           	psect	text33,local,class=CODE,merge=1,delta=2
    55                           	psect	text34,local,class=CODE,merge=1,inline,delta=2
    56                           	psect	text35,local,class=CODE,merge=1,inline,delta=2
    57                           	psect	text36,local,class=CODE,merge=1,delta=2
    58                           	psect	text37,local,class=CODE,merge=1,delta=2
    59                           	psect	text38,local,class=CODE,merge=1,delta=2
    60                           	psect	text39,local,class=CODE,merge=1,delta=2
    61                           	psect	text40,local,class=CODE,merge=1,delta=2
    62                           	psect	text41,local,class=CODE,merge=1,delta=2
    63                           	psect	text42,local,class=CODE,merge=1,inline,delta=2
    64                           	psect	text43,local,class=CODE,merge=1,delta=2
    65                           	psect	text44,local,class=CODE,merge=1,inline,delta=2
    66                           	psect	text45,local,class=CODE,merge=1,delta=2
    67                           	psect	text46,local,class=CODE,merge=1,delta=2,group=2
    68                           	psect	text47,local,class=CODE,merge=1,inline,delta=2
    69                           	psect	text48,local,class=CODE,merge=1,inline,delta=2
    70                           	psect	text49,local,class=CODE,merge=1,inline,delta=2
    71                           	psect	text50,local,class=CODE,merge=1,delta=2
    72                           	psect	text51,local,class=CODE,merge=1,delta=2
    73                           	psect	text52,local,class=CODE,merge=1,delta=2
    74                           	psect	text53,local,class=CODE,merge=1,delta=2
    75                           	psect	text54,local,class=CODE,merge=1,delta=2
    76                           	psect	text55,local,class=CODE,merge=1,delta=2
    77                           	psect	text56,local,class=CODE,merge=1,delta=2
    78                           	psect	text57,local,class=CODE,merge=1,delta=2
    79                           	psect	text58,local,class=CODE,merge=1,delta=2
    80                           	psect	text59,local,class=CODE,merge=1,delta=2
    81                           	psect	text60,local,class=CODE,merge=1,delta=2
    82                           	psect	text61,local,class=CODE,merge=1,delta=2
    83                           	psect	text62,local,class=CODE,merge=1,delta=2
    84                           	psect	text63,local,class=CODE,merge=1,delta=2
    85                           	psect	text64,local,class=CODE,merge=1,delta=2
    86                           	psect	text65,local,class=CODE,merge=1,delta=2
    87                           	psect	text66,local,class=CODE,merge=1,delta=2
    88                           	psect	text67,local,class=CODE,merge=1,delta=2
    89                           	psect	text68,local,class=CODE,merge=1,inline,delta=2
    90                           	psect	text69,local,class=CODE,merge=1,delta=2
    91                           	psect	text70,local,class=CODE,merge=1,delta=2,group=1
    92                           	psect	text71,local,class=CODE,merge=1,delta=2
    93                           	psect	text72,local,class=CODE,merge=1,delta=2
    94                           	psect	text73,local,class=CODE,merge=1,delta=2,group=1
    95                           	psect	text74,local,class=CODE,merge=1,delta=2
    96                           	psect	text75,local,class=CODE,merge=1,delta=2
    97                           	psect	text76,local,class=CODE,merge=1,delta=2
    98                           	psect	text77,local,class=CODE,merge=1,delta=2
    99                           	psect	text78,local,class=CODE,merge=1,delta=2
   100                           	psect	text79,local,class=CODE,merge=1,delta=2
   101                           	psect	text80,local,class=CODE,merge=1,delta=2
   102                           	psect	intentry,global,class=CODE,delta=2
   103                           	psect	text82,local,class=CODE,merge=1,delta=2
   104                           	psect	text83,local,class=CODE,merge=1,delta=2
   105                           	psect	text84,local,class=CODE,merge=1,delta=2
   106                           	psect	text85,local,class=CODE,merge=1,delta=2
   107                           	psect	text86,local,class=CODE,merge=1,delta=2
   108                           	psect	text87,local,class=CODE,merge=1,delta=2
   109                           	dabs	1,0x7E,2
   110  0000                     
   111                           ; Version 2.10
   112                           ; Generated 31/07/2019 GMT
   113                           ; 
   114                           ; Copyright © 2019, Microchip Technology Inc. and its subsidiaries ("Microchip")
   115                           ; All rights reserved.
   116                           ; 
   117                           ; This software is developed by Microchip Technology Inc. and its subsidiaries ("Microch
      +                          ip").
   118                           ; 
   119                           ; Redistribution and use in source and binary forms, with or without modification, are
   120                           ; permitted provided that the following conditions are met:
   121                           ; 
   122                           ;     1. Redistributions of source code must retain the above copyright notice, this lis
      +                          t of
   123                           ;        conditions and the following disclaimer.
   124                           ; 
   125                           ;     2. Redistributions in binary form must reproduce the above copyright notice, this 
      +                          list
   126                           ;        of conditions and the following disclaimer in the documentation and/or other
   127                           ;        materials provided with the distribution.
   128                           ; 
   129                           ;     3. Microchip's name may not be used to endorse or promote products derived from th
      +                          is
   130                           ;        software without specific prior written permission.
   131                           ; 
   132                           ; THIS SOFTWARE IS PROVIDED BY MICROCHIP "AS IS" AND ANY EXPRESS OR IMPLIED WARRANTIES,
   133                           ; INCLUDING, BUT NOT LIMITED TO, THE IMPLIED WARRANTIES OF MERCHANTABILITY AND FITNESS F
      +                          OR
   134                           ; PURPOSE ARE DISCLAIMED.  IN NO EVENT SHALL MICROCHIP BE LIABLE FOR ANY DIRECT, INDIREC
      +                          T,
   135                           ; INCIDENTAL, SPECIAL, EXEMPLARY, OR CONSEQUENTIAL DAMAGES (INCLUDING BUT NOT LIMITED TO
   136                           ; PROCUREMENT OF SUBSTITUTE GOODS OR SERVICES; LOSS OF USE, DATA OR PROFITS; OR BUSINESS
   137                           ; INTERRUPTION) HOWSOEVER CAUSED AND ON ANY THEORY OF LIABILITY, WHETHER IN CONTRACT, ST
      +                          RICT
   138                           ; LIABILITY, OR TORT (INCLUDING NEGLIGENCE OR OTHERWISE) ARISING IN ANY WAY OUT OF THE U
      +                          SE OF
   139                           ; THIS SOFTWARE, EVEN IF ADVISED OF THE POSSIBILITY OF SUCH DAMAGE.
   140                           ; 
   141                           ; 
   142                           ; Code-generator required, PIC16LF1559 Definitions
   143                           ; 
   144                           ; SFR Addresses
   145  0000                     	;# 
   146  0001                     	;# 
   147  0002                     	;# 
   148  0003                     	;# 
   149  0004                     	;# 
   150  0005                     	;# 
   151  0006                     	;# 
   152  0007                     	;# 
   153  0008                     	;# 
   154  0009                     	;# 
   155  000A                     	;# 
   156  000B                     	;# 
   157  000C                     	;# 
   158  000D                     	;# 
   159  000E                     	;# 
   160  0011                     	;# 
   161  0012                     	;# 
   162  0015                     	;# 
   163  0016                     	;# 
   164  0016                     	;# 
   165  0017                     	;# 
   166  0018                     	;# 
   167  0019                     	;# 
   168  001A                     	;# 
   169  001B                     	;# 
   170  001C                     	;# 
   171  008C                     	;# 
   172  008D                     	;# 
   173  008E                     	;# 
   174  0091                     	;# 
   175  0092                     	;# 
   176  0095                     	;# 
   177  0096                     	;# 
   178  0097                     	;# 
   179  0099                     	;# 
   180  009A                     	;# 
   181  009B                     	;# 
   182  009B                     	;# 
   183  009C                     	;# 
   184  009D                     	;# 
   185  009E                     	;# 
   186  009F                     	;# 
   187  010C                     	;# 
   188  010D                     	;# 
   189  010E                     	;# 
   190  0116                     	;# 
   191  0117                     	;# 
   192  011D                     	;# 
   193  018C                     	;# 
   194  018D                     	;# 
   195  018E                     	;# 
   196  0191                     	;# 
   197  0191                     	;# 
   198  0192                     	;# 
   199  0193                     	;# 
   200  0193                     	;# 
   201  0194                     	;# 
   202  0195                     	;# 
   203  0196                     	;# 
   204  0199                     	;# 
   205  019A                     	;# 
   206  019B                     	;# 
   207  019B                     	;# 
   208  019C                     	;# 
   209  019D                     	;# 
   210  019E                     	;# 
   211  019F                     	;# 
   212  020C                     	;# 
   213  020D                     	;# 
   214  0211                     	;# 
   215  0211                     	;# 
   216  0212                     	;# 
   217  0212                     	;# 
   218  0213                     	;# 
   219  0213                     	;# 
   220  0214                     	;# 
   221  0214                     	;# 
   222  0215                     	;# 
   223  0215                     	;# 
   224  0215                     	;# 
   225  0216                     	;# 
   226  0216                     	;# 
   227  0217                     	;# 
   228  0217                     	;# 
   229  0391                     	;# 
   230  0392                     	;# 
   231  0393                     	;# 
   232  0394                     	;# 
   233  0395                     	;# 
   234  0396                     	;# 
   235  0611                     	;# 
   236  0612                     	;# 
   237  0613                     	;# 
   238  0613                     	;# 
   239  0614                     	;# 
   240  0615                     	;# 
   241  0616                     	;# 
   242  0616                     	;# 
   243  0711                     	;# 
   244  0711                     	;# 
   245  0711                     	;# 
   246  0712                     	;# 
   247  0712                     	;# 
   248  0713                     	;# 
   249  0713                     	;# 
   250  0713                     	;# 
   251  0714                     	;# 
   252  0714                     	;# 
   253  0714                     	;# 
   254  0715                     	;# 
   255  0715                     	;# 
   256  0716                     	;# 
   257  0716                     	;# 
   258  0716                     	;# 
   259  0716                     	;# 
   260  0717                     	;# 
   261  0717                     	;# 
   262  0717                     	;# 
   263  0717                     	;# 
   264  0718                     	;# 
   265  0718                     	;# 
   266  0718                     	;# 
   267  0719                     	;# 
   268  0719                     	;# 
   269  0719                     	;# 
   270  0719                     	;# 
   271  071A                     	;# 
   272  071A                     	;# 
   273  071A                     	;# 
   274  071A                     	;# 
   275  071A                     	;# 
   276  071B                     	;# 
   277  071B                     	;# 
   278  071C                     	;# 
   279  071C                     	;# 
   280  071C                     	;# 
   281  071C                     	;# 
   282  071C                     	;# 
   283  071D                     	;# 
   284  071D                     	;# 
   285  071E                     	;# 
   286  071E                     	;# 
   287  0791                     	;# 
   288  0791                     	;# 
   289  0793                     	;# 
   290  0793                     	;# 
   291  0794                     	;# 
   292  0794                     	;# 
   293  0796                     	;# 
   294  0796                     	;# 
   295  0796                     	;# 
   296  0797                     	;# 
   297  0797                     	;# 
   298  0797                     	;# 
   299  0798                     	;# 
   300  0798                     	;# 
   301  0799                     	;# 
   302  0799                     	;# 
   303  0799                     	;# 
   304  079A                     	;# 
   305  079A                     	;# 
   306  079A                     	;# 
   307  079B                     	;# 
   308  079C                     	;# 
   309  079C                     	;# 
   310  079C                     	;# 
   311  079D                     	;# 
   312  079E                     	;# 
   313  079E                     	;# 
   314  0F8C                     	;# 
   315  0F8D                     	;# 
   316  0F91                     	;# 
   317  0F96                     	;# 
   318  0F97                     	;# 
   319  0F9C                     	;# 
   320  0F9D                     	;# 
   321  0F9E                     	;# 
   322  0FE3                     	;# 
   323  0FE4                     	;# 
   324  0FE5                     	;# 
   325  0FE6                     	;# 
   326  0FE7                     	;# 
   327  0FE8                     	;# 
   328  0FE9                     	;# 
   329  0FEA                     	;# 
   330  0FEB                     	;# 
   331  0FED                     	;# 
   332  0FEE                     	;# 
   333  0FEF                     	;# 
   334  0000                     	;# 
   335  0001                     	;# 
   336  0002                     	;# 
   337  0003                     	;# 
   338  0004                     	;# 
   339  0005                     	;# 
   340  0006                     	;# 
   341  0007                     	;# 
   342  0008                     	;# 
   343  0009                     	;# 
   344  000A                     	;# 
   345  000B                     	;# 
   346  000C                     	;# 
   347  000D                     	;# 
   348  000E                     	;# 
   349  0011                     	;# 
   350  0012                     	;# 
   351  0015                     	;# 
   352  0016                     	;# 
   353  0016                     	;# 
   354  0017                     	;# 
   355  0018                     	;# 
   356  0019                     	;# 
   357  001A                     	;# 
   358  001B                     	;# 
   359  001C                     	;# 
   360  008C                     	;# 
   361  008D                     	;# 
   362  008E                     	;# 
   363  0091                     	;# 
   364  0092                     	;# 
   365  0095                     	;# 
   366  0096                     	;# 
   367  0097                     	;# 
   368  0099                     	;# 
   369  009A                     	;# 
   370  009B                     	;# 
   371  009B                     	;# 
   372  009C                     	;# 
   373  009D                     	;# 
   374  009E                     	;# 
   375  009F                     	;# 
   376  010C                     	;# 
   377  010D                     	;# 
   378  010E                     	;# 
   379  0116                     	;# 
   380  0117                     	;# 
   381  011D                     	;# 
   382  018C                     	;# 
   383  018D                     	;# 
   384  018E                     	;# 
   385  0191                     	;# 
   386  0191                     	;# 
   387  0192                     	;# 
   388  0193                     	;# 
   389  0193                     	;# 
   390  0194                     	;# 
   391  0195                     	;# 
   392  0196                     	;# 
   393  0199                     	;# 
   394  019A                     	;# 
   395  019B                     	;# 
   396  019B                     	;# 
   397  019C                     	;# 
   398  019D                     	;# 
   399  019E                     	;# 
   400  019F                     	;# 
   401  020C                     	;# 
   402  020D                     	;# 
   403  0211                     	;# 
   404  0211                     	;# 
   405  0212                     	;# 
   406  0212                     	;# 
   407  0213                     	;# 
   408  0213                     	;# 
   409  0214                     	;# 
   410  0214                     	;# 
   411  0215                     	;# 
   412  0215                     	;# 
   413  0215                     	;# 
   414  0216                     	;# 
   415  0216                     	;# 
   416  0217                     	;# 
   417  0217                     	;# 
   418  0391                     	;# 
   419  0392                     	;# 
   420  0393                     	;# 
   421  0394                     	;# 
   422  0395                     	;# 
   423  0396                     	;# 
   424  0611                     	;# 
   425  0612                     	;# 
   426  0613                     	;# 
   427  0613                     	;# 
   428  0614                     	;# 
   429  0615                     	;# 
   430  0616                     	;# 
   431  0616                     	;# 
   432  0711                     	;# 
   433  0711                     	;# 
   434  0711                     	;# 
   435  0712                     	;# 
   436  0712                     	;# 
   437  0713                     	;# 
   438  0713                     	;# 
   439  0713                     	;# 
   440  0714                     	;# 
   441  0714                     	;# 
   442  0714                     	;# 
   443  0715                     	;# 
   444  0715                     	;# 
   445  0716                     	;# 
   446  0716                     	;# 
   447  0716                     	;# 
   448  0716                     	;# 
   449  0717                     	;# 
   450  0717                     	;# 
   451  0717                     	;# 
   452  0717                     	;# 
   453  0718                     	;# 
   454  0718                     	;# 
   455  0718                     	;# 
   456  0719                     	;# 
   457  0719                     	;# 
   458  0719                     	;# 
   459  0719                     	;# 
   460  071A                     	;# 
   461  071A                     	;# 
   462  071A                     	;# 
   463  071A                     	;# 
   464  071A                     	;# 
   465  071B                     	;# 
   466  071B                     	;# 
   467  071C                     	;# 
   468  071C                     	;# 
   469  071C                     	;# 
   470  071C                     	;# 
   471  071C                     	;# 
   472  071D                     	;# 
   473  071D                     	;# 
   474  071E                     	;# 
   475  071E                     	;# 
   476  0791                     	;# 
   477  0791                     	;# 
   478  0793                     	;# 
   479  0793                     	;# 
   480  0794                     	;# 
   481  0794                     	;# 
   482  0796                     	;# 
   483  0796                     	;# 
   484  0796                     	;# 
   485  0797                     	;# 
   486  0797                     	;# 
   487  0797                     	;# 
   488  0798                     	;# 
   489  0798                     	;# 
   490  0799                     	;# 
   491  0799                     	;# 
   492  0799                     	;# 
   493  079A                     	;# 
   494  079A                     	;# 
   495  079A                     	;# 
   496  079B                     	;# 
   497  079C                     	;# 
   498  079C                     	;# 
   499  079C                     	;# 
   500  079D                     	;# 
   501  079E                     	;# 
   502  079E                     	;# 
   503  0F8C                     	;# 
   504  0F8D                     	;# 
   505  0F91                     	;# 
   506  0F96                     	;# 
   507  0F97                     	;# 
   508  0F9C                     	;# 
   509  0F9D                     	;# 
   510  0F9E                     	;# 
   511  0FE3                     	;# 
   512  0FE4                     	;# 
   513  0FE5                     	;# 
   514  0FE6                     	;# 
   515  0FE7                     	;# 
   516  0FE8                     	;# 
   517  0FE9                     	;# 
   518  0FEA                     	;# 
   519  0FEB                     	;# 
   520  0FED                     	;# 
   521  0FEE                     	;# 
   522  0FEF                     	;# 
   523  0000                     	;# 
   524  0001                     	;# 
   525  0002                     	;# 
   526  0003                     	;# 
   527  0004                     	;# 
   528  0005                     	;# 
   529  0006                     	;# 
   530  0007                     	;# 
   531  0008                     	;# 
   532  0009                     	;# 
   533  000A                     	;# 
   534  000B                     	;# 
   535  000C                     	;# 
   536  000D                     	;# 
   537  000E                     	;# 
   538  0011                     	;# 
   539  0012                     	;# 
   540  0015                     	;# 
   541  0016                     	;# 
   542  0016                     	;# 
   543  0017                     	;# 
   544  0018                     	;# 
   545  0019                     	;# 
   546  001A                     	;# 
   547  001B                     	;# 
   548  001C                     	;# 
   549  008C                     	;# 
   550  008D                     	;# 
   551  008E                     	;# 
   552  0091                     	;# 
   553  0092                     	;# 
   554  0095                     	;# 
   555  0096                     	;# 
   556  0097                     	;# 
   557  0099                     	;# 
   558  009A                     	;# 
   559  009B                     	;# 
   560  009B                     	;# 
   561  009C                     	;# 
   562  009D                     	;# 
   563  009E                     	;# 
   564  009F                     	;# 
   565  010C                     	;# 
   566  010D                     	;# 
   567  010E                     	;# 
   568  0116                     	;# 
   569  0117                     	;# 
   570  011D                     	;# 
   571  018C                     	;# 
   572  018D                     	;# 
   573  018E                     	;# 
   574  0191                     	;# 
   575  0191                     	;# 
   576  0192                     	;# 
   577  0193                     	;# 
   578  0193                     	;# 
   579  0194                     	;# 
   580  0195                     	;# 
   581  0196                     	;# 
   582  0199                     	;# 
   583  019A                     	;# 
   584  019B                     	;# 
   585  019B                     	;# 
   586  019C                     	;# 
   587  019D                     	;# 
   588  019E                     	;# 
   589  019F                     	;# 
   590  020C                     	;# 
   591  020D                     	;# 
   592  0211                     	;# 
   593  0211                     	;# 
   594  0212                     	;# 
   595  0212                     	;# 
   596  0213                     	;# 
   597  0213                     	;# 
   598  0214                     	;# 
   599  0214                     	;# 
   600  0215                     	;# 
   601  0215                     	;# 
   602  0215                     	;# 
   603  0216                     	;# 
   604  0216                     	;# 
   605  0217                     	;# 
   606  0217                     	;# 
   607  0391                     	;# 
   608  0392                     	;# 
   609  0393                     	;# 
   610  0394                     	;# 
   611  0395                     	;# 
   612  0396                     	;# 
   613  0611                     	;# 
   614  0612                     	;# 
   615  0613                     	;# 
   616  0613                     	;# 
   617  0614                     	;# 
   618  0615                     	;# 
   619  0616                     	;# 
   620  0616                     	;# 
   621  0711                     	;# 
   622  0711                     	;# 
   623  0711                     	;# 
   624  0712                     	;# 
   625  0712                     	;# 
   626  0713                     	;# 
   627  0713                     	;# 
   628  0713                     	;# 
   629  0714                     	;# 
   630  0714                     	;# 
   631  0714                     	;# 
   632  0715                     	;# 
   633  0715                     	;# 
   634  0716                     	;# 
   635  0716                     	;# 
   636  0716                     	;# 
   637  0716                     	;# 
   638  0717                     	;# 
   639  0717                     	;# 
   640  0717                     	;# 
   641  0717                     	;# 
   642  0718                     	;# 
   643  0718                     	;# 
   644  0718                     	;# 
   645  0719                     	;# 
   646  0719                     	;# 
   647  0719                     	;# 
   648  0719                     	;# 
   649  071A                     	;# 
   650  071A                     	;# 
   651  071A                     	;# 
   652  071A                     	;# 
   653  071A                     	;# 
   654  071B                     	;# 
   655  071B                     	;# 
   656  071C                     	;# 
   657  071C                     	;# 
   658  071C                     	;# 
   659  071C                     	;# 
   660  071C                     	;# 
   661  071D                     	;# 
   662  071D                     	;# 
   663  071E                     	;# 
   664  071E                     	;# 
   665  0791                     	;# 
   666  0791                     	;# 
   667  0793                     	;# 
   668  0793                     	;# 
   669  0794                     	;# 
   670  0794                     	;# 
   671  0796                     	;# 
   672  0796                     	;# 
   673  0796                     	;# 
   674  0797                     	;# 
   675  0797                     	;# 
   676  0797                     	;# 
   677  0798                     	;# 
   678  0798                     	;# 
   679  0799                     	;# 
   680  0799                     	;# 
   681  0799                     	;# 
   682  079A                     	;# 
   683  079A                     	;# 
   684  079A                     	;# 
   685  079B                     	;# 
   686  079C                     	;# 
   687  079C                     	;# 
   688  079C                     	;# 
   689  079D                     	;# 
   690  079E                     	;# 
   691  079E                     	;# 
   692  0F8C                     	;# 
   693  0F8D                     	;# 
   694  0F91                     	;# 
   695  0F96                     	;# 
   696  0F97                     	;# 
   697  0F9C                     	;# 
   698  0F9D                     	;# 
   699  0F9E                     	;# 
   700  0FE3                     	;# 
   701  0FE4                     	;# 
   702  0FE5                     	;# 
   703  0FE6                     	;# 
   704  0FE7                     	;# 
   705  0FE8                     	;# 
   706  0FE9                     	;# 
   707  0FEA                     	;# 
   708  0FEB                     	;# 
   709  0FED                     	;# 
   710  0FEE                     	;# 
   711  0FEF                     	;# 
   712  0000                     	;# 
   713  0001                     	;# 
   714  0002                     	;# 
   715  0003                     	;# 
   716  0004                     	;# 
   717  0005                     	;# 
   718  0006                     	;# 
   719  0007                     	;# 
   720  0008                     	;# 
   721  0009                     	;# 
   722  000A                     	;# 
   723  000B                     	;# 
   724  000C                     	;# 
   725  000D                     	;# 
   726  000E                     	;# 
   727  0011                     	;# 
   728  0012                     	;# 
   729  0015                     	;# 
   730  0016                     	;# 
   731  0016                     	;# 
   732  0017                     	;# 
   733  0018                     	;# 
   734  0019                     	;# 
   735  001A                     	;# 
   736  001B                     	;# 
   737  001C                     	;# 
   738  008C                     	;# 
   739  008D                     	;# 
   740  008E                     	;# 
   741  0091                     	;# 
   742  0092                     	;# 
   743  0095                     	;# 
   744  0096                     	;# 
   745  0097                     	;# 
   746  0099                     	;# 
   747  009A                     	;# 
   748  009B                     	;# 
   749  009B                     	;# 
   750  009C                     	;# 
   751  009D                     	;# 
   752  009E                     	;# 
   753  009F                     	;# 
   754  010C                     	;# 
   755  010D                     	;# 
   756  010E                     	;# 
   757  0116                     	;# 
   758  0117                     	;# 
   759  011D                     	;# 
   760  018C                     	;# 
   761  018D                     	;# 
   762  018E                     	;# 
   763  0191                     	;# 
   764  0191                     	;# 
   765  0192                     	;# 
   766  0193                     	;# 
   767  0193                     	;# 
   768  0194                     	;# 
   769  0195                     	;# 
   770  0196                     	;# 
   771  0199                     	;# 
   772  019A                     	;# 
   773  019B                     	;# 
   774  019B                     	;# 
   775  019C                     	;# 
   776  019D                     	;# 
   777  019E                     	;# 
   778  019F                     	;# 
   779  020C                     	;# 
   780  020D                     	;# 
   781  0211                     	;# 
   782  0211                     	;# 
   783  0212                     	;# 
   784  0212                     	;# 
   785  0213                     	;# 
   786  0213                     	;# 
   787  0214                     	;# 
   788  0214                     	;# 
   789  0215                     	;# 
   790  0215                     	;# 
   791  0215                     	;# 
   792  0216                     	;# 
   793  0216                     	;# 
   794  0217                     	;# 
   795  0217                     	;# 
   796  0391                     	;# 
   797  0392                     	;# 
   798  0393                     	;# 
   799  0394                     	;# 
   800  0395                     	;# 
   801  0396                     	;# 
   802  0611                     	;# 
   803  0612                     	;# 
   804  0613                     	;# 
   805  0613                     	;# 
   806  0614                     	;# 
   807  0615                     	;# 
   808  0616                     	;# 
   809  0616                     	;# 
   810  0711                     	;# 
   811  0711                     	;# 
   812  0711                     	;# 
   813  0712                     	;# 
   814  0712                     	;# 
   815  0713                     	;# 
   816  0713                     	;# 
   817  0713                     	;# 
   818  0714                     	;# 
   819  0714                     	;# 
   820  0714                     	;# 
   821  0715                     	;# 
   822  0715                     	;# 
   823  0716                     	;# 
   824  0716                     	;# 
   825  0716                     	;# 
   826  0716                     	;# 
   827  0717                     	;# 
   828  0717                     	;# 
   829  0717                     	;# 
   830  0717                     	;# 
   831  0718                     	;# 
   832  0718                     	;# 
   833  0718                     	;# 
   834  0719                     	;# 
   835  0719                     	;# 
   836  0719                     	;# 
   837  0719                     	;# 
   838  071A                     	;# 
   839  071A                     	;# 
   840  071A                     	;# 
   841  071A                     	;# 
   842  071A                     	;# 
   843  071B                     	;# 
   844  071B                     	;# 
   845  071C                     	;# 
   846  071C                     	;# 
   847  071C                     	;# 
   848  071C                     	;# 
   849  071C                     	;# 
   850  071D                     	;# 
   851  071D                     	;# 
   852  071E                     	;# 
   853  071E                     	;# 
   854  0791                     	;# 
   855  0791                     	;# 
   856  0793                     	;# 
   857  0793                     	;# 
   858  0794                     	;# 
   859  0794                     	;# 
   860  0796                     	;# 
   861  0796                     	;# 
   862  0796                     	;# 
   863  0797                     	;# 
   864  0797                     	;# 
   865  0797                     	;# 
   866  0798                     	;# 
   867  0798                     	;# 
   868  0799                     	;# 
   869  0799                     	;# 
   870  0799                     	;# 
   871  079A                     	;# 
   872  079A                     	;# 
   873  079A                     	;# 
   874  079B                     	;# 
   875  079C                     	;# 
   876  079C                     	;# 
   877  079C                     	;# 
   878  079D                     	;# 
   879  079E                     	;# 
   880  079E                     	;# 
   881  0F8C                     	;# 
   882  0F8D                     	;# 
   883  0F91                     	;# 
   884  0F96                     	;# 
   885  0F97                     	;# 
   886  0F9C                     	;# 
   887  0F9D                     	;# 
   888  0F9E                     	;# 
   889  0FE3                     	;# 
   890  0FE4                     	;# 
   891  0FE5                     	;# 
   892  0FE6                     	;# 
   893  0FE7                     	;# 
   894  0FE8                     	;# 
   895  0FE9                     	;# 
   896  0FEA                     	;# 
   897  0FEB                     	;# 
   898  0FED                     	;# 
   899  0FEE                     	;# 
   900  0FEF                     	;# 
   901  0000                     	;# 
   902  0001                     	;# 
   903  0002                     	;# 
   904  0003                     	;# 
   905  0004                     	;# 
   906  0005                     	;# 
   907  0006                     	;# 
   908  0007                     	;# 
   909  0008                     	;# 
   910  0009                     	;# 
   911  000A                     	;# 
   912  000B                     	;# 
   913  000C                     	;# 
   914  000D                     	;# 
   915  000E                     	;# 
   916  0011                     	;# 
   917  0012                     	;# 
   918  0015                     	;# 
   919  0016                     	;# 
   920  0016                     	;# 
   921  0017                     	;# 
   922  0018                     	;# 
   923  0019                     	;# 
   924  001A                     	;# 
   925  001B                     	;# 
   926  001C                     	;# 
   927  008C                     	;# 
   928  008D                     	;# 
   929  008E                     	;# 
   930  0091                     	;# 
   931  0092                     	;# 
   932  0095                     	;# 
   933  0096                     	;# 
   934  0097                     	;# 
   935  0099                     	;# 
   936  009A                     	;# 
   937  009B                     	;# 
   938  009B                     	;# 
   939  009C                     	;# 
   940  009D                     	;# 
   941  009E                     	;# 
   942  009F                     	;# 
   943  010C                     	;# 
   944  010D                     	;# 
   945  010E                     	;# 
   946  0116                     	;# 
   947  0117                     	;# 
   948  011D                     	;# 
   949  018C                     	;# 
   950  018D                     	;# 
   951  018E                     	;# 
   952  0191                     	;# 
   953  0191                     	;# 
   954  0192                     	;# 
   955  0193                     	;# 
   956  0193                     	;# 
   957  0194                     	;# 
   958  0195                     	;# 
   959  0196                     	;# 
   960  0199                     	;# 
   961  019A                     	;# 
   962  019B                     	;# 
   963  019B                     	;# 
   964  019C                     	;# 
   965  019D                     	;# 
   966  019E                     	;# 
   967  019F                     	;# 
   968  020C                     	;# 
   969  020D                     	;# 
   970  0211                     	;# 
   971  0211                     	;# 
   972  0212                     	;# 
   973  0212                     	;# 
   974  0213                     	;# 
   975  0213                     	;# 
   976  0214                     	;# 
   977  0214                     	;# 
   978  0215                     	;# 
   979  0215                     	;# 
   980  0215                     	;# 
   981  0216                     	;# 
   982  0216                     	;# 
   983  0217                     	;# 
   984  0217                     	;# 
   985  0391                     	;# 
   986  0392                     	;# 
   987  0393                     	;# 
   988  0394                     	;# 
   989  0395                     	;# 
   990  0396                     	;# 
   991  0611                     	;# 
   992  0612                     	;# 
   993  0613                     	;# 
   994  0613                     	;# 
   995  0614                     	;# 
   996  0615                     	;# 
   997  0616                     	;# 
   998  0616                     	;# 
   999  0711                     	;# 
  1000  0711                     	;# 
  1001  0711                     	;# 
  1002  0712                     	;# 
  1003  0712                     	;# 
  1004  0713                     	;# 
  1005  0713                     	;# 
  1006  0713                     	;# 
  1007  0714                     	;# 
  1008  0714                     	;# 
  1009  0714                     	;# 
  1010  0715                     	;# 
  1011  0715                     	;# 
  1012  0716                     	;# 
  1013  0716                     	;# 
  1014  0716                     	;# 
  1015  0716                     	;# 
  1016  0717                     	;# 
  1017  0717                     	;# 
  1018  0717                     	;# 
  1019  0717                     	;# 
  1020  0718                     	;# 
  1021  0718                     	;# 
  1022  0718                     	;# 
  1023  0719                     	;# 
  1024  0719                     	;# 
  1025  0719                     	;# 
  1026  0719                     	;# 
  1027  071A                     	;# 
  1028  071A                     	;# 
  1029  071A                     	;# 
  1030  071A                     	;# 
  1031  071A                     	;# 
  1032  071B                     	;# 
  1033  071B                     	;# 
  1034  071C                     	;# 
  1035  071C                     	;# 
  1036  071C                     	;# 
  1037  071C                     	;# 
  1038  071C                     	;# 
  1039  071D                     	;# 
  1040  071D                     	;# 
  1041  071E                     	;# 
  1042  071E                     	;# 
  1043  0791                     	;# 
  1044  0791                     	;# 
  1045  0793                     	;# 
  1046  0793                     	;# 
  1047  0794                     	;# 
  1048  0794                     	;# 
  1049  0796                     	;# 
  1050  0796                     	;# 
  1051  0796                     	;# 
  1052  0797                     	;# 
  1053  0797                     	;# 
  1054  0797                     	;# 
  1055  0798                     	;# 
  1056  0798                     	;# 
  1057  0799                     	;# 
  1058  0799                     	;# 
  1059  0799                     	;# 
  1060  079A                     	;# 
  1061  079A                     	;# 
  1062  079A                     	;# 
  1063  079B                     	;# 
  1064  079C                     	;# 
  1065  079C                     	;# 
  1066  079C                     	;# 
  1067  079D                     	;# 
  1068  079E                     	;# 
  1069  079E                     	;# 
  1070  0F8C                     	;# 
  1071  0F8D                     	;# 
  1072  0F91                     	;# 
  1073  0F96                     	;# 
  1074  0F97                     	;# 
  1075  0F9C                     	;# 
  1076  0F9D                     	;# 
  1077  0F9E                     	;# 
  1078  0FE3                     	;# 
  1079  0FE4                     	;# 
  1080  0FE5                     	;# 
  1081  0FE6                     	;# 
  1082  0FE7                     	;# 
  1083  0FE8                     	;# 
  1084  0FE9                     	;# 
  1085  0FEA                     	;# 
  1086  0FEB                     	;# 
  1087  0FED                     	;# 
  1088  0FEE                     	;# 
  1089  0FEF                     	;# 
  1090  0000                     	;# 
  1091  0001                     	;# 
  1092  0002                     	;# 
  1093  0003                     	;# 
  1094  0004                     	;# 
  1095  0005                     	;# 
  1096  0006                     	;# 
  1097  0007                     	;# 
  1098  0008                     	;# 
  1099  0009                     	;# 
  1100  000A                     	;# 
  1101  000B                     	;# 
  1102  000C                     	;# 
  1103  000D                     	;# 
  1104  000E                     	;# 
  1105  0011                     	;# 
  1106  0012                     	;# 
  1107  0015                     	;# 
  1108  0016                     	;# 
  1109  0016                     	;# 
  1110  0017                     	;# 
  1111  0018                     	;# 
  1112  0019                     	;# 
  1113  001A                     	;# 
  1114  001B                     	;# 
  1115  001C                     	;# 
  1116  008C                     	;# 
  1117  008D                     	;# 
  1118  008E                     	;# 
  1119  0091                     	;# 
  1120  0092                     	;# 
  1121  0095                     	;# 
  1122  0096                     	;# 
  1123  0097                     	;# 
  1124  0099                     	;# 
  1125  009A                     	;# 
  1126  009B                     	;# 
  1127  009B                     	;# 
  1128  009C                     	;# 
  1129  009D                     	;# 
  1130  009E                     	;# 
  1131  009F                     	;# 
  1132  010C                     	;# 
  1133  010D                     	;# 
  1134  010E                     	;# 
  1135  0116                     	;# 
  1136  0117                     	;# 
  1137  011D                     	;# 
  1138  018C                     	;# 
  1139  018D                     	;# 
  1140  018E                     	;# 
  1141  0191                     	;# 
  1142  0191                     	;# 
  1143  0192                     	;# 
  1144  0193                     	;# 
  1145  0193                     	;# 
  1146  0194                     	;# 
  1147  0195                     	;# 
  1148  0196                     	;# 
  1149  0199                     	;# 
  1150  019A                     	;# 
  1151  019B                     	;# 
  1152  019B                     	;# 
  1153  019C                     	;# 
  1154  019D                     	;# 
  1155  019E                     	;# 
  1156  019F                     	;# 
  1157  020C                     	;# 
  1158  020D                     	;# 
  1159  0211                     	;# 
  1160  0211                     	;# 
  1161  0212                     	;# 
  1162  0212                     	;# 
  1163  0213                     	;# 
  1164  0213                     	;# 
  1165  0214                     	;# 
  1166  0214                     	;# 
  1167  0215                     	;# 
  1168  0215                     	;# 
  1169  0215                     	;# 
  1170  0216                     	;# 
  1171  0216                     	;# 
  1172  0217                     	;# 
  1173  0217                     	;# 
  1174  0391                     	;# 
  1175  0392                     	;# 
  1176  0393                     	;# 
  1177  0394                     	;# 
  1178  0395                     	;# 
  1179  0396                     	;# 
  1180  0611                     	;# 
  1181  0612                     	;# 
  1182  0613                     	;# 
  1183  0613                     	;# 
  1184  0614                     	;# 
  1185  0615                     	;# 
  1186  0616                     	;# 
  1187  0616                     	;# 
  1188  0711                     	;# 
  1189  0711                     	;# 
  1190  0711                     	;# 
  1191  0712                     	;# 
  1192  0712                     	;# 
  1193  0713                     	;# 
  1194  0713                     	;# 
  1195  0713                     	;# 
  1196  0714                     	;# 
  1197  0714                     	;# 
  1198  0714                     	;# 
  1199  0715                     	;# 
  1200  0715                     	;# 
  1201  0716                     	;# 
  1202  0716                     	;# 
  1203  0716                     	;# 
  1204  0716                     	;# 
  1205  0717                     	;# 
  1206  0717                     	;# 
  1207  0717                     	;# 
  1208  0717                     	;# 
  1209  0718                     	;# 
  1210  0718                     	;# 
  1211  0718                     	;# 
  1212  0719                     	;# 
  1213  0719                     	;# 
  1214  0719                     	;# 
  1215  0719                     	;# 
  1216  071A                     	;# 
  1217  071A                     	;# 
  1218  071A                     	;# 
  1219  071A                     	;# 
  1220  071A                     	;# 
  1221  071B                     	;# 
  1222  071B                     	;# 
  1223  071C                     	;# 
  1224  071C                     	;# 
  1225  071C                     	;# 
  1226  071C                     	;# 
  1227  071C                     	;# 
  1228  071D                     	;# 
  1229  071D                     	;# 
  1230  071E                     	;# 
  1231  071E                     	;# 
  1232  0791                     	;# 
  1233  0791                     	;# 
  1234  0793                     	;# 
  1235  0793                     	;# 
  1236  0794                     	;# 
  1237  0794                     	;# 
  1238  0796                     	;# 
  1239  0796                     	;# 
  1240  0796                     	;# 
  1241  0797                     	;# 
  1242  0797                     	;# 
  1243  0797                     	;# 
  1244  0798                     	;# 
  1245  0798                     	;# 
  1246  0799                     	;# 
  1247  0799                     	;# 
  1248  0799                     	;# 
  1249  079A                     	;# 
  1250  079A                     	;# 
  1251  079A                     	;# 
  1252  079B                     	;# 
  1253  079C                     	;# 
  1254  079C                     	;# 
  1255  079C                     	;# 
  1256  079D                     	;# 
  1257  079E                     	;# 
  1258  079E                     	;# 
  1259  0F8C                     	;# 
  1260  0F8D                     	;# 
  1261  0F91                     	;# 
  1262  0F96                     	;# 
  1263  0F97                     	;# 
  1264  0F9C                     	;# 
  1265  0F9D                     	;# 
  1266  0F9E                     	;# 
  1267  0FE3                     	;# 
  1268  0FE4                     	;# 
  1269  0FE5                     	;# 
  1270  0FE6                     	;# 
  1271  0FE7                     	;# 
  1272  0FE8                     	;# 
  1273  0FE9                     	;# 
  1274  0FEA                     	;# 
  1275  0FEB                     	;# 
  1276  0FED                     	;# 
  1277  0FEE                     	;# 
  1278  0FEF                     	;# 
  1279  0000                     	;# 
  1280  0001                     	;# 
  1281  0002                     	;# 
  1282  0003                     	;# 
  1283  0004                     	;# 
  1284  0005                     	;# 
  1285  0006                     	;# 
  1286  0007                     	;# 
  1287  0008                     	;# 
  1288  0009                     	;# 
  1289  000A                     	;# 
  1290  000B                     	;# 
  1291  000C                     	;# 
  1292  000D                     	;# 
  1293  000E                     	;# 
  1294  0011                     	;# 
  1295  0012                     	;# 
  1296  0015                     	;# 
  1297  0016                     	;# 
  1298  0016                     	;# 
  1299  0017                     	;# 
  1300  0018                     	;# 
  1301  0019                     	;# 
  1302  001A                     	;# 
  1303  001B                     	;# 
  1304  001C                     	;# 
  1305  008C                     	;# 
  1306  008D                     	;# 
  1307  008E                     	;# 
  1308  0091                     	;# 
  1309  0092                     	;# 
  1310  0095                     	;# 
  1311  0096                     	;# 
  1312  0097                     	;# 
  1313  0099                     	;# 
  1314  009A                     	;# 
  1315  009B                     	;# 
  1316  009B                     	;# 
  1317  009C                     	;# 
  1318  009D                     	;# 
  1319  009E                     	;# 
  1320  009F                     	;# 
  1321  010C                     	;# 
  1322  010D                     	;# 
  1323  010E                     	;# 
  1324  0116                     	;# 
  1325  0117                     	;# 
  1326  011D                     	;# 
  1327  018C                     	;# 
  1328  018D                     	;# 
  1329  018E                     	;# 
  1330  0191                     	;# 
  1331  0191                     	;# 
  1332  0192                     	;# 
  1333  0193                     	;# 
  1334  0193                     	;# 
  1335  0194                     	;# 
  1336  0195                     	;# 
  1337  0196                     	;# 
  1338  0199                     	;# 
  1339  019A                     	;# 
  1340  019B                     	;# 
  1341  019B                     	;# 
  1342  019C                     	;# 
  1343  019D                     	;# 
  1344  019E                     	;# 
  1345  019F                     	;# 
  1346  020C                     	;# 
  1347  020D                     	;# 
  1348  0211                     	;# 
  1349  0211                     	;# 
  1350  0212                     	;# 
  1351  0212                     	;# 
  1352  0213                     	;# 
  1353  0213                     	;# 
  1354  0214                     	;# 
  1355  0214                     	;# 
  1356  0215                     	;# 
  1357  0215                     	;# 
  1358  0215                     	;# 
  1359  0216                     	;# 
  1360  0216                     	;# 
  1361  0217                     	;# 
  1362  0217                     	;# 
  1363  0391                     	;# 
  1364  0392                     	;# 
  1365  0393                     	;# 
  1366  0394                     	;# 
  1367  0395                     	;# 
  1368  0396                     	;# 
  1369  0611                     	;# 
  1370  0612                     	;# 
  1371  0613                     	;# 
  1372  0613                     	;# 
  1373  0614                     	;# 
  1374  0615                     	;# 
  1375  0616                     	;# 
  1376  0616                     	;# 
  1377  0711                     	;# 
  1378  0711                     	;# 
  1379  0711                     	;# 
  1380  0712                     	;# 
  1381  0712                     	;# 
  1382  0713                     	;# 
  1383  0713                     	;# 
  1384  0713                     	;# 
  1385  0714                     	;# 
  1386  0714                     	;# 
  1387  0714                     	;# 
  1388  0715                     	;# 
  1389  0715                     	;# 
  1390  0716                     	;# 
  1391  0716                     	;# 
  1392  0716                     	;# 
  1393  0716                     	;# 
  1394  0717                     	;# 
  1395  0717                     	;# 
  1396  0717                     	;# 
  1397  0717                     	;# 
  1398  0718                     	;# 
  1399  0718                     	;# 
  1400  0718                     	;# 
  1401  0719                     	;# 
  1402  0719                     	;# 
  1403  0719                     	;# 
  1404  0719                     	;# 
  1405  071A                     	;# 
  1406  071A                     	;# 
  1407  071A                     	;# 
  1408  071A                     	;# 
  1409  071A                     	;# 
  1410  071B                     	;# 
  1411  071B                     	;# 
  1412  071C                     	;# 
  1413  071C                     	;# 
  1414  071C                     	;# 
  1415  071C                     	;# 
  1416  071C                     	;# 
  1417  071D                     	;# 
  1418  071D                     	;# 
  1419  071E                     	;# 
  1420  071E                     	;# 
  1421  0791                     	;# 
  1422  0791                     	;# 
  1423  0793                     	;# 
  1424  0793                     	;# 
  1425  0794                     	;# 
  1426  0794                     	;# 
  1427  0796                     	;# 
  1428  0796                     	;# 
  1429  0796                     	;# 
  1430  0797                     	;# 
  1431  0797                     	;# 
  1432  0797                     	;# 
  1433  0798                     	;# 
  1434  0798                     	;# 
  1435  0799                     	;# 
  1436  0799                     	;# 
  1437  0799                     	;# 
  1438  079A                     	;# 
  1439  079A                     	;# 
  1440  079A                     	;# 
  1441  079B                     	;# 
  1442  079C                     	;# 
  1443  079C                     	;# 
  1444  079C                     	;# 
  1445  079D                     	;# 
  1446  079E                     	;# 
  1447  079E                     	;# 
  1448  0F8C                     	;# 
  1449  0F8D                     	;# 
  1450  0F91                     	;# 
  1451  0F96                     	;# 
  1452  0F97                     	;# 
  1453  0F9C                     	;# 
  1454  0F9D                     	;# 
  1455  0F9E                     	;# 
  1456  0FE3                     	;# 
  1457  0FE4                     	;# 
  1458  0FE5                     	;# 
  1459  0FE6                     	;# 
  1460  0FE7                     	;# 
  1461  0FE8                     	;# 
  1462  0FE9                     	;# 
  1463  0FEA                     	;# 
  1464  0FEB                     	;# 
  1465  0FED                     	;# 
  1466  0FEE                     	;# 
  1467  0FEF                     	;# 
  1468  0000                     	;# 
  1469  0001                     	;# 
  1470  0002                     	;# 
  1471  0003                     	;# 
  1472  0004                     	;# 
  1473  0005                     	;# 
  1474  0006                     	;# 
  1475  0007                     	;# 
  1476  0008                     	;# 
  1477  0009                     	;# 
  1478  000A                     	;# 
  1479  000B                     	;# 
  1480  000C                     	;# 
  1481  000D                     	;# 
  1482  000E                     	;# 
  1483  0011                     	;# 
  1484  0012                     	;# 
  1485  0015                     	;# 
  1486  0016                     	;# 
  1487  0016                     	;# 
  1488  0017                     	;# 
  1489  0018                     	;# 
  1490  0019                     	;# 
  1491  001A                     	;# 
  1492  001B                     	;# 
  1493  001C                     	;# 
  1494  008C                     	;# 
  1495  008D                     	;# 
  1496  008E                     	;# 
  1497  0091                     	;# 
  1498  0092                     	;# 
  1499  0095                     	;# 
  1500  0096                     	;# 
  1501  0097                     	;# 
  1502  0099                     	;# 
  1503  009A                     	;# 
  1504  009B                     	;# 
  1505  009B                     	;# 
  1506  009C                     	;# 
  1507  009D                     	;# 
  1508  009E                     	;# 
  1509  009F                     	;# 
  1510  010C                     	;# 
  1511  010D                     	;# 
  1512  010E                     	;# 
  1513  0116                     	;# 
  1514  0117                     	;# 
  1515  011D                     	;# 
  1516  018C                     	;# 
  1517  018D                     	;# 
  1518  018E                     	;# 
  1519  0191                     	;# 
  1520  0191                     	;# 
  1521  0192                     	;# 
  1522  0193                     	;# 
  1523  0193                     	;# 
  1524  0194                     	;# 
  1525  0195                     	;# 
  1526  0196                     	;# 
  1527  0199                     	;# 
  1528  019A                     	;# 
  1529  019B                     	;# 
  1530  019B                     	;# 
  1531  019C                     	;# 
  1532  019D                     	;# 
  1533  019E                     	;# 
  1534  019F                     	;# 
  1535  020C                     	;# 
  1536  020D                     	;# 
  1537  0211                     	;# 
  1538  0211                     	;# 
  1539  0212                     	;# 
  1540  0212                     	;# 
  1541  0213                     	;# 
  1542  0213                     	;# 
  1543  0214                     	;# 
  1544  0214                     	;# 
  1545  0215                     	;# 
  1546  0215                     	;# 
  1547  0215                     	;# 
  1548  0216                     	;# 
  1549  0216                     	;# 
  1550  0217                     	;# 
  1551  0217                     	;# 
  1552  0391                     	;# 
  1553  0392                     	;# 
  1554  0393                     	;# 
  1555  0394                     	;# 
  1556  0395                     	;# 
  1557  0396                     	;# 
  1558  0611                     	;# 
  1559  0612                     	;# 
  1560  0613                     	;# 
  1561  0613                     	;# 
  1562  0614                     	;# 
  1563  0615                     	;# 
  1564  0616                     	;# 
  1565  0616                     	;# 
  1566  0711                     	;# 
  1567  0711                     	;# 
  1568  0711                     	;# 
  1569  0712                     	;# 
  1570  0712                     	;# 
  1571  0713                     	;# 
  1572  0713                     	;# 
  1573  0713                     	;# 
  1574  0714                     	;# 
  1575  0714                     	;# 
  1576  0714                     	;# 
  1577  0715                     	;# 
  1578  0715                     	;# 
  1579  0716                     	;# 
  1580  0716                     	;# 
  1581  0716                     	;# 
  1582  0716                     	;# 
  1583  0717                     	;# 
  1584  0717                     	;# 
  1585  0717                     	;# 
  1586  0717                     	;# 
  1587  0718                     	;# 
  1588  0718                     	;# 
  1589  0718                     	;# 
  1590  0719                     	;# 
  1591  0719                     	;# 
  1592  0719                     	;# 
  1593  0719                     	;# 
  1594  071A                     	;# 
  1595  071A                     	;# 
  1596  071A                     	;# 
  1597  071A                     	;# 
  1598  071A                     	;# 
  1599  071B                     	;# 
  1600  071B                     	;# 
  1601  071C                     	;# 
  1602  071C                     	;# 
  1603  071C                     	;# 
  1604  071C                     	;# 
  1605  071C                     	;# 
  1606  071D                     	;# 
  1607  071D                     	;# 
  1608  071E                     	;# 
  1609  071E                     	;# 
  1610  0791                     	;# 
  1611  0791                     	;# 
  1612  0793                     	;# 
  1613  0793                     	;# 
  1614  0794                     	;# 
  1615  0794                     	;# 
  1616  0796                     	;# 
  1617  0796                     	;# 
  1618  0796                     	;# 
  1619  0797                     	;# 
  1620  0797                     	;# 
  1621  0797                     	;# 
  1622  0798                     	;# 
  1623  0798                     	;# 
  1624  0799                     	;# 
  1625  0799                     	;# 
  1626  0799                     	;# 
  1627  079A                     	;# 
  1628  079A                     	;# 
  1629  079A                     	;# 
  1630  079B                     	;# 
  1631  079C                     	;# 
  1632  079C                     	;# 
  1633  079C                     	;# 
  1634  079D                     	;# 
  1635  079E                     	;# 
  1636  079E                     	;# 
  1637  0F8C                     	;# 
  1638  0F8D                     	;# 
  1639  0F91                     	;# 
  1640  0F96                     	;# 
  1641  0F97                     	;# 
  1642  0F9C                     	;# 
  1643  0F9D                     	;# 
  1644  0F9E                     	;# 
  1645  0FE3                     	;# 
  1646  0FE4                     	;# 
  1647  0FE5                     	;# 
  1648  0FE6                     	;# 
  1649  0FE7                     	;# 
  1650  0FE8                     	;# 
  1651  0FE9                     	;# 
  1652  0FEA                     	;# 
  1653  0FEB                     	;# 
  1654  0FED                     	;# 
  1655  0FEE                     	;# 
  1656  0FEF                     	;# 
  1657  0000                     	;# 
  1658  0001                     	;# 
  1659  0002                     	;# 
  1660  0003                     	;# 
  1661  0004                     	;# 
  1662  0005                     	;# 
  1663  0006                     	;# 
  1664  0007                     	;# 
  1665  0008                     	;# 
  1666  0009                     	;# 
  1667  000A                     	;# 
  1668  000B                     	;# 
  1669  000C                     	;# 
  1670  000D                     	;# 
  1671  000E                     	;# 
  1672  0011                     	;# 
  1673  0012                     	;# 
  1674  0015                     	;# 
  1675  0016                     	;# 
  1676  0016                     	;# 
  1677  0017                     	;# 
  1678  0018                     	;# 
  1679  0019                     	;# 
  1680  001A                     	;# 
  1681  001B                     	;# 
  1682  001C                     	;# 
  1683  008C                     	;# 
  1684  008D                     	;# 
  1685  008E                     	;# 
  1686  0091                     	;# 
  1687  0092                     	;# 
  1688  0095                     	;# 
  1689  0096                     	;# 
  1690  0097                     	;# 
  1691  0099                     	;# 
  1692  009A                     	;# 
  1693  009B                     	;# 
  1694  009B                     	;# 
  1695  009C                     	;# 
  1696  009D                     	;# 
  1697  009E                     	;# 
  1698  009F                     	;# 
  1699  010C                     	;# 
  1700  010D                     	;# 
  1701  010E                     	;# 
  1702  0116                     	;# 
  1703  0117                     	;# 
  1704  011D                     	;# 
  1705  018C                     	;# 
  1706  018D                     	;# 
  1707  018E                     	;# 
  1708  0191                     	;# 
  1709  0191                     	;# 
  1710  0192                     	;# 
  1711  0193                     	;# 
  1712  0193                     	;# 
  1713  0194                     	;# 
  1714  0195                     	;# 
  1715  0196                     	;# 
  1716  0199                     	;# 
  1717  019A                     	;# 
  1718  019B                     	;# 
  1719  019B                     	;# 
  1720  019C                     	;# 
  1721  019D                     	;# 
  1722  019E                     	;# 
  1723  019F                     	;# 
  1724  020C                     	;# 
  1725  020D                     	;# 
  1726  0211                     	;# 
  1727  0211                     	;# 
  1728  0212                     	;# 
  1729  0212                     	;# 
  1730  0213                     	;# 
  1731  0213                     	;# 
  1732  0214                     	;# 
  1733  0214                     	;# 
  1734  0215                     	;# 
  1735  0215                     	;# 
  1736  0215                     	;# 
  1737  0216                     	;# 
  1738  0216                     	;# 
  1739  0217                     	;# 
  1740  0217                     	;# 
  1741  0391                     	;# 
  1742  0392                     	;# 
  1743  0393                     	;# 
  1744  0394                     	;# 
  1745  0395                     	;# 
  1746  0396                     	;# 
  1747  0611                     	;# 
  1748  0612                     	;# 
  1749  0613                     	;# 
  1750  0613                     	;# 
  1751  0614                     	;# 
  1752  0615                     	;# 
  1753  0616                     	;# 
  1754  0616                     	;# 
  1755  0711                     	;# 
  1756  0711                     	;# 
  1757  0711                     	;# 
  1758  0712                     	;# 
  1759  0712                     	;# 
  1760  0713                     	;# 
  1761  0713                     	;# 
  1762  0713                     	;# 
  1763  0714                     	;# 
  1764  0714                     	;# 
  1765  0714                     	;# 
  1766  0715                     	;# 
  1767  0715                     	;# 
  1768  0716                     	;# 
  1769  0716                     	;# 
  1770  0716                     	;# 
  1771  0716                     	;# 
  1772  0717                     	;# 
  1773  0717                     	;# 
  1774  0717                     	;# 
  1775  0717                     	;# 
  1776  0718                     	;# 
  1777  0718                     	;# 
  1778  0718                     	;# 
  1779  0719                     	;# 
  1780  0719                     	;# 
  1781  0719                     	;# 
  1782  0719                     	;# 
  1783  071A                     	;# 
  1784  071A                     	;# 
  1785  071A                     	;# 
  1786  071A                     	;# 
  1787  071A                     	;# 
  1788  071B                     	;# 
  1789  071B                     	;# 
  1790  071C                     	;# 
  1791  071C                     	;# 
  1792  071C                     	;# 
  1793  071C                     	;# 
  1794  071C                     	;# 
  1795  071D                     	;# 
  1796  071D                     	;# 
  1797  071E                     	;# 
  1798  071E                     	;# 
  1799  0791                     	;# 
  1800  0791                     	;# 
  1801  0793                     	;# 
  1802  0793                     	;# 
  1803  0794                     	;# 
  1804  0794                     	;# 
  1805  0796                     	;# 
  1806  0796                     	;# 
  1807  0796                     	;# 
  1808  0797                     	;# 
  1809  0797                     	;# 
  1810  0797                     	;# 
  1811  0798                     	;# 
  1812  0798                     	;# 
  1813  0799                     	;# 
  1814  0799                     	;# 
  1815  0799                     	;# 
  1816  079A                     	;# 
  1817  079A                     	;# 
  1818  079A                     	;# 
  1819  079B                     	;# 
  1820  079C                     	;# 
  1821  079C                     	;# 
  1822  079C                     	;# 
  1823  079D                     	;# 
  1824  079E                     	;# 
  1825  079E                     	;# 
  1826  0F8C                     	;# 
  1827  0F8D                     	;# 
  1828  0F91                     	;# 
  1829  0F96                     	;# 
  1830  0F97                     	;# 
  1831  0F9C                     	;# 
  1832  0F9D                     	;# 
  1833  0F9E                     	;# 
  1834  0FE3                     	;# 
  1835  0FE4                     	;# 
  1836  0FE5                     	;# 
  1837  0FE6                     	;# 
  1838  0FE7                     	;# 
  1839  0FE8                     	;# 
  1840  0FE9                     	;# 
  1841  0FEA                     	;# 
  1842  0FEB                     	;# 
  1843  0FED                     	;# 
  1844  0FEE                     	;# 
  1845  0FEF                     	;# 
  1846  0000                     	;# 
  1847  0001                     	;# 
  1848  0002                     	;# 
  1849  0003                     	;# 
  1850  0004                     	;# 
  1851  0005                     	;# 
  1852  0006                     	;# 
  1853  0007                     	;# 
  1854  0008                     	;# 
  1855  0009                     	;# 
  1856  000A                     	;# 
  1857  000B                     	;# 
  1858  000C                     	;# 
  1859  000D                     	;# 
  1860  000E                     	;# 
  1861  0011                     	;# 
  1862  0012                     	;# 
  1863  0015                     	;# 
  1864  0016                     	;# 
  1865  0016                     	;# 
  1866  0017                     	;# 
  1867  0018                     	;# 
  1868  0019                     	;# 
  1869  001A                     	;# 
  1870  001B                     	;# 
  1871  001C                     	;# 
  1872  008C                     	;# 
  1873  008D                     	;# 
  1874  008E                     	;# 
  1875  0091                     	;# 
  1876  0092                     	;# 
  1877  0095                     	;# 
  1878  0096                     	;# 
  1879  0097                     	;# 
  1880  0099                     	;# 
  1881  009A                     	;# 
  1882  009B                     	;# 
  1883  009B                     	;# 
  1884  009C                     	;# 
  1885  009D                     	;# 
  1886  009E                     	;# 
  1887  009F                     	;# 
  1888  010C                     	;# 
  1889  010D                     	;# 
  1890  010E                     	;# 
  1891  0116                     	;# 
  1892  0117                     	;# 
  1893  011D                     	;# 
  1894  018C                     	;# 
  1895  018D                     	;# 
  1896  018E                     	;# 
  1897  0191                     	;# 
  1898  0191                     	;# 
  1899  0192                     	;# 
  1900  0193                     	;# 
  1901  0193                     	;# 
  1902  0194                     	;# 
  1903  0195                     	;# 
  1904  0196                     	;# 
  1905  0199                     	;# 
  1906  019A                     	;# 
  1907  019B                     	;# 
  1908  019B                     	;# 
  1909  019C                     	;# 
  1910  019D                     	;# 
  1911  019E                     	;# 
  1912  019F                     	;# 
  1913  020C                     	;# 
  1914  020D                     	;# 
  1915  0211                     	;# 
  1916  0211                     	;# 
  1917  0212                     	;# 
  1918  0212                     	;# 
  1919  0213                     	;# 
  1920  0213                     	;# 
  1921  0214                     	;# 
  1922  0214                     	;# 
  1923  0215                     	;# 
  1924  0215                     	;# 
  1925  0215                     	;# 
  1926  0216                     	;# 
  1927  0216                     	;# 
  1928  0217                     	;# 
  1929  0217                     	;# 
  1930  0391                     	;# 
  1931  0392                     	;# 
  1932  0393                     	;# 
  1933  0394                     	;# 
  1934  0395                     	;# 
  1935  0396                     	;# 
  1936  0611                     	;# 
  1937  0612                     	;# 
  1938  0613                     	;# 
  1939  0613                     	;# 
  1940  0614                     	;# 
  1941  0615                     	;# 
  1942  0616                     	;# 
  1943  0616                     	;# 
  1944  0711                     	;# 
  1945  0711                     	;# 
  1946  0711                     	;# 
  1947  0712                     	;# 
  1948  0712                     	;# 
  1949  0713                     	;# 
  1950  0713                     	;# 
  1951  0713                     	;# 
  1952  0714                     	;# 
  1953  0714                     	;# 
  1954  0714                     	;# 
  1955  0715                     	;# 
  1956  0715                     	;# 
  1957  0716                     	;# 
  1958  0716                     	;# 
  1959  0716                     	;# 
  1960  0716                     	;# 
  1961  0717                     	;# 
  1962  0717                     	;# 
  1963  0717                     	;# 
  1964  0717                     	;# 
  1965  0718                     	;# 
  1966  0718                     	;# 
  1967  0718                     	;# 
  1968  0719                     	;# 
  1969  0719                     	;# 
  1970  0719                     	;# 
  1971  0719                     	;# 
  1972  071A                     	;# 
  1973  071A                     	;# 
  1974  071A                     	;# 
  1975  071A                     	;# 
  1976  071A                     	;# 
  1977  071B                     	;# 
  1978  071B                     	;# 
  1979  071C                     	;# 
  1980  071C                     	;# 
  1981  071C                     	;# 
  1982  071C                     	;# 
  1983  071C                     	;# 
  1984  071D                     	;# 
  1985  071D                     	;# 
  1986  071E                     	;# 
  1987  071E                     	;# 
  1988  0791                     	;# 
  1989  0791                     	;# 
  1990  0793                     	;# 
  1991  0793                     	;# 
  1992  0794                     	;# 
  1993  0794                     	;# 
  1994  0796                     	;# 
  1995  0796                     	;# 
  1996  0796                     	;# 
  1997  0797                     	;# 
  1998  0797                     	;# 
  1999  0797                     	;# 
  2000  0798                     	;# 
  2001  0798                     	;# 
  2002  0799                     	;# 
  2003  0799                     	;# 
  2004  0799                     	;# 
  2005  079A                     	;# 
  2006  079A                     	;# 
  2007  079A                     	;# 
  2008  079B                     	;# 
  2009  079C                     	;# 
  2010  079C                     	;# 
  2011  079C                     	;# 
  2012  079D                     	;# 
  2013  079E                     	;# 
  2014  079E                     	;# 
  2015  0F8C                     	;# 
  2016  0F8D                     	;# 
  2017  0F91                     	;# 
  2018  0F96                     	;# 
  2019  0F97                     	;# 
  2020  0F9C                     	;# 
  2021  0F9D                     	;# 
  2022  0F9E                     	;# 
  2023  0FE3                     	;# 
  2024  0FE4                     	;# 
  2025  0FE5                     	;# 
  2026  0FE6                     	;# 
  2027  0FE7                     	;# 
  2028  0FE8                     	;# 
  2029  0FE9                     	;# 
  2030  0FEA                     	;# 
  2031  0FEB                     	;# 
  2032  0FED                     	;# 
  2033  0FEE                     	;# 
  2034  0FEF                     	;# 
  2035                           
  2036                           	psect	idataBANK0
  2037  0828                     __pidataBANK0:	
  2038                           
  2039                           ;initializer for _callback_activated
  2040  0828  3400               	retlw	low _Proximity_DefaultCallback
  2041  0829  3408               	retlw	high _Proximity_DefaultCallback
  2042                           
  2043                           ;initializer for _callback_sampled
  2044  082A  3401               	retlw	low _Sensor_DefaultCallback
  2045  082B  3408               	retlw	high _Sensor_DefaultCallback
  2046                           
  2047                           ;initializer for _sample_period
  2048  082C  34AE               	retlw	174
  2049                           
  2050                           	psect	idataBANK1
  2051  0B7B                     __pidataBANK1:	
  2052                           
  2053                           ;initializer for _data
  2054  0B7B  345F               	retlw	95
  2055  0B7C  34B4               	retlw	180
  2056  0B7D  3400               	retlw	0
  2057  0B7E  3486               	retlw	134
  2058  0B7F  344A               	retlw	74
  2059  0B80  3403               	retlw	3
  2060  0B81  34EB               	retlw	235
  2061  0B82  3400               	retlw	0
  2062  0B83  3400               	retlw	0
  2063  0B84  3400               	retlw	0
  2064  0B85  3400               	retlw	0
  2065  0B86  3400               	retlw	0
  2066  0B87  3400               	retlw	0
  2067  0B88  3400               	retlw	0
  2068  0B89  34AA               	retlw	170
  2069  0B8A  3455               	retlw	85
  2070  0B8B  3401               	retlw	1
  2071  0B8C  346E               	retlw	110
  2072  0B8D  34A0               	retlw	160
  2073                           
  2074                           ;initializer for _Proximity_StateMachine
  2075  0B8E  34B5               	retlw	low _Proximity_State_Initializing
  2076  0B8F  3407               	retlw	high _Proximity_State_Initializing
  2077  0B90  3499               	retlw	low _Proximity_State_NotActivated
  2078  0B91  3403               	retlw	high _Proximity_State_NotActivated
  2079  0B92  3403               	retlw	low _Proximity_State_Activated
  2080  0B93  340F               	retlw	high _Proximity_State_Activated
  2081                           
  2082                           ;initializer for _callback_notActivated
  2083  0B94  3400               	retlw	low _Proximity_DefaultCallback
  2084  0B95  3408               	retlw	high _Proximity_DefaultCallback
  2085                           
  2086                           ;initializer for _mtouch_sensor
  2087  0B96  3400               	retlw	0
  2088  0B97  3431               	retlw	49
  2089  0B98  3430               	retlw	48
  2090  0B99  3410               	retlw	16
  2091  0B9A  3420               	retlw	32
  2092  0B9B  3400               	retlw	0
  2093  0B9C  3400               	retlw	0
  2094  0B9D  3400               	retlw	0
  2095  0B9E  3400               	retlw	0
  2096                           
  2097                           	psect	stringtext1
  2098  1012                     __pstringtext1:	
  2099  1012                     Sensor_Scanfrequency_Evaluation@frequency_hop:	
  2100  1012  3400               	retlw	0
  2101  1013  340D               	retlw	13
  2102  1014  341C               	retlw	28
  2103  1015  341E               	retlw	30
  2104  1016  3417               	retlw	23
  2105  1017                     __end_ofSensor_Scanfrequency_Evaluation@frequency_hop:	
  2106                           
  2107                           	psect	stringtext2
  2108  1017                     __pstringtext2:	
  2109  1017                     _sensor_scan_group:	
  2110  1017  34BB               	retlw	low (_mtouch_sensor| 0)
  2111  1018  3400               	retlw	0
  2112  1019                     __end_of_sensor_scan_group:	
  2113                           
  2114                           	psect	stringtext3
  2115  1000                     __pstringtext3:	
  2116  1000                     _mtouch_proximity_init:	
  2117  1000  3400               	retlw	0
  2118  1001  3400               	retlw	0
  2119  1002  3400               	retlw	0
  2120  1003  3400               	retlw	0
  2121  1004  3400               	retlw	0
  2122  1005  3400               	retlw	0
  2123  1006  3400               	retlw	0
  2124  1007  3400               	retlw	0
  2125  1008  3400               	retlw	0
  2126  1009  3400               	retlw	0
  2127  100A  3400               	retlw	0
  2128  100B  3400               	retlw	0
  2129  100C  3400               	retlw	0
  2130  100D  3400               	retlw	0
  2131  100E  3400               	retlw	0
  2132  100F  3400               	retlw	0
  2133  1010  3464               	retlw	100
  2134  1011  3400               	retlw	0
  2135  1012                     __end_of_mtouch_proximity_init:	
  2136                           
  2137                           	psect	nvBANK0
  2138  006F                     __pnvBANK0:	
  2139  006F                     _eusartTxBufferRemaining:	
  2140  006F                     	ds	1
  2141                           
  2142                           	psect	nvBANK1
  2143  00DC                     __pnvBANK1:	
  2144  00DC                     _EUSART_ErrorHandler:	
  2145  00DC                     	ds	2
  2146  00DE                     _EUSART_OverrunErrorHandler:	
  2147  00DE                     	ds	2
  2148  00E0                     _EUSART_FramingErrorHandler:	
  2149  00E0                     	ds	2
  2150  00E2                     _EUSART_RxDefaultInterruptHandler:	
  2151  00E2                     	ds	2
  2152  00E4                     _EUSART_TxDefaultInterruptHandler:	
  2153  00E4                     	ds	2
  2154  001C                     _T2CON	set	28
  2155  001A                     _TMR2	set	26
  2156  001B                     _PR2	set	27
  2157  000B                     _INTCONbits	set	11
  2158  0012                     _PIR2bits	set	18
  2159  0011                     _PIR1bits	set	17
  2160  001C                     _T2CONbits	set	28
  2161  005F                     _GIE	set	95
  2162  0095                     _OPTION_REGbits	set	149
  2163  008E                     _TRISC	set	142
  2164  008D                     _TRISB	set	141
  2165  008C                     _TRISA	set	140
  2166  0097                     _WDTCON	set	151
  2167  0099                     _OSCCON	set	153
  2168  0091                     _PIE1bits	set	145
  2169  010E                     _LATCbits	set	270
  2170  011D                     _APFCON	set	285
  2171  010E                     _LATC	set	270
  2172  010D                     _LATB	set	269
  2173  010C                     _LATA	set	268
  2174  0116                     _BORCON	set	278
  2175  011D                     _APFCONbits	set	285
  2176  018C                     _ANSELA	set	396
  2177  018D                     _ANSELB	set	397
  2178  018E                     _ANSELC	set	398
  2179  0199                     _RCREG	set	409
  2180  019D                     _RCSTAbits	set	413
  2181  019A                     _TXREG	set	410
  2182  019E                     _TXSTAbits	set	414
  2183  019C                     _SPBRGH	set	412
  2184  019B                     _SPBRGL	set	411
  2185  019E                     _TXSTA	set	414
  2186  019D                     _RCSTA	set	413
  2187  019F                     _BAUDCON	set	415
  2188  020C                     _WPUA	set	524
  2189  020D                     _WPUB	set	525
  2190  071A                     _AAD1RES0	set	1818
  2191  0711                     _AD1CON0bits	set	1809
  2192  0714                     _AAD1CON3	set	1812
  2193  0713                     _AD1CON2	set	1811
  2194  0717                     _AD1ACQCON	set	1815
  2195  0716                     _AD1PRECON	set	1814
  2196  0718                     _AAD1GRD	set	1816
  2197  0713                     _AAD1CON2	set	1811
  2198  0719                     _AAD1CAP	set	1817
  2199  0714                     _AD1CON3	set	1812
  2200  0712                     _ADCOMCON	set	1810
  2201  0711                     _AD1CON0	set	1809
  2202  079A                     _AAD2RES0	set	1946
  2203  0791                     _AD2CON0bits	set	1937
  2204  0797                     _AD2ACQCON	set	1943
  2205  0796                     _AD2PRECON	set	1942
  2206  0794                     _AAD2CON3	set	1940
  2207  0798                     _AAD2GRD	set	1944
  2208  0793                     _AD2CON2	set	1939
  2209  0794                     _AD2CON3	set	1940
  2210  0791                     _AD2CON0	set	1937
  2211                           
  2212                           ; #config settings
  2213  0000                     
  2214                           	psect	cinit
  2215  0030                     start_initialization:	
  2216  0030                     __initialization:	
  2217                           
  2218                           ; Initialize objects allocated to BANK0
  2219  0030  3028               	movlw	low __pidataBANK0
  2220  0031  0084               	movwf	4
  2221  0032  3088               	movlw	(high __pidataBANK0)| (0+128)
  2222  0033  0085               	movwf	5
  2223  0034  306A               	movlw	low __pdataBANK0
  2224  0035  0086               	movwf	6
  2225  0036  3000               	movlw	high __pdataBANK0
  2226  0037  0087               	movwf	7
  2227  0038  3005               	movlw	5
  2228  0039  3188  205D  3180   	fcall	init_ram
  2229                           
  2230                           ; Initialize objects allocated to BANK1
  2231  003C  307B               	movlw	low __pidataBANK1
  2232  003D  0084               	movwf	4
  2233  003E  308B               	movlw	(high __pidataBANK1)| (0+128)
  2234  003F  0085               	movwf	5
  2235  0040  30A0               	movlw	low __pdataBANK1
  2236  0041  0086               	movwf	6
  2237  0042  3000               	movlw	high __pdataBANK1
  2238  0043  0087               	movwf	7
  2239  0044  3024               	movlw	36
  2240  0045  3188  205D  3180   	fcall	init_ram
  2241                           
  2242                           ; Clear objects allocated to COMMON
  2243  0048  01FC               	clrf	__pbssCOMMON& (0+127)
  2244                           
  2245                           ; Clear objects allocated to BANK0
  2246  0049  3049               	movlw	low __pbssBANK0
  2247  004A  0084               	movwf	4
  2248  004B  3000               	movlw	high __pbssBANK0
  2249  004C  0085               	movwf	5
  2250  004D  3021               	movlw	33
  2251  004E  3188  2057  3180   	fcall	clear_ram0
  2252                           
  2253                           ; Clear objects allocated to BANK1
  2254  0051  30C4               	movlw	low __pbssBANK1
  2255  0052  0084               	movwf	4
  2256  0053  3000               	movlw	high __pbssBANK1
  2257  0054  0085               	movwf	5
  2258  0055  3018               	movlw	24
  2259  0056  3188  2057  3180   	fcall	clear_ram0
  2260  0059                     end_of_initialization:	
  2261                           ;End of C runtime variable initialization code
  2262                           
  2263  0059                     __end_of__initialization:	
  2264  0059  107E               	bcf	int$flags,0	;clear compiler interrupt flag (level 1)
  2265  005A  0020               	movlb	0
  2266  005B  318B  2B17         	ljmp	_main	;jump to C main() function
  2267                           
  2268                           	psect	bssCOMMON
  2269  007C                     __pbssCOMMON:	
  2270  007C                     _eusartRxHead:	
  2271  007C                     	ds	1
  2272                           
  2273                           	psect	bssBANK0
  2274  0049                     __pbssBANK0:	
  2275  0049                     _packet_sample:	
  2276  0049                     	ds	4
  2277  004D                     _packet_noise:	
  2278  004D                     	ds	2
  2279  004F                     _mtouch_time_toScan:	
  2280  004F                     	ds	1
  2281  0050                     MTOUCH_DataStreamer_Service@sequence:	
  2282  0050                     	ds	1
  2283  0051                     _sensor_globalFlags:	
  2284  0051                     	ds	1
  2285  0052                     _lowpowerActivated:	
  2286  0052                     	ds	1
  2287  0053                     _eusartRxLastError:	
  2288  0053                     	ds	1
  2289  0054                     _eusartRxCount:	
  2290  0054                     	ds	1
  2291  0055                     _eusartRxTail:	
  2292  0055                     	ds	1
  2293  0056                     _eusartTxTail:	
  2294  0056                     	ds	1
  2295  0057                     _eusartTxHead:	
  2296  0057                     	ds	1
  2297  0058                     _mtouch_proximity:	
  2298  0058                     	ds	18
  2299                           
  2300                           	psect	dataBANK0
  2301  006A                     __pdataBANK0:	
  2302  006A                     _callback_activated:	
  2303  006A                     	ds	2
  2304  006C                     _callback_sampled:	
  2305  006C                     	ds	2
  2306  006E                     _sample_period:	
  2307  006E                     	ds	1
  2308                           
  2309                           	psect	bssBANK1
  2310  00C4                     __pbssBANK1:	
  2311  00C4                     _eusartRxStatusBuffer:	
  2312  00C4                     	ds	8
  2313  00CC                     _eusartRxBuffer:	
  2314  00CC                     	ds	8
  2315  00D4                     _eusartTxBuffer:	
  2316  00D4                     	ds	8
  2317                           
  2318                           	psect	dataBANK1
  2319  00A0                     __pdataBANK1:	
  2320  00A0                     _data:	
  2321  00A0                     	ds	19
  2322  00B3                     _Proximity_StateMachine:	
  2323  00B3                     	ds	6
  2324  00B9                     _callback_notActivated:	
  2325  00B9                     	ds	2
  2326  00BB                     _mtouch_sensor:	
  2327  00BB                     	ds	9
  2328                           
  2329                           	psect	inittext
  2330  085D                     init_ram:	
  2331  085D  00FE               	movwf	btemp
  2332  085E                     initloop:	
  2333  085E  0012               	moviw fsr0++
  2334  085F  001E               	movwi fsr1++
  2335  0860  0BFE               	decfsz	btemp,f
  2336  0861  285E               	goto	initloop
  2337  0862  3400               	retlw	0
  2338                           
  2339                           	psect	clrtext
  2340  0857                     clear_ram0:	
  2341                           ;	Called with FSR0 containing the base address, and
  2342                           ;	WREG with the size to clear
  2343                           
  2344  0857  0064               	clrwdt	;clear the watchdog before getting into this loop
  2345  0858                     clrloop0:	
  2346  0858  0180               	clrf	0	;clear RAM location pointed to by FSR
  2347  0859  3101               	addfsr 0,1
  2348  085A  0B89               	decfsz	9,f	;Have we reached the end of clearing yet?
  2349  085B  2858               	goto	clrloop0	;have we reached the end yet?
  2350  085C  3400               	retlw	0	;all done for this memory range, return
  2351                           
  2352                           	psect	cstackCOMMON
  2353  0070                     __pcstackCOMMON:	
  2354  0070                     ?_MTOUCH_Service_Mainloop:	
  2355  0070                     ?_MTOUCH_Proximity_isActivated:	
  2356                           ; 1 bytes @ 0x0
  2357                           
  2358  0070                     ?_EUSART_Receive_ISR:	
  2359                           ; 1 bytes @ 0x0
  2360                           
  2361  0070                     ?_EUSART_Transmit_ISR:	
  2362                           ; 1 bytes @ 0x0
  2363                           
  2364  0070                     ??_EUSART_Transmit_ISR:	
  2365                           ; 1 bytes @ 0x0
  2366                           
  2367  0070                     ?_EUSART_DefaultFramingErrorHandler:	
  2368                           ; 1 bytes @ 0x0
  2369                           
  2370  0070                     ??_EUSART_DefaultFramingErrorHandler:	
  2371                           ; 1 bytes @ 0x0
  2372                           
  2373  0070                     ?_EUSART_DefaultOverrunErrorHandler:	
  2374                           ; 1 bytes @ 0x0
  2375                           
  2376  0070                     ??_EUSART_DefaultOverrunErrorHandler:	
  2377                           ; 1 bytes @ 0x0
  2378                           
  2379  0070                     ?_EUSART_DefaultErrorHandler:	
  2380                           ; 1 bytes @ 0x0
  2381                           
  2382  0070                     ?_EUSART_RxDataHandler:	
  2383                           ; 1 bytes @ 0x0
  2384                           
  2385  0070                     ??_EUSART_RxDataHandler:	
  2386                           ; 1 bytes @ 0x0
  2387                           
  2388  0070                     ?_MTOUCH_Sensor_Enable:	
  2389                           ; 1 bytes @ 0x0
  2390                           
  2391  0070                     ?_MTOUCH_Sensor_Calibrate:	
  2392                           ; 1 bytes @ 0x0
  2393                           
  2394  0070                     ?_Sensor_Sampled_Reset:	
  2395                           ; 1 bytes @ 0x0
  2396                           
  2397  0070                     ?_Sensor_Service:	
  2398                           ; 1 bytes @ 0x0
  2399                           
  2400  0070                     ?_Sensor_isEnabled:	
  2401                           ; 1 bytes @ 0x0
  2402                           
  2403  0070                     ?_Sensor_RawSample_Update:	
  2404                           ; 1 bytes @ 0x0
  2405                           
  2406  0070                     ?_Sensor_setSampled:	
  2407                           ; 1 bytes @ 0x0
  2408                           
  2409  0070                     ?_Sensor_postAcquisitionProcess:	
  2410                           ; 1 bytes @ 0x0
  2411                           
  2412  0070                     ?_Sensor_isActive:	
  2413                           ; 1 bytes @ 0x0
  2414                           
  2415  0070                     ?_Sensor_isCalibrated:	
  2416                           ; 1 bytes @ 0x0
  2417                           
  2418  0070                     ?_Sensor_setActive:	
  2419                           ; 1 bytes @ 0x0
  2420                           
  2421  0070                     ?_Sensor_setInactive:	
  2422                           ; 1 bytes @ 0x0
  2423                           
  2424  0070                     ?_Sensor_isCalibratingAcqTime:	
  2425                           ; 1 bytes @ 0x0
  2426                           
  2427  0070                     ?_TMR2_LoadPeriodRegister:	
  2428                           ; 1 bytes @ 0x0
  2429                           
  2430  0070                     ?_TMR2_StartTimer:	
  2431                           ; 1 bytes @ 0x0
  2432                           
  2433  0070                     ?_TMR2_StopTimer:	
  2434                           ; 1 bytes @ 0x0
  2435                           
  2436  0070                     ?_Sensor_autoCalibration:	
  2437                           ; 1 bytes @ 0x0
  2438                           
  2439  0070                     ?_Sensor_setCalibratAcqTime:	
  2440                           ; 1 bytes @ 0x0
  2441                           
  2442  0070                     ?_Sensor_setCalibrated:	
  2443                           ; 1 bytes @ 0x0
  2444                           
  2445  0070                     ?_Proximity_Service:	
  2446                           ; 1 bytes @ 0x0
  2447                           
  2448  0070                     ?_Proximity_Reading_Update:	
  2449                           ; 1 bytes @ 0x0
  2450                           
  2451  0070                     ?_Proximity_Deviation_Update:	
  2452                           ; 1 bytes @ 0x0
  2453                           
  2454  0070                     ?_Proximity_Baseline_Initialize:	
  2455                           ; 1 bytes @ 0x0
  2456                           
  2457  0070                     ?_Proximity_Baseline_Update:	
  2458                           ; 1 bytes @ 0x0
  2459                           
  2460  0070                     ?_Proximity_Tick_helper:	
  2461                           ; 1 bytes @ 0x0
  2462                           
  2463  0070                     ?_Proximity_Reading_Update_Helper:	
  2464                           ; 1 bytes @ 0x0
  2465                           
  2466  0070                     ?_PIN_MANAGER_Initialize:	
  2467                           ; 1 bytes @ 0x0
  2468                           
  2469  0070                     ?_OSCILLATOR_Initialize:	
  2470                           ; 1 bytes @ 0x0
  2471                           
  2472  0070                     ?_WDT_Initialize:	
  2473                           ; 1 bytes @ 0x0
  2474                           
  2475  0070                     ?_TMR2_Initialize:	
  2476                           ; 1 bytes @ 0x0
  2477                           
  2478  0070                     ?_MTOUCH_Initialize:	
  2479                           ; 1 bytes @ 0x0
  2480                           
  2481  0070                     ?_MTOUCH_needReburst:	
  2482                           ; 1 bytes @ 0x0
  2483                           
  2484  0070                     ?_MTOUCH_Tick:	
  2485                           ; 1 bytes @ 0x0
  2486                           
  2487  0070                     ?_EUSART_Initialize:	
  2488                           ; 1 bytes @ 0x0
  2489                           
  2490  0070                     ?_EUSART_Write:	
  2491                           ; 1 bytes @ 0x0
  2492                           
  2493  0070                     ?_MTOUCH_Sensor_Initialize:	
  2494                           ; 1 bytes @ 0x0
  2495                           
  2496  0070                     ?_MTOUCH_Sensor_InitializeAll:	
  2497                           ; 1 bytes @ 0x0
  2498                           
  2499  0070                     ?_MTOUCH_Sensor_Scan_Initialize:	
  2500                           ; 1 bytes @ 0x0
  2501                           
  2502  0070                     ?_MTOUCH_Sensor_SampleAll:	
  2503                           ; 1 bytes @ 0x0
  2504                           
  2505  0070                     ?_Sensor_getScanGroupIndex:	
  2506                           ; 1 bytes @ 0x0
  2507                           
  2508  0070                     ?_MTOUCH_Sensor_isCalibrated:	
  2509                           ; 1 bytes @ 0x0
  2510                           
  2511  0070                     ?_MTOUCH_Sensor_Sampled_ResetAll:	
  2512                           ; 1 bytes @ 0x0
  2513                           
  2514  0070                     ?_MTOUCH_Sensor_wasSampled:	
  2515                           ; 1 bytes @ 0x0
  2516                           
  2517  0070                     ?_MTOUCH_Sensor_AdditionalCap_Get:	
  2518                           ; 1 bytes @ 0x0
  2519                           
  2520  0070                     ?_MTOUCH_Sensor_AcquisitionTime_Get:	
  2521                           ; 1 bytes @ 0x0
  2522                           
  2523  0070                     ?_MTOUCH_Proximity_Initialize:	
  2524                           ; 1 bytes @ 0x0
  2525                           
  2526  0070                     ?_MTOUCH_Proximity_InitializeAll:	
  2527                           ; 1 bytes @ 0x0
  2528                           
  2529  0070                     ?_MTOUCH_Proximity_ServiceAll:	
  2530                           ; 1 bytes @ 0x0
  2531                           
  2532  0070                     ?_MTOUCH_Proximity_Tick:	
  2533                           ; 1 bytes @ 0x0
  2534                           
  2535  0070                     ?_MTOUCH_Proximity_Threshold_Get:	
  2536                           ; 1 bytes @ 0x0
  2537                           
  2538  0070                     ?_MTOUCH_Proximity_Scaling_Get:	
  2539                           ; 1 bytes @ 0x0
  2540                           
  2541  0070                     ?_MTOUCH_Proximity_Deviation_Get:	
  2542                           ; 1 bytes @ 0x0
  2543                           
  2544  0070                     ?_INTERRUPT_InterruptManager:	
  2545                           ; 1 bytes @ 0x0
  2546                           
  2547  0070                     ?_SYSTEM_Initialize:	
  2548                           ; 1 bytes @ 0x0
  2549                           
  2550  0070                     ?_MTOUCH_DataStreamer_Initialize:	
  2551                           ; 1 bytes @ 0x0
  2552                           
  2553  0070                     ?_datastreamer_output_byte:	
  2554                           ; 1 bytes @ 0x0
  2555                           
  2556  0070                     ?_MTOUCH_DataStreamer_Service:	
  2557                           ; 1 bytes @ 0x0
  2558                           
  2559  0070                     ?_main:	
  2560                           ; 1 bytes @ 0x0
  2561                           
  2562                           
  2563                           ; 1 bytes @ 0x0
  2564  0070                     	ds	1
  2565  0071                     ??_MTOUCH_Proximity_isActivated:	
  2566  0071                     ?_EUSART_SetRxInterruptHandler:	
  2567                           ; 1 bytes @ 0x1
  2568                           
  2569  0071                     ??_EUSART_Receive_ISR:	
  2570                           ; 1 bytes @ 0x1
  2571                           
  2572  0071                     ?_EUSART_SetTxInterruptHandler:	
  2573                           ; 1 bytes @ 0x1
  2574                           
  2575  0071                     ?_EUSART_SetFramingErrorHandler:	
  2576                           ; 1 bytes @ 0x1
  2577                           
  2578  0071                     ?_EUSART_SetOverrunErrorHandler:	
  2579                           ; 1 bytes @ 0x1
  2580                           
  2581  0071                     ?_EUSART_SetErrorHandler:	
  2582                           ; 1 bytes @ 0x1
  2583                           
  2584  0071                     ??_EUSART_DefaultErrorHandler:	
  2585                           ; 1 bytes @ 0x1
  2586                           
  2587  0071                     ?_Sensor_DefaultCallback:	
  2588                           ; 1 bytes @ 0x1
  2589                           
  2590  0071                     ??_Sensor_Sampled_Reset:	
  2591                           ; 1 bytes @ 0x1
  2592                           
  2593  0071                     ??_Sensor_isEnabled:	
  2594                           ; 1 bytes @ 0x1
  2595                           
  2596  0071                     ??_Sensor_setSampled:	
  2597                           ; 1 bytes @ 0x1
  2598                           
  2599  0071                     ??_Sensor_isActive:	
  2600                           ; 1 bytes @ 0x1
  2601                           
  2602  0071                     ??_Sensor_isCalibrated:	
  2603                           ; 1 bytes @ 0x1
  2604                           
  2605  0071                     ??_Sensor_setActive:	
  2606                           ; 1 bytes @ 0x1
  2607                           
  2608  0071                     ??_Sensor_setInactive:	
  2609                           ; 1 bytes @ 0x1
  2610                           
  2611  0071                     ??_Sensor_isCalibratingAcqTime:	
  2612                           ; 1 bytes @ 0x1
  2613                           
  2614  0071                     ??_TMR2_LoadPeriodRegister:	
  2615                           ; 1 bytes @ 0x1
  2616                           
  2617  0071                     ??_TMR2_StartTimer:	
  2618                           ; 1 bytes @ 0x1
  2619                           
  2620  0071                     ??_TMR2_StopTimer:	
  2621                           ; 1 bytes @ 0x1
  2622                           
  2623  0071                     ??_Sensor_setCalibratAcqTime:	
  2624                           ; 1 bytes @ 0x1
  2625                           
  2626  0071                     ??_Sensor_setCalibrated:	
  2627                           ; 1 bytes @ 0x1
  2628                           
  2629  0071                     ?_Proximity_DefaultCallback:	
  2630                           ; 1 bytes @ 0x1
  2631                           
  2632  0071                     ?_memcpy:	
  2633                           ; 1 bytes @ 0x1
  2634                           
  2635  0071                     ??_Proximity_Baseline_Update:	
  2636                           ; 1 bytes @ 0x1
  2637                           
  2638  0071                     ??_Proximity_Tick_helper:	
  2639                           ; 1 bytes @ 0x1
  2640                           
  2641  0071                     ??_PIN_MANAGER_Initialize:	
  2642                           ; 1 bytes @ 0x1
  2643                           
  2644  0071                     ??_OSCILLATOR_Initialize:	
  2645                           ; 1 bytes @ 0x1
  2646                           
  2647  0071                     ??_WDT_Initialize:	
  2648                           ; 1 bytes @ 0x1
  2649                           
  2650  0071                     ??_TMR2_Initialize:	
  2651                           ; 1 bytes @ 0x1
  2652                           
  2653  0071                     ??_MTOUCH_needReburst:	
  2654                           ; 1 bytes @ 0x1
  2655                           
  2656  0071                     ??_EUSART_Write:	
  2657                           ; 1 bytes @ 0x1
  2658                           
  2659  0071                     ??_MTOUCH_Sensor_Scan_Initialize:	
  2660                           ; 1 bytes @ 0x1
  2661                           
  2662  0071                     ??_Sensor_getScanGroupIndex:	
  2663                           ; 1 bytes @ 0x1
  2664                           
  2665  0071                     ??_MTOUCH_Proximity_Initialize:	
  2666                           ; 1 bytes @ 0x1
  2667                           
  2668  0071                     ??_MTOUCH_Proximity_Threshold_Get:	
  2669                           ; 1 bytes @ 0x1
  2670                           
  2671  0071                     ??_MTOUCH_Proximity_Scaling_Get:	
  2672                           ; 1 bytes @ 0x1
  2673                           
  2674  0071                     ??_MTOUCH_Proximity_Deviation_Get:	
  2675                           ; 1 bytes @ 0x1
  2676                           
  2677  0071                     ??_INTERRUPT_InterruptManager:	
  2678                           ; 1 bytes @ 0x1
  2679                           
  2680  0071                     ??_MTOUCH_DataStreamer_Initialize:	
  2681                           ; 1 bytes @ 0x1
  2682                           
  2683  0071                     ?___bmul:	
  2684                           ; 1 bytes @ 0x1
  2685                           
  2686  0071                     ?_abs:	
  2687                           ; 1 bytes @ 0x1
  2688                           
  2689  0071                     ?___awmod:	
  2690                           ; 2 bytes @ 0x1
  2691                           
  2692  0071                     ?_MTOUCH_Proximity_Reading_Get:	
  2693                           ; 2 bytes @ 0x1
  2694                           
  2695  0071                     ?_Proximity_Baseline_Get_helper:	
  2696                           ; 4 bytes @ 0x1
  2697                           
  2698  0071                     Sensor_DefaultCallback@sensor:	
  2699                           ; 4 bytes @ 0x1
  2700                           
  2701  0071                     Sensor_setActive@sensor:	
  2702                           ; 1 bytes @ 0x1
  2703                           
  2704  0071                     Sensor_setInactive@sensor:	
  2705                           ; 1 bytes @ 0x1
  2706                           
  2707  0071                     Sensor_isActive@sensor:	
  2708                           ; 1 bytes @ 0x1
  2709                           
  2710  0071                     Sensor_isCalibrated@sensor:	
  2711                           ; 1 bytes @ 0x1
  2712                           
  2713  0071                     Sensor_setCalibrated@sensor:	
  2714                           ; 1 bytes @ 0x1
  2715                           
  2716  0071                     Sensor_setCalibratAcqTime@sensor:	
  2717                           ; 1 bytes @ 0x1
  2718                           
  2719  0071                     Sensor_isCalibratingAcqTime@sensor:	
  2720                           ; 1 bytes @ 0x1
  2721                           
  2722  0071                     Sensor_Sampled_Reset@sensor:	
  2723                           ; 1 bytes @ 0x1
  2724                           
  2725  0071                     Sensor_setSampled@sensor:	
  2726                           ; 1 bytes @ 0x1
  2727                           
  2728  0071                     MTOUCH_Proximity_Threshold_Get@name:	
  2729                           ; 1 bytes @ 0x1
  2730                           
  2731  0071                     MTOUCH_Proximity_Scaling_Get@name:	
  2732                           ; 1 bytes @ 0x1
  2733                           
  2734  0071                     MTOUCH_Proximity_isActivated@name:	
  2735                           ; 1 bytes @ 0x1
  2736                           
  2737  0071                     MTOUCH_Proximity_Deviation_Get@name:	
  2738                           ; 1 bytes @ 0x1
  2739                           
  2740  0071                     Proximity_DefaultCallback@name:	
  2741                           ; 1 bytes @ 0x1
  2742                           
  2743  0071                     TMR2_LoadPeriodRegister@periodVal:	
  2744                           ; 1 bytes @ 0x1
  2745                           
  2746  0071                     ___bmul@multiplicand:	
  2747                           ; 1 bytes @ 0x1
  2748                           
  2749  0071                     EUSART_SetFramingErrorHandler@interruptHandler:	
  2750                           ; 1 bytes @ 0x1
  2751                           
  2752  0071                     EUSART_SetOverrunErrorHandler@interruptHandler:	
  2753                           ; 2 bytes @ 0x1
  2754                           
  2755  0071                     EUSART_SetErrorHandler@interruptHandler:	
  2756                           ; 2 bytes @ 0x1
  2757                           
  2758  0071                     EUSART_SetTxInterruptHandler@interruptHandler:	
  2759                           ; 2 bytes @ 0x1
  2760                           
  2761  0071                     EUSART_SetRxInterruptHandler@interruptHandler:	
  2762                           ; 2 bytes @ 0x1
  2763                           
  2764  0071                     ___awmod@divisor:	
  2765                           ; 2 bytes @ 0x1
  2766                           
  2767  0071                     abs@a:	
  2768                           ; 2 bytes @ 0x1
  2769                           
  2770  0071                     memcpy@s1:	
  2771                           ; 2 bytes @ 0x1
  2772                           
  2773                           
  2774                           ; 2 bytes @ 0x1
  2775  0071                     	ds	1
  2776  0072                     ??_Sensor_DefaultCallback:	
  2777  0072                     ??_Proximity_DefaultCallback:	
  2778                           ; 1 bytes @ 0x2
  2779                           
  2780  0072                     ?_Sensor_loadADCSettings:	
  2781                           ; 1 bytes @ 0x2
  2782                           
  2783  0072                     ??_MTOUCH_Sensor_Sampled_ResetAll:	
  2784                           ; 1 bytes @ 0x2
  2785                           
  2786  0072                     ??___bmul:	
  2787                           ; 1 bytes @ 0x2
  2788                           
  2789  0072                     EUSART_Write@txData:	
  2790                           ; 1 bytes @ 0x2
  2791                           
  2792  0072                     Sensor_loadADCSettings@adc_index:	
  2793                           ; 1 bytes @ 0x2
  2794                           
  2795  0072                     Sensor_isEnabled@sensor:	
  2796                           ; 1 bytes @ 0x2
  2797                           
  2798  0072                     MTOUCH_Proximity_Initialize@name:	
  2799                           ; 1 bytes @ 0x2
  2800                           
  2801                           
  2802                           ; 1 bytes @ 0x2
  2803  0072                     	ds	1
  2804  0073                     ??_EUSART_SetRxInterruptHandler:	
  2805  0073                     ??_EUSART_SetTxInterruptHandler:	
  2806                           ; 1 bytes @ 0x3
  2807                           
  2808  0073                     ??_EUSART_SetFramingErrorHandler:	
  2809                           ; 1 bytes @ 0x3
  2810                           
  2811  0073                     ??_EUSART_SetOverrunErrorHandler:	
  2812                           ; 1 bytes @ 0x3
  2813                           
  2814  0073                     ??_EUSART_SetErrorHandler:	
  2815                           ; 1 bytes @ 0x3
  2816                           
  2817  0073                     ??_abs:	
  2818                           ; 1 bytes @ 0x3
  2819                           
  2820  0073                     ??_EUSART_Initialize:	
  2821                           ; 1 bytes @ 0x3
  2822                           
  2823  0073                     ??_Sensor_loadADCSettings:	
  2824                           ; 1 bytes @ 0x3
  2825                           
  2826  0073                     ??_datastreamer_output_byte:	
  2827                           ; 1 bytes @ 0x3
  2828                           
  2829  0073                     Sensor_getScanGroupIndex@sensor:	
  2830                           ; 1 bytes @ 0x3
  2831                           
  2832  0073                     MTOUCH_Sensor_Sampled_ResetAll@sensor:	
  2833                           ; 1 bytes @ 0x3
  2834                           
  2835  0073                     MTOUCH_Proximity_Initialize@prox:	
  2836                           ; 1 bytes @ 0x3
  2837                           
  2838  0073                     Proximity_Tick_helper@prox:	
  2839                           ; 1 bytes @ 0x3
  2840                           
  2841  0073                     datastreamer_output_byte@data:	
  2842                           ; 1 bytes @ 0x3
  2843                           
  2844  0073                     ___bmul@product:	
  2845                           ; 1 bytes @ 0x3
  2846                           
  2847  0073                     ___awmod@dividend:	
  2848                           ; 1 bytes @ 0x3
  2849                           
  2850  0073                     memcpy@n:	
  2851                           ; 2 bytes @ 0x3
  2852                           
  2853                           
  2854                           ; 2 bytes @ 0x3
  2855  0073                     	ds	1
  2856  0074                     ??_MTOUCH_Tick:	
  2857  0074                     ??_MTOUCH_Proximity_Tick:	
  2858                           ; 1 bytes @ 0x4
  2859                           
  2860  0074                     Sensor_getScanGroupIndex@sensorGroup:	
  2861                           ; 1 bytes @ 0x4
  2862                           
  2863  0074                     ___bmul@multiplier:	
  2864                           ; 1 bytes @ 0x4
  2865                           
  2866                           
  2867                           ; 1 bytes @ 0x4
  2868  0074                     	ds	1
  2869  0075                     ??_MTOUCH_Sensor_Enable:	
  2870  0075                     ??_MTOUCH_Sensor_Calibrate:	
  2871                           ; 1 bytes @ 0x5
  2872                           
  2873  0075                     ??_Sensor_RawSample_Update:	
  2874                           ; 1 bytes @ 0x5
  2875                           
  2876  0075                     ??_Sensor_postAcquisitionProcess:	
  2877                           ; 1 bytes @ 0x5
  2878                           
  2879  0075                     ??_Sensor_autoCalibration:	
  2880                           ; 1 bytes @ 0x5
  2881                           
  2882  0075                     ??_memcpy:	
  2883                           ; 1 bytes @ 0x5
  2884                           
  2885  0075                     ??_Proximity_Baseline_Get_helper:	
  2886                           ; 1 bytes @ 0x5
  2887                           
  2888  0075                     ??_MTOUCH_Sensor_isCalibrated:	
  2889                           ; 1 bytes @ 0x5
  2890                           
  2891  0075                     ??_MTOUCH_Sensor_wasSampled:	
  2892                           ; 1 bytes @ 0x5
  2893                           
  2894  0075                     ??_MTOUCH_Sensor_AdditionalCap_Get:	
  2895                           ; 1 bytes @ 0x5
  2896                           
  2897  0075                     ??_MTOUCH_Sensor_AcquisitionTime_Get:	
  2898                           ; 1 bytes @ 0x5
  2899                           
  2900  0075                     ??___awmod:	
  2901                           ; 1 bytes @ 0x5
  2902                           
  2903  0075                     ?_MTOUCH_Sensor_RawSample_Get:	
  2904                           ; 1 bytes @ 0x5
  2905                           
  2906  0075                     Proximity_Baseline_Update@prox:	
  2907                           ; 2 bytes @ 0x5
  2908                           
  2909                           
  2910                           ; 1 bytes @ 0x5
  2911  0075                     	ds	1
  2912  0076                     ??_MTOUCH_Proximity_Reading_Get:	
  2913  0076                     Sensor_RawSample_Update@adcIndex:	
  2914                           ; 1 bytes @ 0x6
  2915                           
  2916  0076                     MTOUCH_Sensor_Enable@sensor:	
  2917                           ; 1 bytes @ 0x6
  2918                           
  2919  0076                     MTOUCH_Sensor_Calibrate@sensor:	
  2920                           ; 1 bytes @ 0x6
  2921                           
  2922  0076                     MTOUCH_Sensor_isCalibrated@sensor:	
  2923                           ; 1 bytes @ 0x6
  2924                           
  2925  0076                     MTOUCH_Sensor_wasSampled@sensor:	
  2926                           ; 1 bytes @ 0x6
  2927                           
  2928  0076                     MTOUCH_Sensor_AdditionalCap_Get@name:	
  2929                           ; 1 bytes @ 0x6
  2930                           
  2931  0076                     MTOUCH_Sensor_AcquisitionTime_Get@name:	
  2932                           ; 1 bytes @ 0x6
  2933                           
  2934  0076                     MTOUCH_Proximity_Reading_Get@name:	
  2935                           ; 1 bytes @ 0x6
  2936                           
  2937  0076                     ___awmod@counter:	
  2938                           ; 1 bytes @ 0x6
  2939                           
  2940  0076                     Sensor_postAcquisitionProcess@deviation:	
  2941                           ; 1 bytes @ 0x6
  2942                           
  2943  0076                     _Sensor_loadADCSettings$743:	
  2944                           ; 2 bytes @ 0x6
  2945                           
  2946  0076                     memcpy@s:	
  2947                           ; 2 bytes @ 0x6
  2948                           
  2949                           
  2950                           ; 2 bytes @ 0x6
  2951  0076                     	ds	1
  2952  0077                     ??_MTOUCH_Sensor_Initialize:	
  2953  0077                     ??_MTOUCH_Sensor_RawSample_Get:	
  2954                           ; 1 bytes @ 0x7
  2955                           
  2956  0077                     Sensor_RawSample_Update@sensor:	
  2957                           ; 1 bytes @ 0x7
  2958                           
  2959  0077                     ___awmod@sign:	
  2960                           ; 1 bytes @ 0x7
  2961                           
  2962                           
  2963                           ; 1 bytes @ 0x7
  2964  0077                     	ds	1
  2965  0078                     MTOUCH_Sensor_Initialize@sensor:	
  2966  0078                     Sensor_postAcquisitionProcess@adcIndex:	
  2967                           ; 1 bytes @ 0x8
  2968                           
  2969  0078                     Sensor_loadADCSettings@addressOffset:	
  2970                           ; 1 bytes @ 0x8
  2971                           
  2972  0078                     MTOUCH_Sensor_RawSample_Get@name:	
  2973                           ; 1 bytes @ 0x8
  2974                           
  2975  0078                     memcpy@tmp:	
  2976                           ; 1 bytes @ 0x8
  2977                           
  2978                           
  2979                           ; 1 bytes @ 0x8
  2980  0078                     	ds	1
  2981  0079                     ??_MTOUCH_Sensor_InitializeAll:	
  2982  0079                     Sensor_postAcquisitionProcess@sensor:	
  2983                           ; 1 bytes @ 0x9
  2984                           
  2985  0079                     Sensor_loadADCSettings@sensor:	
  2986                           ; 1 bytes @ 0x9
  2987                           
  2988  0079                     Sensor_autoCalibration@adcIndex:	
  2989                           ; 1 bytes @ 0x9
  2990                           
  2991  0079                     Proximity_Reading_Update_Helper@prox:	
  2992                           ; 1 bytes @ 0x9
  2993                           
  2994  0079                     Proximity_Baseline_Initialize@prox:	
  2995                           ; 1 bytes @ 0x9
  2996                           
  2997  0079                     Proximity_Baseline_Get_helper@name:	
  2998                           ; 1 bytes @ 0x9
  2999                           
  3000  0079                     memcpy@d1:	
  3001                           ; 1 bytes @ 0x9
  3002                           
  3003                           
  3004                           ; 1 bytes @ 0x9
  3005  0079                     	ds	1
  3006  007A                     ??_Proximity_Reading_Update:	
  3007  007A                     ??_MTOUCH_Proximity_Baseline_Get:	
  3008                           ; 1 bytes @ 0xA
  3009                           
  3010  007A                     MTOUCH_Sensor_InitializeAll@sensor:	
  3011                           ; 1 bytes @ 0xA
  3012                           
  3013  007A                     Sensor_autoCalibration@sensor:	
  3014                           ; 1 bytes @ 0xA
  3015                           
  3016  007A                     Proximity_Reading_Update@prox:	
  3017                           ; 1 bytes @ 0xA
  3018                           
  3019  007A                     MTOUCH_Proximity_Baseline_Get@name:	
  3020                           ; 1 bytes @ 0xA
  3021                           
  3022  007A                     memcpy@d:	
  3023                           ; 1 bytes @ 0xA
  3024                           
  3025                           
  3026                           ; 1 bytes @ 0xA
  3027  007A                     	ds	1
  3028  007B                     ?_Sensor_Acq_ExecutePacket:	
  3029  007B                     ??_Proximity_Service:	
  3030                           ; 1 bytes @ 0xB
  3031                           
  3032  007B                     ??_MTOUCH_Initialize:	
  3033                           ; 1 bytes @ 0xB
  3034                           
  3035  007B                     ??_MTOUCH_Proximity_InitializeAll:	
  3036                           ; 1 bytes @ 0xB
  3037                           
  3038  007B                     ??_SYSTEM_Initialize:	
  3039                           ; 1 bytes @ 0xB
  3040                           
  3041  007B                     Sensor_Acq_ExecutePacket@sensor_adc2:	
  3042                           ; 1 bytes @ 0xB
  3043                           
  3044                           
  3045                           ; 1 bytes @ 0xB
  3046  007B                     	ds	1
  3047  007C                     ??_MTOUCH_Proximity_ServiceAll:	
  3048  007C                     ??_main:	
  3049                           ; 1 bytes @ 0xC
  3050                           
  3051                           
  3052                           	psect	cstackBANK0
  3053  0020                     __pcstackBANK0:	
  3054                           ; 1 bytes @ 0xC
  3055                           
  3056  0020                     ??_Sensor_Acq_ExecutePacket:	
  3057  0020                     ??_Proximity_Baseline_Initialize:	
  3058                           ; 1 bytes @ 0x0
  3059                           
  3060  0020                     ??_Proximity_Reading_Update_Helper:	
  3061                           ; 1 bytes @ 0x0
  3062                           
  3063  0020                     ?_MTOUCH_Proximity_Baseline_Get:	
  3064                           ; 1 bytes @ 0x0
  3065                           
  3066                           
  3067                           ; 4 bytes @ 0x0
  3068  0020                     	ds	1
  3069  0021                     Sensor_Acq_ExecutePacket@ADCOMCON_temp:	
  3070                           
  3071                           ; 1 bytes @ 0x1
  3072  0021                     	ds	1
  3073  0022                     Sensor_Acq_ExecutePacket@AD1CON2_temp:	
  3074                           
  3075                           ; 1 bytes @ 0x2
  3076  0022                     	ds	1
  3077  0023                     Sensor_Acq_ExecutePacket@AD2CON2_temp:	
  3078                           
  3079                           ; 1 bytes @ 0x3
  3080  0023                     	ds	1
  3081  0024                     Sensor_Acq_ExecutePacket@sensor1ForceEnabled:	
  3082                           
  3083                           ; 1 bytes @ 0x4
  3084  0024                     	ds	1
  3085  0025                     ?_Proximity_State_Initializing:	
  3086  0025                     ?_Proximity_State_NotActivated:	
  3087                           ; 1 bytes @ 0x5
  3088                           
  3089  0025                     ?_Proximity_State_Activated:	
  3090                           ; 1 bytes @ 0x5
  3091                           
  3092  0025                     ??_Proximity_Deviation_Update:	
  3093                           ; 1 bytes @ 0x5
  3094                           
  3095  0025                     ??_MTOUCH_DataStreamer_Service:	
  3096                           ; 1 bytes @ 0x5
  3097                           
  3098  0025                     Sensor_Acq_ExecutePacket@sensor2ForceEnabled:	
  3099                           ; 1 bytes @ 0x5
  3100                           
  3101  0025                     Proximity_State_Initializing@prox:	
  3102                           ; 1 bytes @ 0x5
  3103                           
  3104  0025                     Proximity_State_NotActivated@prox:	
  3105                           ; 1 bytes @ 0x5
  3106                           
  3107  0025                     Proximity_State_Activated@prox:	
  3108                           ; 1 bytes @ 0x5
  3109                           
  3110                           
  3111                           ; 1 bytes @ 0x5
  3112  0025                     	ds	1
  3113  0026                     ??_Proximity_State_Initializing:	
  3114  0026                     ??_Proximity_State_NotActivated:	
  3115                           ; 1 bytes @ 0x6
  3116                           
  3117  0026                     ??_Proximity_State_Activated:	
  3118                           ; 1 bytes @ 0x6
  3119                           
  3120  0026                     Sensor_Acq_ExecutePacket@ADxIF_flag:	
  3121                           ; 1 bytes @ 0x6
  3122                           
  3123                           
  3124                           ; 1 bytes @ 0x6
  3125  0026                     	ds	1
  3126  0027                     Sensor_Acq_ExecutePacket@activeSensor:	
  3127  0027                     MTOUCH_DataStreamer_Service@i:	
  3128                           ; 1 bytes @ 0x7
  3129                           
  3130                           
  3131                           ; 1 bytes @ 0x7
  3132  0027                     	ds	1
  3133  0028                     Sensor_Acq_ExecutePacket@last_a:	
  3134  0028                     MTOUCH_DataStreamer_Service@u16temp_output:	
  3135                           ; 2 bytes @ 0x8
  3136                           
  3137                           
  3138                           ; 2 bytes @ 0x8
  3139  0028                     	ds	2
  3140  002A                     MTOUCH_DataStreamer_Service@count_bytes_out:	
  3141  002A                     Sensor_Acq_ExecutePacket@last_b:	
  3142                           ; 1 bytes @ 0xA
  3143                           
  3144                           
  3145                           ; 2 bytes @ 0xA
  3146  002A                     	ds	2
  3147  002C                     Sensor_Acq_ExecutePacket@packet_counter:	
  3148                           
  3149                           ; 1 bytes @ 0xC
  3150  002C                     	ds	1
  3151  002D                     Sensor_Acq_ExecutePacket@sensor_adc1:	
  3152  002D                     Proximity_State_NotActivated@deviation:	
  3153                           ; 1 bytes @ 0xD
  3154                           
  3155                           
  3156                           ; 4 bytes @ 0xD
  3157  002D                     	ds	1
  3158  002E                     ?_Sensor_Scanfrequency_Evaluation:	
  3159  002E                     Sensor_Scanfrequency_Evaluation@sensor_adc2:	
  3160                           ; 1 bytes @ 0xE
  3161                           
  3162                           
  3163                           ; 1 bytes @ 0xE
  3164  002E                     	ds	1
  3165  002F                     ??_Sensor_Scanfrequency_Evaluation:	
  3166  002F                     Proximity_Deviation_Update@deviation:	
  3167                           ; 1 bytes @ 0xF
  3168                           
  3169                           
  3170                           ; 4 bytes @ 0xF
  3171  002F                     	ds	2
  3172  0031                     Sensor_Scanfrequency_Evaluation@sensor_adc1:	
  3173                           
  3174                           ; 1 bytes @ 0x11
  3175  0031                     	ds	1
  3176  0032                     Sensor_Scanfrequency_Evaluation@packet_noise_Max:	
  3177                           
  3178                           ; 2 bytes @ 0x12
  3179  0032                     	ds	1
  3180  0033                     Proximity_Deviation_Update@name:	
  3181                           
  3182                           ; 1 bytes @ 0x13
  3183  0033                     	ds	1
  3184  0034                     Sensor_Scanfrequency_Evaluation@best_sample_period:	
  3185  0034                     Proximity_Service@name:	
  3186                           ; 1 bytes @ 0x14
  3187                           
  3188                           
  3189                           ; 1 bytes @ 0x14
  3190  0034                     	ds	1
  3191  0035                     Sensor_Scanfrequency_Evaluation@retry:	
  3192  0035                     Proximity_Service@prox:	
  3193                           ; 1 bytes @ 0x15
  3194                           
  3195                           
  3196                           ; 1 bytes @ 0x15
  3197  0035                     	ds	1
  3198  0036                     Sensor_Scanfrequency_Evaluation@best_packet_sample:	
  3199                           
  3200                           ; 4 bytes @ 0x16
  3201  0036                     	ds	4
  3202  003A                     Sensor_Scanfrequency_Evaluation@i:	
  3203                           
  3204                           ; 1 bytes @ 0x1A
  3205  003A                     	ds	1
  3206  003B                     ?_Sensor_Acquisition:	
  3207  003B                     Sensor_Acquisition@sensor_adc2:	
  3208                           ; 1 bytes @ 0x1B
  3209                           
  3210                           
  3211                           ; 1 bytes @ 0x1B
  3212  003B                     	ds	1
  3213  003C                     ??_Sensor_Acquisition:	
  3214                           
  3215                           ; 1 bytes @ 0x1C
  3216  003C                     	ds	1
  3217  003D                     Sensor_Acquisition@retry:	
  3218                           
  3219                           ; 1 bytes @ 0x1D
  3220  003D                     	ds	1
  3221  003E                     Sensor_Acquisition@sensor_adc1:	
  3222                           
  3223                           ; 1 bytes @ 0x1E
  3224  003E                     	ds	1
  3225  003F                     ??_Sensor_Service:	
  3226                           
  3227                           ; 1 bytes @ 0x1F
  3228  003F                     	ds	3
  3229  0042                     Sensor_Service@scanGroup:	
  3230                           
  3231                           ; 1 bytes @ 0x22
  3232  0042                     	ds	1
  3233  0043                     Sensor_Service@error:	
  3234                           
  3235                           ; 1 bytes @ 0x23
  3236  0043                     	ds	1
  3237  0044                     Sensor_Service@sensor_adc1:	
  3238                           
  3239                           ; 1 bytes @ 0x24
  3240  0044                     	ds	1
  3241  0045                     Sensor_Service@sensor_adc2:	
  3242                           
  3243                           ; 1 bytes @ 0x25
  3244  0045                     	ds	1
  3245  0046                     ??_MTOUCH_Sensor_SampleAll:	
  3246                           
  3247                           ; 1 bytes @ 0x26
  3248  0046                     	ds	1
  3249  0047                     MTOUCH_Sensor_SampleAll@group:	
  3250                           
  3251                           ; 1 bytes @ 0x27
  3252  0047                     	ds	1
  3253  0048                     ??_MTOUCH_Service_Mainloop:	
  3254                           
  3255                           ; 1 bytes @ 0x28
  3256  0048                     	ds	1
  3257                           
  3258                           	psect	maintext
  3259  0B17                     __pmaintext:	
  3260 ;;
  3261 ;;Main: autosize = 0, tempsize = 0, incstack = 0, save=0
  3262 ;;
  3263 ;; *************** function _main *****************
  3264 ;; Defined at:
  3265 ;;		line 49 in file "main.c"
  3266 ;; Parameters:    Size  Location     Type
  3267 ;;		None
  3268 ;; Auto vars:     Size  Location     Type
  3269 ;;		None
  3270 ;; Return value:  Size  Location     Type
  3271 ;;                  1    wreg      void 
  3272 ;; Registers used:
  3273 ;;		wreg, fsr0l, fsr0h, fsr1l, fsr1h, status,2, status,0, pclath, cstack
  3274 ;; Tracked objects:
  3275 ;;		On entry : B1F/0
  3276 ;;		On exit  : 0/0
  3277 ;;		Unchanged: 0/0
  3278 ;; Data sizes:     COMMON   BANK0   BANK1   BANK2   BANK3   BANK4   BANK5   BANK6
  3279 ;;      Params:         0       0       0       0       0       0       0       0
  3280 ;;      Locals:         0       0       0       0       0       0       0       0
  3281 ;;      Temps:          0       0       0       0       0       0       0       0
  3282 ;;      Totals:         0       0       0       0       0       0       0       0
  3283 ;;Total ram usage:        0 bytes
  3284 ;; Hardware stack levels required when called:   12
  3285 ;; This function calls:
  3286 ;;		_MTOUCH_Proximity_isActivated
  3287 ;;		_MTOUCH_Service_Mainloop
  3288 ;;		_SYSTEM_Initialize
  3289 ;; This function is called by:
  3290 ;;		Startup code after reset
  3291 ;; This function uses a non-reentrant model
  3292 ;;
  3293                           
  3294                           
  3295                           ;psect for function _main
  3296  0B17                     _main:	
  3297  0B17                     l4733:	
  3298                           ;incstack = 0
  3299                           ; Regs used in _main: [wreg-fsr1h+status,2+status,0+pclath+cstack]
  3300                           
  3301                           
  3302                           ;main.c: 52:     SYSTEM_Initialize();
  3303  0B17  3189  2184  318B   	fcall	_SYSTEM_Initialize
  3304  0B1A                     l4735:	
  3305                           
  3306                           ;main.c: 58:     (INTCONbits.GIE = 1);
  3307  0B1A  178B               	bsf	11,7	;volatile
  3308  0B1B                     l4737:	
  3309                           
  3310                           ;main.c: 61:     (INTCONbits.PEIE = 1);
  3311  0B1B  170B               	bsf	11,6	;volatile
  3312  0B1C                     l4739:	
  3313  0B1C  0022               	movlb	2	; select bank2
  3314  0B1D  178E               	bsf	14,7	;volatile
  3315  0B1E                     l876:	
  3316                           ;main.c: 72:     while (1)
  3317                           
  3318                           
  3319                           ;main.c: 73:     {;main.c: 75:         if(MTOUCH_Service_Mainloop())
  3320  0B1E  318B  2359  318B   	fcall	_MTOUCH_Service_Mainloop
  3321  0B21  3A00               	xorlw	0
  3322  0B22  1903               	skipnz
  3323  0B23  2B25               	goto	u4411
  3324  0B24  2B26               	goto	u4410
  3325  0B25                     u4411:	
  3326  0B25  2B1E               	goto	l876
  3327  0B26                     u4410:	
  3328  0B26                     l4741:	
  3329                           
  3330                           ;main.c: 76:         {;main.c: 79:             if(MTOUCH_Proximity_isActivated(0))
  3331  0B26  3000               	movlw	0
  3332  0B27  318A  2203  318B   	fcall	_MTOUCH_Proximity_isActivated
  3333  0B2A  3A00               	xorlw	0
  3334  0B2B  1903               	skipnz
  3335  0B2C  2B2E               	goto	u4421
  3336  0B2D  2B2F               	goto	u4420
  3337  0B2E                     u4421:	
  3338  0B2E  2B32               	goto	l882
  3339  0B2F                     u4420:	
  3340  0B2F                     l879:	
  3341                           ;main.c: 80:             {;main.c: 82:                 do { LATCbits.LATC0 = 1; } while(
      +                          0);
  3342                           
  3343  0B2F  0022               	movlb	2	; select bank2
  3344  0B30  140E               	bsf	14,0	;volatile
  3345  0B31  2B1E               	goto	l876
  3346  0B32                     l882:	
  3347                           ;main.c: 85:             {;main.c: 87:                 do { LATCbits.LATC0 = 0; } while(
      +                          0);
  3348                           
  3349  0B32  0022               	movlb	2	; select bank2
  3350  0B33  100E               	bcf	14,0	;volatile
  3351  0B34  2B1E               	goto	l876
  3352  0B35  3180  282E         	ljmp	start
  3353  0B37                     __end_of_main:	
  3354                           
  3355                           	psect	text1
  3356  0984                     __ptext1:	
  3357 ;; *************** function _SYSTEM_Initialize *****************
  3358 ;; Defined at:
  3359 ;;		line 50 in file "mcc_generated_files/mcc.c"
  3360 ;; Parameters:    Size  Location     Type
  3361 ;;		None
  3362 ;; Auto vars:     Size  Location     Type
  3363 ;;		None
  3364 ;; Return value:  Size  Location     Type
  3365 ;;                  1    wreg      void 
  3366 ;; Registers used:
  3367 ;;		wreg, fsr0l, fsr0h, fsr1l, fsr1h, status,2, status,0, pclath, cstack
  3368 ;; Tracked objects:
  3369 ;;		On entry : 0/0
  3370 ;;		On exit  : 0/0
  3371 ;;		Unchanged: 0/0
  3372 ;; Data sizes:     COMMON   BANK0   BANK1   BANK2   BANK3   BANK4   BANK5   BANK6
  3373 ;;      Params:         0       0       0       0       0       0       0       0
  3374 ;;      Locals:         0       0       0       0       0       0       0       0
  3375 ;;      Temps:          0       0       0       0       0       0       0       0
  3376 ;;      Totals:         0       0       0       0       0       0       0       0
  3377 ;;Total ram usage:        0 bytes
  3378 ;; Hardware stack levels used:    1
  3379 ;; Hardware stack levels required when called:    9
  3380 ;; This function calls:
  3381 ;;		_EUSART_Initialize
  3382 ;;		_MTOUCH_Initialize
  3383 ;;		_OSCILLATOR_Initialize
  3384 ;;		_PIN_MANAGER_Initialize
  3385 ;;		_TMR2_Initialize
  3386 ;;		_WDT_Initialize
  3387 ;; This function is called by:
  3388 ;;		_main
  3389 ;; This function uses a non-reentrant model
  3390 ;;
  3391                           
  3392                           
  3393                           ;psect for function _SYSTEM_Initialize
  3394  0984                     _SYSTEM_Initialize:	
  3395  0984                     l4673:	
  3396                           ;incstack = 0
  3397                           ; Regs used in _SYSTEM_Initialize: [wreg-fsr1h+status,2+status,0+pclath+cstack]
  3398                           
  3399                           
  3400                           ;mcc_generated_files/mcc.c: 53:     PIN_MANAGER_Initialize();
  3401  0984  318A  2281  3189   	fcall	_PIN_MANAGER_Initialize
  3402                           
  3403                           ;mcc_generated_files/mcc.c: 54:     OSCILLATOR_Initialize();
  3404  0987  3188  2051  3189   	fcall	_OSCILLATOR_Initialize
  3405                           
  3406                           ;mcc_generated_files/mcc.c: 55:     WDT_Initialize();
  3407  098A  3188  2015  3189   	fcall	_WDT_Initialize
  3408                           
  3409                           ;mcc_generated_files/mcc.c: 56:     TMR2_Initialize();
  3410  098D  3188  2080  3189   	fcall	_TMR2_Initialize
  3411                           
  3412                           ;mcc_generated_files/mcc.c: 57:     EUSART_Initialize();
  3413  0990  318D  2541  3189   	fcall	_EUSART_Initialize
  3414  0993                     l4675:	
  3415                           
  3416                           ;mcc_generated_files/mcc.c: 58:     MTOUCH_Initialize();
  3417  0993  3188  20E7  3189   	fcall	_MTOUCH_Initialize
  3418  0996                     l783:	
  3419  0996  0008               	return
  3420  0997                     __end_of_SYSTEM_Initialize:	
  3421                           
  3422                           	psect	text2
  3423  0815                     __ptext2:	
  3424 ;; *************** function _WDT_Initialize *****************
  3425 ;; Defined at:
  3426 ;;		line 69 in file "mcc_generated_files/mcc.c"
  3427 ;; Parameters:    Size  Location     Type
  3428 ;;		None
  3429 ;; Auto vars:     Size  Location     Type
  3430 ;;		None
  3431 ;; Return value:  Size  Location     Type
  3432 ;;                  1    wreg      void 
  3433 ;; Registers used:
  3434 ;;		wreg
  3435 ;; Tracked objects:
  3436 ;;		On entry : 0/0
  3437 ;;		On exit  : 0/0
  3438 ;;		Unchanged: 0/0
  3439 ;; Data sizes:     COMMON   BANK0   BANK1   BANK2   BANK3   BANK4   BANK5   BANK6
  3440 ;;      Params:         0       0       0       0       0       0       0       0
  3441 ;;      Locals:         0       0       0       0       0       0       0       0
  3442 ;;      Temps:          0       0       0       0       0       0       0       0
  3443 ;;      Totals:         0       0       0       0       0       0       0       0
  3444 ;;Total ram usage:        0 bytes
  3445 ;; Hardware stack levels used:    1
  3446 ;; Hardware stack levels required when called:    4
  3447 ;; This function calls:
  3448 ;;		Nothing
  3449 ;; This function is called by:
  3450 ;;		_SYSTEM_Initialize
  3451 ;; This function uses a non-reentrant model
  3452 ;;
  3453                           
  3454                           
  3455                           ;psect for function _WDT_Initialize
  3456  0815                     _WDT_Initialize:	
  3457  0815                     l2473:	
  3458                           ;incstack = 0
  3459                           ; Regs used in _WDT_Initialize: [wreg]
  3460                           
  3461                           
  3462                           ;mcc_generated_files/mcc.c: 72:     WDTCON = 0x16;
  3463  0815  3016               	movlw	22
  3464  0816  0021               	movlb	1	; select bank1
  3465  0817  0097               	movwf	23	;volatile
  3466  0818                     l789:	
  3467  0818  0008               	return
  3468  0819                     __end_of_WDT_Initialize:	
  3469                           
  3470                           	psect	text3
  3471  0880                     __ptext3:	
  3472 ;; *************** function _TMR2_Initialize *****************
  3473 ;; Defined at:
  3474 ;;		line 62 in file "mcc_generated_files/tmr2.c"
  3475 ;; Parameters:    Size  Location     Type
  3476 ;;		None
  3477 ;; Auto vars:     Size  Location     Type
  3478 ;;		None
  3479 ;; Return value:  Size  Location     Type
  3480 ;;                  1    wreg      void 
  3481 ;; Registers used:
  3482 ;;		wreg, status,2
  3483 ;; Tracked objects:
  3484 ;;		On entry : 0/0
  3485 ;;		On exit  : 0/0
  3486 ;;		Unchanged: 0/0
  3487 ;; Data sizes:     COMMON   BANK0   BANK1   BANK2   BANK3   BANK4   BANK5   BANK6
  3488 ;;      Params:         0       0       0       0       0       0       0       0
  3489 ;;      Locals:         0       0       0       0       0       0       0       0
  3490 ;;      Temps:          0       0       0       0       0       0       0       0
  3491 ;;      Totals:         0       0       0       0       0       0       0       0
  3492 ;;Total ram usage:        0 bytes
  3493 ;; Hardware stack levels used:    1
  3494 ;; Hardware stack levels required when called:    4
  3495 ;; This function calls:
  3496 ;;		Nothing
  3497 ;; This function is called by:
  3498 ;;		_SYSTEM_Initialize
  3499 ;; This function uses a non-reentrant model
  3500 ;;
  3501                           
  3502                           
  3503                           ;psect for function _TMR2_Initialize
  3504  0880                     _TMR2_Initialize:	
  3505  0880                     l2475:	
  3506                           ;incstack = 0
  3507                           ; Regs used in _TMR2_Initialize: [wreg+status,2]
  3508                           
  3509                           
  3510                           ;mcc_generated_files/tmr2.c: 67:     PR2 = 0xFF;
  3511  0880  30FF               	movlw	255
  3512  0881  0020               	movlb	0	; select bank0
  3513  0882  009B               	movwf	27	;volatile
  3514  0883                     l2477:	
  3515                           
  3516                           ;mcc_generated_files/tmr2.c: 70:     TMR2 = 0x00;
  3517  0883  019A               	clrf	26	;volatile
  3518  0884                     l2479:	
  3519                           
  3520                           ;mcc_generated_files/tmr2.c: 73:     PIR1bits.TMR2IF = 0;
  3521  0884  1091               	bcf	17,1	;volatile
  3522  0885                     l2481:	
  3523                           
  3524                           ;mcc_generated_files/tmr2.c: 76:     T2CON = 0x04;
  3525  0885  3004               	movlw	4
  3526  0886  009C               	movwf	28	;volatile
  3527  0887                     l899:	
  3528  0887  0008               	return
  3529  0888                     __end_of_TMR2_Initialize:	
  3530                           
  3531                           	psect	text4
  3532  0A81                     __ptext4:	
  3533 ;; *************** function _PIN_MANAGER_Initialize *****************
  3534 ;; Defined at:
  3535 ;;		line 55 in file "mcc_generated_files/pin_manager.c"
  3536 ;; Parameters:    Size  Location     Type
  3537 ;;		None
  3538 ;; Auto vars:     Size  Location     Type
  3539 ;;		None
  3540 ;; Return value:  Size  Location     Type
  3541 ;;                  1    wreg      void 
  3542 ;; Registers used:
  3543 ;;		wreg, status,2
  3544 ;; Tracked objects:
  3545 ;;		On entry : 0/0
  3546 ;;		On exit  : 0/0
  3547 ;;		Unchanged: 0/0
  3548 ;; Data sizes:     COMMON   BANK0   BANK1   BANK2   BANK3   BANK4   BANK5   BANK6
  3549 ;;      Params:         0       0       0       0       0       0       0       0
  3550 ;;      Locals:         0       0       0       0       0       0       0       0
  3551 ;;      Temps:          0       0       0       0       0       0       0       0
  3552 ;;      Totals:         0       0       0       0       0       0       0       0
  3553 ;;Total ram usage:        0 bytes
  3554 ;; Hardware stack levels used:    1
  3555 ;; Hardware stack levels required when called:    4
  3556 ;; This function calls:
  3557 ;;		Nothing
  3558 ;; This function is called by:
  3559 ;;		_SYSTEM_Initialize
  3560 ;; This function uses a non-reentrant model
  3561 ;;
  3562                           
  3563                           
  3564                           ;psect for function _PIN_MANAGER_Initialize
  3565  0A81                     _PIN_MANAGER_Initialize:	
  3566  0A81                     l2455:	
  3567                           ;incstack = 0
  3568                           ; Regs used in _PIN_MANAGER_Initialize: [wreg+status,2]
  3569                           
  3570                           
  3571                           ;mcc_generated_files/pin_manager.c: 60:     LATA = 0x10;
  3572  0A81  3010               	movlw	16
  3573  0A82  0022               	movlb	2	; select bank2
  3574  0A83  008C               	movwf	12	;volatile
  3575  0A84                     l2457:	
  3576                           
  3577                           ;mcc_generated_files/pin_manager.c: 61:     LATB = 0x00;
  3578  0A84  018D               	clrf	13	;volatile
  3579  0A85                     l2459:	
  3580                           
  3581                           ;mcc_generated_files/pin_manager.c: 62:     LATC = 0x00;
  3582  0A85  018E               	clrf	14	;volatile
  3583                           
  3584                           ;mcc_generated_files/pin_manager.c: 67:     TRISA = 0x2F;
  3585  0A86  302F               	movlw	47
  3586  0A87  0021               	movlb	1	; select bank1
  3587  0A88  008C               	movwf	12	;volatile
  3588                           
  3589                           ;mcc_generated_files/pin_manager.c: 68:     TRISB = 0x70;
  3590  0A89  3070               	movlw	112
  3591  0A8A  008D               	movwf	13	;volatile
  3592                           
  3593                           ;mcc_generated_files/pin_manager.c: 69:     TRISC = 0x6A;
  3594  0A8B  306A               	movlw	106
  3595  0A8C  008E               	movwf	14	;volatile
  3596                           
  3597                           ;mcc_generated_files/pin_manager.c: 74:     ANSELC = 0x7E;
  3598  0A8D  307E               	movlw	126
  3599  0A8E  0023               	movlb	3	; select bank3
  3600  0A8F  008E               	movwf	14	;volatile
  3601                           
  3602                           ;mcc_generated_files/pin_manager.c: 75:     ANSELB = 0x50;
  3603  0A90  3050               	movlw	80
  3604  0A91  008D               	movwf	13	;volatile
  3605                           
  3606                           ;mcc_generated_files/pin_manager.c: 76:     ANSELA = 0x27;
  3607  0A92  3027               	movlw	39
  3608  0A93  008C               	movwf	12	;volatile
  3609  0A94                     l2461:	
  3610                           
  3611                           ;mcc_generated_files/pin_manager.c: 81:     WPUB = 0x00;
  3612  0A94  0024               	movlb	4	; select bank4
  3613  0A95  018D               	clrf	13	;volatile
  3614  0A96                     l2463:	
  3615                           
  3616                           ;mcc_generated_files/pin_manager.c: 82:     WPUA = 0x00;
  3617  0A96  018C               	clrf	12	;volatile
  3618  0A97                     l2465:	
  3619                           
  3620                           ;mcc_generated_files/pin_manager.c: 83:     OPTION_REGbits.nWPUEN = 1;
  3621  0A97  0021               	movlb	1	; select bank1
  3622  0A98  1795               	bsf	21,7	;volatile
  3623  0A99                     l2467:	
  3624                           
  3625                           ;mcc_generated_files/pin_manager.c: 89:     APFCON = 0x00;
  3626  0A99  0022               	movlb	2	; select bank2
  3627  0A9A  019D               	clrf	29	;volatile
  3628  0A9B                     l818:	
  3629  0A9B  0008               	return
  3630  0A9C                     __end_of_PIN_MANAGER_Initialize:	
  3631                           
  3632                           	psect	text5
  3633  0851                     __ptext5:	
  3634 ;; *************** function _OSCILLATOR_Initialize *****************
  3635 ;; Defined at:
  3636 ;;		line 61 in file "mcc_generated_files/mcc.c"
  3637 ;; Parameters:    Size  Location     Type
  3638 ;;		None
  3639 ;; Auto vars:     Size  Location     Type
  3640 ;;		None
  3641 ;; Return value:  Size  Location     Type
  3642 ;;                  1    wreg      void 
  3643 ;; Registers used:
  3644 ;;		wreg, status,2
  3645 ;; Tracked objects:
  3646 ;;		On entry : 0/0
  3647 ;;		On exit  : 0/0
  3648 ;;		Unchanged: 0/0
  3649 ;; Data sizes:     COMMON   BANK0   BANK1   BANK2   BANK3   BANK4   BANK5   BANK6
  3650 ;;      Params:         0       0       0       0       0       0       0       0
  3651 ;;      Locals:         0       0       0       0       0       0       0       0
  3652 ;;      Temps:          0       0       0       0       0       0       0       0
  3653 ;;      Totals:         0       0       0       0       0       0       0       0
  3654 ;;Total ram usage:        0 bytes
  3655 ;; Hardware stack levels used:    1
  3656 ;; Hardware stack levels required when called:    4
  3657 ;; This function calls:
  3658 ;;		Nothing
  3659 ;; This function is called by:
  3660 ;;		_SYSTEM_Initialize
  3661 ;; This function uses a non-reentrant model
  3662 ;;
  3663                           
  3664                           
  3665                           ;psect for function _OSCILLATOR_Initialize
  3666  0851                     _OSCILLATOR_Initialize:	
  3667  0851                     l2469:	
  3668                           ;incstack = 0
  3669                           ; Regs used in _OSCILLATOR_Initialize: [wreg+status,2]
  3670                           
  3671                           
  3672                           ;mcc_generated_files/mcc.c: 64:     OSCCON = 0x70;
  3673  0851  3070               	movlw	112
  3674  0852  0021               	movlb	1	; select bank1
  3675  0853  0099               	movwf	25	;volatile
  3676  0854                     l2471:	
  3677                           
  3678                           ;mcc_generated_files/mcc.c: 66:     BORCON = 0x00;
  3679  0854  0022               	movlb	2	; select bank2
  3680  0855  0196               	clrf	22	;volatile
  3681  0856                     l786:	
  3682  0856  0008               	return
  3683  0857                     __end_of_OSCILLATOR_Initialize:	
  3684                           
  3685                           	psect	text6
  3686  08E7                     __ptext6:	
  3687 ;; *************** function _MTOUCH_Initialize *****************
  3688 ;; Defined at:
  3689 ;;		line 80 in file "mcc_generated_files/mtouch/mtouch.c"
  3690 ;; Parameters:    Size  Location     Type
  3691 ;;		None
  3692 ;; Auto vars:     Size  Location     Type
  3693 ;;		None
  3694 ;; Return value:  Size  Location     Type
  3695 ;;                  1    wreg      void 
  3696 ;; Registers used:
  3697 ;;		wreg, fsr0l, fsr0h, fsr1l, fsr1h, status,2, status,0, pclath, cstack
  3698 ;; Tracked objects:
  3699 ;;		On entry : 0/0
  3700 ;;		On exit  : 0/0
  3701 ;;		Unchanged: 0/0
  3702 ;; Data sizes:     COMMON   BANK0   BANK1   BANK2   BANK3   BANK4   BANK5   BANK6
  3703 ;;      Params:         0       0       0       0       0       0       0       0
  3704 ;;      Locals:         0       0       0       0       0       0       0       0
  3705 ;;      Temps:          0       0       0       0       0       0       0       0
  3706 ;;      Totals:         0       0       0       0       0       0       0       0
  3707 ;;Total ram usage:        0 bytes
  3708 ;; Hardware stack levels used:    1
  3709 ;; Hardware stack levels required when called:    8
  3710 ;; This function calls:
  3711 ;;		_MTOUCH_DataStreamer_Initialize
  3712 ;;		_MTOUCH_Proximity_InitializeAll
  3713 ;;		_MTOUCH_Sensor_InitializeAll
  3714 ;;		_MTOUCH_Sensor_Sampled_ResetAll
  3715 ;;		_MTOUCH_Sensor_Scan_Initialize
  3716 ;; This function is called by:
  3717 ;;		_SYSTEM_Initialize
  3718 ;; This function uses a non-reentrant model
  3719 ;;
  3720                           
  3721                           
  3722                           ;psect for function _MTOUCH_Initialize
  3723  08E7                     _MTOUCH_Initialize:	
  3724  08E7                     l4589:	
  3725                           ;incstack = 0
  3726                           ; Regs used in _MTOUCH_Initialize: [wreg-fsr1h+status,2+status,0+pclath+cstack]
  3727                           
  3728                           
  3729                           ;mcc_generated_files/mtouch/mtouch.c: 82:     MTOUCH_Sensor_InitializeAll();
  3730  08E7  3188  20C8  3188   	fcall	_MTOUCH_Sensor_InitializeAll
  3731  08EA                     l4591:	
  3732                           
  3733                           ;mcc_generated_files/mtouch/mtouch.c: 83:     MTOUCH_Proximity_InitializeAll();
  3734  08EA  3189  213B  3188   	fcall	_MTOUCH_Proximity_InitializeAll
  3735  08ED                     l4593:	
  3736                           
  3737                           ;mcc_generated_files/mtouch/mtouch.c: 85:     MTOUCH_DataStreamer_Initialize();
  3738  08ED  3188  2002  3188   	fcall	_MTOUCH_DataStreamer_Initialize
  3739  08F0                     l4595:	
  3740                           
  3741                           ;mcc_generated_files/mtouch/mtouch.c: 87:     MTOUCH_Sensor_Sampled_ResetAll();
  3742  08F0  318A  22BA  3188   	fcall	_MTOUCH_Sensor_Sampled_ResetAll
  3743  08F3                     l4597:	
  3744                           
  3745                           ;mcc_generated_files/mtouch/mtouch.c: 88:     MTOUCH_Sensor_Scan_Initialize();
  3746  08F3  3188  20D7  3188   	fcall	_MTOUCH_Sensor_Scan_Initialize
  3747  08F6                     l948:	
  3748  08F6  0008               	return
  3749  08F7                     __end_of_MTOUCH_Initialize:	
  3750                           
  3751                           	psect	text7
  3752  08C8                     __ptext7:	
  3753 ;; *************** function _MTOUCH_Sensor_InitializeAll *****************
  3754 ;; Defined at:
  3755 ;;		line 206 in file "mcc_generated_files/mtouch/mtouch_sensor.c"
  3756 ;; Parameters:    Size  Location     Type
  3757 ;;		None
  3758 ;; Auto vars:     Size  Location     Type
  3759 ;;  sensor          1   10[COMMON] enum E2854
  3760 ;; Return value:  Size  Location     Type
  3761 ;;                  1    wreg      void 
  3762 ;; Registers used:
  3763 ;;		wreg, fsr1l, fsr1h, status,2, status,0, pclath, cstack
  3764 ;; Tracked objects:
  3765 ;;		On entry : 0/0
  3766 ;;		On exit  : 0/0
  3767 ;;		Unchanged: 0/0
  3768 ;; Data sizes:     COMMON   BANK0   BANK1   BANK2   BANK3   BANK4   BANK5   BANK6
  3769 ;;      Params:         0       0       0       0       0       0       0       0
  3770 ;;      Locals:         1       0       0       0       0       0       0       0
  3771 ;;      Temps:          1       0       0       0       0       0       0       0
  3772 ;;      Totals:         2       0       0       0       0       0       0       0
  3773 ;;Total ram usage:        2 bytes
  3774 ;; Hardware stack levels used:    1
  3775 ;; Hardware stack levels required when called:    7
  3776 ;; This function calls:
  3777 ;;		_MTOUCH_Sensor_Initialize
  3778 ;; This function is called by:
  3779 ;;		_MTOUCH_Initialize
  3780 ;; This function uses a non-reentrant model
  3781 ;;
  3782                           
  3783                           
  3784                           ;psect for function _MTOUCH_Sensor_InitializeAll
  3785  08C8                     _MTOUCH_Sensor_InitializeAll:	
  3786  08C8                     l4481:	
  3787                           ;incstack = 0
  3788                           ; Regs used in _MTOUCH_Sensor_InitializeAll: [wreg+fsr1l+fsr1h+status,2+status,0+pclath+
      +                          cstack]
  3789                           
  3790                           
  3791                           ;mcc_generated_files/mtouch/mtouch_sensor.c: 208:     enum mtouch_sensor_names sensor;;m
      +                          cc_generated_files/mtouch/mtouch_sensor.c: 210:     for (sensor = 0; sensor < 1u; sensor
      +                          ++)
  3792  08C8  01FA               	clrf	MTOUCH_Sensor_InitializeAll@sensor
  3793  08C9                     l4487:	
  3794                           
  3795                           ;mcc_generated_files/mtouch/mtouch_sensor.c: 211:     {;mcc_generated_files/mtouch/mtouc
      +                          h_sensor.c: 212:         MTOUCH_Sensor_Initialize(sensor);
  3796  08C9  087A               	movf	MTOUCH_Sensor_InitializeAll@sensor,w
  3797  08CA  3189  21D6  3188   	fcall	_MTOUCH_Sensor_Initialize
  3798  08CD                     l4489:	
  3799                           
  3800                           ;mcc_generated_files/mtouch/mtouch_sensor.c: 213:     }
  3801  08CD  3001               	movlw	1
  3802  08CE  00F9               	movwf	??_MTOUCH_Sensor_InitializeAll
  3803  08CF  0879               	movf	??_MTOUCH_Sensor_InitializeAll,w
  3804  08D0  07FA               	addwf	MTOUCH_Sensor_InitializeAll@sensor,f
  3805  08D1                     l4491:	
  3806  08D1  087A               	movf	MTOUCH_Sensor_InitializeAll@sensor,w
  3807  08D2  1903               	btfsc	3,2
  3808  08D3  28D5               	goto	u4151
  3809  08D4  28D6               	goto	u4150
  3810  08D5                     u4151:	
  3811  08D5  28C9               	goto	l4487
  3812  08D6                     u4150:	
  3813  08D6                     l284:	
  3814  08D6  0008               	return
  3815  08D7                     __end_of_MTOUCH_Sensor_InitializeAll:	
  3816                           
  3817                           	psect	text8
  3818  09D6                     __ptext8:	
  3819 ;; *************** function _MTOUCH_Sensor_Initialize *****************
  3820 ;; Defined at:
  3821 ;;		line 191 in file "mcc_generated_files/mtouch/mtouch_sensor.c"
  3822 ;; Parameters:    Size  Location     Type
  3823 ;;  sensor          1    wreg     enum E2854
  3824 ;; Auto vars:     Size  Location     Type
  3825 ;;  sensor          1    8[COMMON] enum E2854
  3826 ;; Return value:  Size  Location     Type
  3827 ;;                  1    wreg      enum E2856
  3828 ;; Registers used:
  3829 ;;		wreg, fsr1l, fsr1h, status,2, status,0, pclath, cstack
  3830 ;; Tracked objects:
  3831 ;;		On entry : 0/0
  3832 ;;		On exit  : 0/0
  3833 ;;		Unchanged: 0/0
  3834 ;; Data sizes:     COMMON   BANK0   BANK1   BANK2   BANK3   BANK4   BANK5   BANK6
  3835 ;;      Params:         0       0       0       0       0       0       0       0
  3836 ;;      Locals:         1       0       0       0       0       0       0       0
  3837 ;;      Temps:          1       0       0       0       0       0       0       0
  3838 ;;      Totals:         2       0       0       0       0       0       0       0
  3839 ;;Total ram usage:        2 bytes
  3840 ;; Hardware stack levels used:    1
  3841 ;; Hardware stack levels required when called:    6
  3842 ;; This function calls:
  3843 ;;		_MTOUCH_Sensor_Calibrate
  3844 ;;		_MTOUCH_Sensor_Enable
  3845 ;;		_Sensor_Sampled_Reset
  3846 ;;		___bmul
  3847 ;; This function is called by:
  3848 ;;		_MTOUCH_Sensor_InitializeAll
  3849 ;; This function uses a non-reentrant model
  3850 ;;
  3851                           
  3852                           
  3853                           ;psect for function _MTOUCH_Sensor_Initialize
  3854  09D6                     _MTOUCH_Sensor_Initialize:	
  3855                           
  3856                           ;incstack = 0
  3857                           ; Regs used in _MTOUCH_Sensor_Initialize: [wreg+fsr1l+fsr1h+status,2+status,0+pclath+cst
      +                          ack]
  3858                           ;MTOUCH_Sensor_Initialize@sensor stored from wreg
  3859  09D6  00F8               	movwf	MTOUCH_Sensor_Initialize@sensor
  3860  09D7                     l4397:	
  3861                           
  3862                           ;mcc_generated_files/mtouch/mtouch_sensor.c: 191: enum mtouch_sensor_error MTOUCH_Sensor
      +                          _Initialize(enum mtouch_sensor_names sensor);mcc_generated_files/mtouch/mtouch_sensor.c:
      +                           192: {;mcc_generated_files/mtouch/mtouch_sensor.c: 194:     MTOUCH_Sensor_Enable(sensor
      +                          );
  3863  09D7  0878               	movf	MTOUCH_Sensor_Initialize@sensor,w
  3864  09D8  3189  2171  3189   	fcall	_MTOUCH_Sensor_Enable
  3865                           
  3866                           ;mcc_generated_files/mtouch/mtouch_sensor.c: 195:     MTOUCH_Sensor_Calibrate(sensor);
  3867  09DB  0878               	movf	MTOUCH_Sensor_Initialize@sensor,w
  3868  09DC  3189  215E  3189   	fcall	_MTOUCH_Sensor_Calibrate
  3869                           
  3870                           ;mcc_generated_files/mtouch/mtouch_sensor.c: 196:     Sensor_Sampled_Reset(&mtouch_senso
      +                          r[sensor]);
  3871  09DF  3009               	movlw	9
  3872  09E0  00F7               	movwf	??_MTOUCH_Sensor_Initialize
  3873  09E1  0877               	movf	??_MTOUCH_Sensor_Initialize,w
  3874  09E2  00F1               	movwf	___bmul@multiplicand
  3875  09E3  0878               	movf	MTOUCH_Sensor_Initialize@sensor,w
  3876  09E4  3189  2197  3189   	fcall	___bmul
  3877  09E7  3EBB               	addlw	(low (_mtouch_sensor| 0))& (0+255)
  3878  09E8  3187  27F9  3189   	fcall	_Sensor_Sampled_Reset
  3879  09EB                     l279:	
  3880  09EB  0008               	return
  3881  09EC                     __end_of_MTOUCH_Sensor_Initialize:	
  3882                           
  3883                           	psect	text9
  3884  0971                     __ptext9:	
  3885 ;; *************** function _MTOUCH_Sensor_Enable *****************
  3886 ;; Defined at:
  3887 ;;		line 824 in file "mcc_generated_files/mtouch/mtouch_sensor.c"
  3888 ;; Parameters:    Size  Location     Type
  3889 ;;  sensor          1    wreg     enum E2854
  3890 ;; Auto vars:     Size  Location     Type
  3891 ;;  sensor          1    6[COMMON] enum E2854
  3892 ;; Return value:  Size  Location     Type
  3893 ;;                  1    wreg      void 
  3894 ;; Registers used:
  3895 ;;		wreg, fsr1l, fsr1h, status,2, status,0, pclath, cstack
  3896 ;; Tracked objects:
  3897 ;;		On entry : 0/0
  3898 ;;		On exit  : 0/0
  3899 ;;		Unchanged: 0/0
  3900 ;; Data sizes:     COMMON   BANK0   BANK1   BANK2   BANK3   BANK4   BANK5   BANK6
  3901 ;;      Params:         0       0       0       0       0       0       0       0
  3902 ;;      Locals:         1       0       0       0       0       0       0       0
  3903 ;;      Temps:          1       0       0       0       0       0       0       0
  3904 ;;      Totals:         2       0       0       0       0       0       0       0
  3905 ;;Total ram usage:        2 bytes
  3906 ;; Hardware stack levels used:    1
  3907 ;; Hardware stack levels required when called:    5
  3908 ;; This function calls:
  3909 ;;		___bmul
  3910 ;; This function is called by:
  3911 ;;		_MTOUCH_Sensor_Initialize
  3912 ;; This function uses a non-reentrant model
  3913 ;;
  3914                           
  3915                           
  3916                           ;psect for function _MTOUCH_Sensor_Enable
  3917  0971                     _MTOUCH_Sensor_Enable:	
  3918                           
  3919                           ;incstack = 0
  3920                           ; Regs used in _MTOUCH_Sensor_Enable: [wreg+fsr1l+fsr1h+status,2+status,0+pclath+cstack]
  3921                           ;MTOUCH_Sensor_Enable@sensor stored from wreg
  3922  0971  00F6               	movwf	MTOUCH_Sensor_Enable@sensor
  3923  0972                     l4333:	
  3924                           
  3925                           ;mcc_generated_files/mtouch/mtouch_sensor.c: 824: void MTOUCH_Sensor_Enable(enum mtouch_
      +                          sensor_names sensor);mcc_generated_files/mtouch/mtouch_sensor.c: 825: {;mcc_generated_fi
      +                          les/mtouch/mtouch_sensor.c: 826:     if(sensor < 1u)
  3926  0972  0876               	movf	MTOUCH_Sensor_Enable@sensor,w
  3927  0973  1D03               	btfss	3,2
  3928  0974  2976               	goto	u3911
  3929  0975  2977               	goto	u3910
  3930  0976                     u3911:	
  3931  0976  2983               	goto	l464
  3932  0977                     u3910:	
  3933  0977                     l4335:	
  3934                           
  3935                           ;mcc_generated_files/mtouch/mtouch_sensor.c: 827:         mtouch_sensor[sensor].enabled 
      +                          = 1;
  3936  0977  3009               	movlw	9
  3937  0978  00F5               	movwf	??_MTOUCH_Sensor_Enable
  3938  0979  0875               	movf	??_MTOUCH_Sensor_Enable,w
  3939  097A  00F1               	movwf	___bmul@multiplicand
  3940  097B  0876               	movf	MTOUCH_Sensor_Enable@sensor,w
  3941  097C  3189  2197  3189   	fcall	___bmul
  3942  097F  3EC3               	addlw	(low ((_mtouch_sensor| 0+8)))& (0+255)
  3943  0980  0086               	movwf	6
  3944  0981  0187               	clrf	7
  3945  0982  1581               	bsf	1,3
  3946  0983                     l464:	
  3947  0983  0008               	return
  3948  0984                     __end_of_MTOUCH_Sensor_Enable:	
  3949                           
  3950                           	psect	text10
  3951  095E                     __ptext10:	
  3952 ;; *************** function _MTOUCH_Sensor_Calibrate *****************
  3953 ;; Defined at:
  3954 ;;		line 887 in file "mcc_generated_files/mtouch/mtouch_sensor.c"
  3955 ;; Parameters:    Size  Location     Type
  3956 ;;  sensor          1    wreg     enum E2854
  3957 ;; Auto vars:     Size  Location     Type
  3958 ;;  sensor          1    6[COMMON] enum E2854
  3959 ;; Return value:  Size  Location     Type
  3960 ;;                  1    wreg      void 
  3961 ;; Registers used:
  3962 ;;		wreg, fsr1l, fsr1h, status,2, status,0, pclath, cstack
  3963 ;; Tracked objects:
  3964 ;;		On entry : 0/0
  3965 ;;		On exit  : 0/0
  3966 ;;		Unchanged: 0/0
  3967 ;; Data sizes:     COMMON   BANK0   BANK1   BANK2   BANK3   BANK4   BANK5   BANK6
  3968 ;;      Params:         0       0       0       0       0       0       0       0
  3969 ;;      Locals:         1       0       0       0       0       0       0       0
  3970 ;;      Temps:          1       0       0       0       0       0       0       0
  3971 ;;      Totals:         2       0       0       0       0       0       0       0
  3972 ;;Total ram usage:        2 bytes
  3973 ;; Hardware stack levels used:    1
  3974 ;; Hardware stack levels required when called:    5
  3975 ;; This function calls:
  3976 ;;		___bmul
  3977 ;; This function is called by:
  3978 ;;		_MTOUCH_Sensor_Initialize
  3979 ;; This function uses a non-reentrant model
  3980 ;;
  3981                           
  3982                           
  3983                           ;psect for function _MTOUCH_Sensor_Calibrate
  3984  095E                     _MTOUCH_Sensor_Calibrate:	
  3985                           
  3986                           ;incstack = 0
  3987                           ; Regs used in _MTOUCH_Sensor_Calibrate: [wreg+fsr1l+fsr1h+status,2+status,0+pclath+csta
      +                          ck]
  3988                           ;MTOUCH_Sensor_Calibrate@sensor stored from wreg
  3989  095E  00F6               	movwf	MTOUCH_Sensor_Calibrate@sensor
  3990  095F                     l4337:	
  3991                           
  3992                           ;mcc_generated_files/mtouch/mtouch_sensor.c: 887: void MTOUCH_Sensor_Calibrate(enum mtou
      +                          ch_sensor_names sensor);mcc_generated_files/mtouch/mtouch_sensor.c: 888: {;mcc_generated
      +                          _files/mtouch/mtouch_sensor.c: 889:     if(sensor < 1u)
  3993  095F  0876               	movf	MTOUCH_Sensor_Calibrate@sensor,w
  3994  0960  1D03               	btfss	3,2
  3995  0961  2963               	goto	u3921
  3996  0962  2964               	goto	u3920
  3997  0963                     u3921:	
  3998  0963  2970               	goto	l492
  3999  0964                     u3920:	
  4000  0964                     l4339:	
  4001                           
  4002                           ;mcc_generated_files/mtouch/mtouch_sensor.c: 890:     {;mcc_generated_files/mtouch/mtouc
      +                          h_sensor.c: 891:         mtouch_sensor[sensor].calibrated = 0;
  4003  0964  3009               	movlw	9
  4004  0965  00F5               	movwf	??_MTOUCH_Sensor_Calibrate
  4005  0966  0875               	movf	??_MTOUCH_Sensor_Calibrate,w
  4006  0967  00F1               	movwf	___bmul@multiplicand
  4007  0968  0876               	movf	MTOUCH_Sensor_Calibrate@sensor,w
  4008  0969  3189  2197  3189   	fcall	___bmul
  4009  096C  3EC3               	addlw	(low ((_mtouch_sensor| 0+8)))& (0+255)
  4010  096D  0086               	movwf	6
  4011  096E  0187               	clrf	7
  4012  096F  1101               	bcf	1,2
  4013  0970                     l492:	
  4014  0970  0008               	return
  4015  0971                     __end_of_MTOUCH_Sensor_Calibrate:	
  4016                           
  4017                           	psect	text11
  4018  093B                     __ptext11:	
  4019 ;; *************** function _MTOUCH_Proximity_InitializeAll *****************
  4020 ;; Defined at:
  4021 ;;		line 161 in file "mcc_generated_files/mtouch/mtouch_proximity.c"
  4022 ;; Parameters:    Size  Location     Type
  4023 ;;		None
  4024 ;; Auto vars:     Size  Location     Type
  4025 ;;		None
  4026 ;; Return value:  Size  Location     Type
  4027 ;;                  1    wreg      void 
  4028 ;; Registers used:
  4029 ;;		wreg, fsr0l, fsr0h, fsr1l, fsr1h, status,2, status,0, pclath, cstack
  4030 ;; Tracked objects:
  4031 ;;		On entry : 0/0
  4032 ;;		On exit  : 0/0
  4033 ;;		Unchanged: 0/0
  4034 ;; Data sizes:     COMMON   BANK0   BANK1   BANK2   BANK3   BANK4   BANK5   BANK6
  4035 ;;      Params:         0       0       0       0       0       0       0       0
  4036 ;;      Locals:         0       0       0       0       0       0       0       0
  4037 ;;      Temps:          0       0       0       0       0       0       0       0
  4038 ;;      Totals:         0       0       0       0       0       0       0       0
  4039 ;;Total ram usage:        0 bytes
  4040 ;; Hardware stack levels used:    1
  4041 ;; Hardware stack levels required when called:    5
  4042 ;; This function calls:
  4043 ;;		_MTOUCH_Proximity_Initialize
  4044 ;;		_memcpy
  4045 ;; This function is called by:
  4046 ;;		_MTOUCH_Initialize
  4047 ;; This function uses a non-reentrant model
  4048 ;;
  4049                           
  4050                           
  4051                           ;psect for function _MTOUCH_Proximity_InitializeAll
  4052  093B                     _MTOUCH_Proximity_InitializeAll:	
  4053  093B                     l3647:	
  4054                           ;incstack = 0
  4055                           ; Regs used in _MTOUCH_Proximity_InitializeAll: [wreg-fsr1h+status,2+status,0+pclath+cst
      +                          ack]
  4056                           
  4057                           
  4058                           ;mcc_generated_files/mtouch/mtouch_proximity.c: 163:     memcpy(mtouch_proximity,mtouch_
      +                          proximity_init,sizeof(mtouch_proximity_init));
  4059  093B  3000               	movlw	low (_mtouch_proximity_init| (0+32768))
  4060  093C  00F1               	movwf	memcpy@s1
  4061  093D  3090               	movlw	high (_mtouch_proximity_init| (0+32768))
  4062  093E  00F2               	movwf	memcpy@s1+1
  4063  093F  3012               	movlw	18
  4064  0940  00F3               	movwf	memcpy@n
  4065  0941  3000               	movlw	0
  4066  0942  00F4               	movwf	memcpy@n+1
  4067  0943  3058               	movlw	(low (_mtouch_proximity| 0))& (0+255)
  4068  0944  318C  246A  3189   	fcall	_memcpy
  4069  0947                     l3649:	
  4070                           
  4071                           ;mcc_generated_files/mtouch/mtouch_proximity.c: 165:     MTOUCH_Proximity_Initialize(Pro
      +                          ximity0);
  4072  0947  3000               	movlw	0
  4073  0948  318B  239F  3189   	fcall	_MTOUCH_Proximity_Initialize
  4074  094B                     l606:	
  4075  094B  0008               	return
  4076  094C                     __end_of_MTOUCH_Proximity_InitializeAll:	
  4077                           
  4078                           	psect	text12
  4079  0C6A                     __ptext12:	
  4080 ;; *************** function _memcpy *****************
  4081 ;; Defined at:
  4082 ;;		line 4 in file "C:\Program Files (x86)\Microchip\xc8\v2.10\pic\sources\c99\common\memcpy.c"
  4083 ;; Parameters:    Size  Location     Type
  4084 ;;  d1              1    wreg     PTR void 
  4085 ;;		 -> mtouch_proximity(18), 
  4086 ;;  s1              2    1[COMMON] PTR const void 
  4087 ;;		 -> mtouch_proximity_init(18), 
  4088 ;;  n               2    3[COMMON] unsigned int 
  4089 ;; Auto vars:     Size  Location     Type
  4090 ;;  d1              1    9[COMMON] PTR void 
  4091 ;;		 -> mtouch_proximity(18), 
  4092 ;;  s               2    6[COMMON] PTR const unsigned char 
  4093 ;;		 -> mtouch_proximity_init(18), 
  4094 ;;  d               1   10[COMMON] PTR unsigned char 
  4095 ;;		 -> mtouch_proximity(18), 
  4096 ;;  tmp             1    8[COMMON] unsigned char 
  4097 ;; Return value:  Size  Location     Type
  4098 ;;                  1    wreg      PTR void 
  4099 ;; Registers used:
  4100 ;;		wreg, fsr0l, fsr0h, fsr1l, fsr1h, status,2, status,0, pclath
  4101 ;; Tracked objects:
  4102 ;;		On entry : 0/0
  4103 ;;		On exit  : 0/0
  4104 ;;		Unchanged: 0/0
  4105 ;; Data sizes:     COMMON   BANK0   BANK1   BANK2   BANK3   BANK4   BANK5   BANK6
  4106 ;;      Params:         4       0       0       0       0       0       0       0
  4107 ;;      Locals:         5       0       0       0       0       0       0       0
  4108 ;;      Temps:          1       0       0       0       0       0       0       0
  4109 ;;      Totals:        10       0       0       0       0       0       0       0
  4110 ;;Total ram usage:       10 bytes
  4111 ;; Hardware stack levels used:    1
  4112 ;; Hardware stack levels required when called:    4
  4113 ;; This function calls:
  4114 ;;		Nothing
  4115 ;; This function is called by:
  4116 ;;		_MTOUCH_Proximity_InitializeAll
  4117 ;; This function uses a non-reentrant model
  4118 ;;
  4119                           
  4120                           
  4121                           ;psect for function _memcpy
  4122  0C6A                     _memcpy:	
  4123                           
  4124                           ;incstack = 0
  4125                           ; Regs used in _memcpy: [wreg-fsr1h+status,2+status,0+pclath]
  4126                           ;memcpy@d1 stored from wreg
  4127  0C6A  00F9               	movwf	memcpy@d1
  4128  0C6B                     l3429:	
  4129  0C6B  0872               	movf	memcpy@s1+1,w
  4130  0C6C  00F7               	movwf	memcpy@s+1
  4131  0C6D  0871               	movf	memcpy@s1,w
  4132  0C6E  00F6               	movwf	memcpy@s
  4133  0C6F  0879               	movf	memcpy@d1,w
  4134  0C70  00F5               	movwf	??_memcpy
  4135  0C71  0875               	movf	??_memcpy,w
  4136  0C72  00FA               	movwf	memcpy@d
  4137  0C73  2C8B               	goto	l3439
  4138  0C74                     l3431:	
  4139  0C74  0876               	movf	memcpy@s,w
  4140  0C75  0084               	movwf	4
  4141  0C76  0877               	movf	memcpy@s+1,w
  4142  0C77  0085               	movwf	5
  4143  0C78  0800               	movf	0,w	;code access
  4144  0C79  00F5               	movwf	??_memcpy
  4145  0C7A  0875               	movf	??_memcpy,w
  4146  0C7B  00F8               	movwf	memcpy@tmp
  4147  0C7C                     l3433:	
  4148  0C7C  3001               	movlw	1
  4149  0C7D  07F6               	addwf	memcpy@s,f
  4150  0C7E  3000               	movlw	0
  4151  0C7F  3DF7               	addwfc	memcpy@s+1,f
  4152  0C80                     l3435:	
  4153  0C80  0878               	movf	memcpy@tmp,w
  4154  0C81  00F5               	movwf	??_memcpy
  4155  0C82  087A               	movf	memcpy@d,w
  4156  0C83  0086               	movwf	6
  4157  0C84  0187               	clrf	7
  4158  0C85  0875               	movf	??_memcpy,w
  4159  0C86  0081               	movwf	1
  4160  0C87                     l3437:	
  4161  0C87  3001               	movlw	1
  4162  0C88  00F5               	movwf	??_memcpy
  4163  0C89  0875               	movf	??_memcpy,w
  4164  0C8A  07FA               	addwf	memcpy@d,f
  4165  0C8B                     l3439:	
  4166  0C8B  3001               	movlw	1
  4167  0C8C  02F3               	subwf	memcpy@n,f
  4168  0C8D  3000               	movlw	0
  4169  0C8E  3BF4               	subwfb	memcpy@n+1,f
  4170  0C8F  0A73               	incf	memcpy@n,w
  4171  0C90  1D03               	skipz
  4172  0C91  2C96               	goto	u2681
  4173  0C92  0A74               	incf	memcpy@n+1,w
  4174  0C93  1D03               	btfss	3,2
  4175  0C94  2C96               	goto	u2681
  4176  0C95  2C97               	goto	u2680
  4177  0C96                     u2681:	
  4178  0C96  2C74               	goto	l3431
  4179  0C97                     u2680:	
  4180  0C97                     l1491:	
  4181  0C97  0008               	return
  4182  0C98                     __end_of_memcpy:	
  4183                           
  4184                           	psect	text13
  4185  0802                     __ptext13:	
  4186 ;; *************** function _MTOUCH_DataStreamer_Initialize *****************
  4187 ;; Defined at:
  4188 ;;		line 60 in file "mcc_generated_files/mtouch/mtouch_datastreamer.c"
  4189 ;; Parameters:    Size  Location     Type
  4190 ;;		None
  4191 ;; Auto vars:     Size  Location     Type
  4192 ;;		None
  4193 ;; Return value:  Size  Location     Type
  4194 ;;                  1    wreg      void 
  4195 ;; Registers used:
  4196 ;;		None
  4197 ;; Tracked objects:
  4198 ;;		On entry : 0/0
  4199 ;;		On exit  : 0/0
  4200 ;;		Unchanged: 0/0
  4201 ;; Data sizes:     COMMON   BANK0   BANK1   BANK2   BANK3   BANK4   BANK5   BANK6
  4202 ;;      Params:         0       0       0       0       0       0       0       0
  4203 ;;      Locals:         0       0       0       0       0       0       0       0
  4204 ;;      Temps:          0       0       0       0       0       0       0       0
  4205 ;;      Totals:         0       0       0       0       0       0       0       0
  4206 ;;Total ram usage:        0 bytes
  4207 ;; Hardware stack levels used:    1
  4208 ;; Hardware stack levels required when called:    4
  4209 ;; This function calls:
  4210 ;;		Nothing
  4211 ;; This function is called by:
  4212 ;;		_MTOUCH_Initialize
  4213 ;; This function uses a non-reentrant model
  4214 ;;
  4215                           
  4216                           
  4217                           ;psect for function _MTOUCH_DataStreamer_Initialize
  4218  0802                     _MTOUCH_DataStreamer_Initialize:	
  4219  0802                     l844:	
  4220                           ;incstack = 0
  4221                           ; Regs used in _MTOUCH_DataStreamer_Initialize: []
  4222                           
  4223  0802  0008               	return
  4224  0803                     __end_of_MTOUCH_DataStreamer_Initialize:	
  4225                           
  4226                           	psect	text14
  4227  0D41                     __ptext14:	
  4228 ;; *************** function _EUSART_Initialize *****************
  4229 ;; Defined at:
  4230 ;;		line 88 in file "mcc_generated_files/eusart.c"
  4231 ;; Parameters:    Size  Location     Type
  4232 ;;		None
  4233 ;; Auto vars:     Size  Location     Type
  4234 ;;		None
  4235 ;; Return value:  Size  Location     Type
  4236 ;;                  1    wreg      void 
  4237 ;; Registers used:
  4238 ;;		wreg, status,2, status,0, pclath, cstack
  4239 ;; Tracked objects:
  4240 ;;		On entry : 0/0
  4241 ;;		On exit  : 0/0
  4242 ;;		Unchanged: 0/0
  4243 ;; Data sizes:     COMMON   BANK0   BANK1   BANK2   BANK3   BANK4   BANK5   BANK6
  4244 ;;      Params:         0       0       0       0       0       0       0       0
  4245 ;;      Locals:         0       0       0       0       0       0       0       0
  4246 ;;      Temps:          1       0       0       0       0       0       0       0
  4247 ;;      Totals:         1       0       0       0       0       0       0       0
  4248 ;;Total ram usage:        1 bytes
  4249 ;; Hardware stack levels used:    1
  4250 ;; Hardware stack levels required when called:    5
  4251 ;; This function calls:
  4252 ;;		_EUSART_SetErrorHandler
  4253 ;;		_EUSART_SetFramingErrorHandler
  4254 ;;		_EUSART_SetOverrunErrorHandler
  4255 ;;		_EUSART_SetRxInterruptHandler
  4256 ;;		_EUSART_SetTxInterruptHandler
  4257 ;; This function is called by:
  4258 ;;		_SYSTEM_Initialize
  4259 ;; This function uses a non-reentrant model
  4260 ;;
  4261                           
  4262                           
  4263                           ;psect for function _EUSART_Initialize
  4264  0D41                     _EUSART_Initialize:	
  4265  0D41                     l3741:	
  4266                           ;incstack = 0
  4267                           ; Regs used in _EUSART_Initialize: [wreg+status,2+status,0+pclath+cstack]
  4268                           
  4269                           
  4270                           ;mcc_generated_files/eusart.c: 91:     PIE1bits.RCIE = 0;
  4271  0D41  0021               	movlb	1	; select bank1
  4272  0D42  1291               	bcf	17,5	;volatile
  4273  0D43                     l3743:	
  4274                           
  4275                           ;mcc_generated_files/eusart.c: 92:     EUSART_SetRxInterruptHandler(EUSART_Receive_ISR);
  4276  0D43  30CB               	movlw	low _EUSART_Receive_ISR
  4277  0D44  00F1               	movwf	EUSART_SetRxInterruptHandler@interruptHandler
  4278  0D45  300C               	movlw	high _EUSART_Receive_ISR
  4279  0D46  00F2               	movwf	EUSART_SetRxInterruptHandler@interruptHandler+1
  4280  0D47  3188  2045  318D   	fcall	_EUSART_SetRxInterruptHandler
  4281  0D4A                     l3745:	
  4282                           
  4283                           ;mcc_generated_files/eusart.c: 93:     PIE1bits.TXIE = 0;
  4284  0D4A  0021               	movlb	1	; select bank1
  4285  0D4B  1211               	bcf	17,4	;volatile
  4286                           
  4287                           ;mcc_generated_files/eusart.c: 94:     EUSART_SetTxInterruptHandler(EUSART_Transmit_ISR)
      +                          ;
  4288  0D4C  3037               	movlw	low _EUSART_Transmit_ISR
  4289  0D4D  00F1               	movwf	EUSART_SetTxInterruptHandler@interruptHandler
  4290  0D4E  300B               	movlw	high _EUSART_Transmit_ISR
  4291  0D4F  00F2               	movwf	EUSART_SetTxInterruptHandler@interruptHandler+1
  4292  0D50  3188  204B  318D   	fcall	_EUSART_SetTxInterruptHandler
  4293  0D53                     l3747:	
  4294                           
  4295                           ;mcc_generated_files/eusart.c: 98:     BAUDCON = 0x08;
  4296  0D53  3008               	movlw	8
  4297  0D54  0023               	movlb	3	; select bank3
  4298  0D55  009F               	movwf	31	;volatile
  4299  0D56                     l3749:	
  4300                           
  4301                           ;mcc_generated_files/eusart.c: 101:     RCSTA = 0x90;
  4302  0D56  3090               	movlw	144
  4303  0D57  009D               	movwf	29	;volatile
  4304  0D58                     l3751:	
  4305                           
  4306                           ;mcc_generated_files/eusart.c: 104:     TXSTA = 0x24;
  4307  0D58  3024               	movlw	36
  4308  0D59  009E               	movwf	30	;volatile
  4309  0D5A                     l3753:	
  4310                           
  4311                           ;mcc_generated_files/eusart.c: 107:     SPBRGL = 0x67;
  4312  0D5A  3067               	movlw	103
  4313  0D5B  009B               	movwf	27	;volatile
  4314  0D5C                     l3755:	
  4315                           
  4316                           ;mcc_generated_files/eusart.c: 110:     SPBRGH = 0x00;
  4317  0D5C  019C               	clrf	28	;volatile
  4318  0D5D                     l3757:	
  4319                           
  4320                           ;mcc_generated_files/eusart.c: 113:     EUSART_SetFramingErrorHandler(EUSART_DefaultFram
      +                          ingErrorHandler);
  4321  0D5D  30FF               	movlw	low _EUSART_DefaultFramingErrorHandler
  4322  0D5E  00F1               	movwf	EUSART_SetFramingErrorHandler@interruptHandler
  4323  0D5F  3017               	movlw	high _EUSART_DefaultFramingErrorHandler
  4324  0D60  00F2               	movwf	EUSART_SetFramingErrorHandler@interruptHandler+1
  4325  0D61  3188  2039  318D   	fcall	_EUSART_SetFramingErrorHandler
  4326  0D64                     l3759:	
  4327                           
  4328                           ;mcc_generated_files/eusart.c: 114:     EUSART_SetOverrunErrorHandler(EUSART_DefaultOver
      +                          runErrorHandler);
  4329  0D64  300D               	movlw	low _EUSART_DefaultOverrunErrorHandler
  4330  0D65  00F1               	movwf	EUSART_SetOverrunErrorHandler@interruptHandler
  4331  0D66  3008               	movlw	high _EUSART_DefaultOverrunErrorHandler
  4332  0D67  00F2               	movwf	EUSART_SetOverrunErrorHandler@interruptHandler+1
  4333  0D68  3188  203F  318D   	fcall	_EUSART_SetOverrunErrorHandler
  4334  0D6B                     l3761:	
  4335                           
  4336                           ;mcc_generated_files/eusart.c: 115:     EUSART_SetErrorHandler(EUSART_DefaultErrorHandle
      +                          r);
  4337  0D6B  3009               	movlw	low _EUSART_DefaultErrorHandler
  4338  0D6C  00F1               	movwf	EUSART_SetErrorHandler@interruptHandler
  4339  0D6D  3008               	movlw	high _EUSART_DefaultErrorHandler
  4340  0D6E  00F2               	movwf	EUSART_SetErrorHandler@interruptHandler+1
  4341  0D6F  3188  2033  318D   	fcall	_EUSART_SetErrorHandler
  4342                           
  4343                           ;mcc_generated_files/eusart.c: 117:     eusartRxLastError.status = 0;
  4344  0D72  0020               	movlb	0	; select bank0
  4345  0D73  01D3               	clrf	_eusartRxLastError	;volatile
  4346                           
  4347                           ;mcc_generated_files/eusart.c: 120:     eusartTxHead = 0;
  4348  0D74  01D7               	clrf	_eusartTxHead	;volatile
  4349                           
  4350                           ;mcc_generated_files/eusart.c: 121:     eusartTxTail = 0;
  4351  0D75  01D6               	clrf	_eusartTxTail	;volatile
  4352  0D76                     l3763:	
  4353                           
  4354                           ;mcc_generated_files/eusart.c: 122:     eusartTxBufferRemaining = sizeof(eusartTxBuffer)
      +                          ;
  4355  0D76  3008               	movlw	8
  4356  0D77  00F3               	movwf	??_EUSART_Initialize
  4357  0D78  0873               	movf	??_EUSART_Initialize,w
  4358  0D79  00EF               	movwf	_eusartTxBufferRemaining	;volatile
  4359  0D7A                     l3765:	
  4360                           
  4361                           ;mcc_generated_files/eusart.c: 124:     eusartRxHead = 0;
  4362  0D7A  01FC               	clrf	_eusartRxHead	;volatile
  4363  0D7B                     l3767:	
  4364                           
  4365                           ;mcc_generated_files/eusart.c: 125:     eusartRxTail = 0;
  4366  0D7B  01D5               	clrf	_eusartRxTail	;volatile
  4367  0D7C                     l3769:	
  4368                           
  4369                           ;mcc_generated_files/eusart.c: 126:     eusartRxCount = 0;
  4370  0D7C  01D4               	clrf	_eusartRxCount	;volatile
  4371  0D7D                     l3771:	
  4372                           
  4373                           ;mcc_generated_files/eusart.c: 129:     PIE1bits.RCIE = 1;
  4374  0D7D  0021               	movlb	1	; select bank1
  4375  0D7E  1691               	bsf	17,5	;volatile
  4376  0D7F                     l85:	
  4377  0D7F  0008               	return
  4378  0D80                     __end_of_EUSART_Initialize:	
  4379                           
  4380                           	psect	text15
  4381  084B                     __ptext15:	
  4382 ;; *************** function _EUSART_SetTxInterruptHandler *****************
  4383 ;; Defined at:
  4384 ;;		line 285 in file "mcc_generated_files/eusart.c"
  4385 ;; Parameters:    Size  Location     Type
  4386 ;;  interruptHan    2    1[COMMON] PTR FTN()void 
  4387 ;;		 -> EUSART_Transmit_ISR(1), 
  4388 ;; Auto vars:     Size  Location     Type
  4389 ;;		None
  4390 ;; Return value:  Size  Location     Type
  4391 ;;                  1    wreg      void 
  4392 ;; Registers used:
  4393 ;;		wreg
  4394 ;; Tracked objects:
  4395 ;;		On entry : 0/0
  4396 ;;		On exit  : 0/0
  4397 ;;		Unchanged: 0/0
  4398 ;; Data sizes:     COMMON   BANK0   BANK1   BANK2   BANK3   BANK4   BANK5   BANK6
  4399 ;;      Params:         2       0       0       0       0       0       0       0
  4400 ;;      Locals:         0       0       0       0       0       0       0       0
  4401 ;;      Temps:          0       0       0       0       0       0       0       0
  4402 ;;      Totals:         2       0       0       0       0       0       0       0
  4403 ;;Total ram usage:        2 bytes
  4404 ;; Hardware stack levels used:    1
  4405 ;; Hardware stack levels required when called:    4
  4406 ;; This function calls:
  4407 ;;		Nothing
  4408 ;; This function is called by:
  4409 ;;		_EUSART_Initialize
  4410 ;; This function uses a non-reentrant model
  4411 ;;
  4412                           
  4413                           
  4414                           ;psect for function _EUSART_SetTxInterruptHandler
  4415  084B                     _EUSART_SetTxInterruptHandler:	
  4416  084B                     l3543:	
  4417                           ;incstack = 0
  4418                           ; Regs used in _EUSART_SetTxInterruptHandler: [wreg]
  4419                           
  4420                           
  4421                           ;mcc_generated_files/eusart.c: 286:     EUSART_TxDefaultInterruptHandler = interruptHand
      +                          ler;
  4422  084B  0872               	movf	EUSART_SetTxInterruptHandler@interruptHandler+1,w
  4423  084C  0021               	movlb	1	; select bank1
  4424  084D  00E5               	movwf	(_EUSART_TxDefaultInterruptHandler+1)^(0+128)
  4425  084E  0871               	movf	EUSART_SetTxInterruptHandler@interruptHandler,w
  4426  084F  00E4               	movwf	_EUSART_TxDefaultInterruptHandler^(0+128)
  4427  0850                     l157:	
  4428  0850  0008               	return
  4429  0851                     __end_of_EUSART_SetTxInterruptHandler:	
  4430                           
  4431                           	psect	text16
  4432  0845                     __ptext16:	
  4433 ;; *************** function _EUSART_SetRxInterruptHandler *****************
  4434 ;; Defined at:
  4435 ;;		line 289 in file "mcc_generated_files/eusart.c"
  4436 ;; Parameters:    Size  Location     Type
  4437 ;;  interruptHan    2    1[COMMON] PTR FTN()void 
  4438 ;;		 -> EUSART_Receive_ISR(1), 
  4439 ;; Auto vars:     Size  Location     Type
  4440 ;;		None
  4441 ;; Return value:  Size  Location     Type
  4442 ;;                  1    wreg      void 
  4443 ;; Registers used:
  4444 ;;		wreg
  4445 ;; Tracked objects:
  4446 ;;		On entry : 0/0
  4447 ;;		On exit  : 0/0
  4448 ;;		Unchanged: 0/0
  4449 ;; Data sizes:     COMMON   BANK0   BANK1   BANK2   BANK3   BANK4   BANK5   BANK6
  4450 ;;      Params:         2       0       0       0       0       0       0       0
  4451 ;;      Locals:         0       0       0       0       0       0       0       0
  4452 ;;      Temps:          0       0       0       0       0       0       0       0
  4453 ;;      Totals:         2       0       0       0       0       0       0       0
  4454 ;;Total ram usage:        2 bytes
  4455 ;; Hardware stack levels used:    1
  4456 ;; Hardware stack levels required when called:    4
  4457 ;; This function calls:
  4458 ;;		Nothing
  4459 ;; This function is called by:
  4460 ;;		_EUSART_Initialize
  4461 ;; This function uses a non-reentrant model
  4462 ;;
  4463                           
  4464                           
  4465                           ;psect for function _EUSART_SetRxInterruptHandler
  4466  0845                     _EUSART_SetRxInterruptHandler:	
  4467  0845                     l3541:	
  4468                           ;incstack = 0
  4469                           ; Regs used in _EUSART_SetRxInterruptHandler: [wreg]
  4470                           
  4471                           
  4472                           ;mcc_generated_files/eusart.c: 290:     EUSART_RxDefaultInterruptHandler = interruptHand
      +                          ler;
  4473  0845  0872               	movf	EUSART_SetRxInterruptHandler@interruptHandler+1,w
  4474  0846  0021               	movlb	1	; select bank1
  4475  0847  00E3               	movwf	(_EUSART_RxDefaultInterruptHandler+1)^(0+128)
  4476  0848  0871               	movf	EUSART_SetRxInterruptHandler@interruptHandler,w
  4477  0849  00E2               	movwf	_EUSART_RxDefaultInterruptHandler^(0+128)
  4478  084A                     l160:	
  4479  084A  0008               	return
  4480  084B                     __end_of_EUSART_SetRxInterruptHandler:	
  4481                           
  4482                           	psect	text17
  4483  083F                     __ptext17:	
  4484 ;; *************** function _EUSART_SetOverrunErrorHandler *****************
  4485 ;; Defined at:
  4486 ;;		line 277 in file "mcc_generated_files/eusart.c"
  4487 ;; Parameters:    Size  Location     Type
  4488 ;;  interruptHan    2    1[COMMON] PTR FTN()void 
  4489 ;;		 -> EUSART_DefaultOverrunErrorHandler(1), 
  4490 ;; Auto vars:     Size  Location     Type
  4491 ;;		None
  4492 ;; Return value:  Size  Location     Type
  4493 ;;                  1    wreg      void 
  4494 ;; Registers used:
  4495 ;;		wreg
  4496 ;; Tracked objects:
  4497 ;;		On entry : 0/0
  4498 ;;		On exit  : 0/0
  4499 ;;		Unchanged: 0/0
  4500 ;; Data sizes:     COMMON   BANK0   BANK1   BANK2   BANK3   BANK4   BANK5   BANK6
  4501 ;;      Params:         2       0       0       0       0       0       0       0
  4502 ;;      Locals:         0       0       0       0       0       0       0       0
  4503 ;;      Temps:          0       0       0       0       0       0       0       0
  4504 ;;      Totals:         2       0       0       0       0       0       0       0
  4505 ;;Total ram usage:        2 bytes
  4506 ;; Hardware stack levels used:    1
  4507 ;; Hardware stack levels required when called:    4
  4508 ;; This function calls:
  4509 ;;		Nothing
  4510 ;; This function is called by:
  4511 ;;		_EUSART_Initialize
  4512 ;; This function uses a non-reentrant model
  4513 ;;
  4514                           
  4515                           
  4516                           ;psect for function _EUSART_SetOverrunErrorHandler
  4517  083F                     _EUSART_SetOverrunErrorHandler:	
  4518  083F                     l3547:	
  4519                           ;incstack = 0
  4520                           ; Regs used in _EUSART_SetOverrunErrorHandler: [wreg]
  4521                           
  4522                           
  4523                           ;mcc_generated_files/eusart.c: 278:     EUSART_OverrunErrorHandler = interruptHandler;
  4524  083F  0872               	movf	EUSART_SetOverrunErrorHandler@interruptHandler+1,w
  4525  0840  0021               	movlb	1	; select bank1
  4526  0841  00DF               	movwf	(_EUSART_OverrunErrorHandler+1)^(0+128)
  4527  0842  0871               	movf	EUSART_SetOverrunErrorHandler@interruptHandler,w
  4528  0843  00DE               	movwf	_EUSART_OverrunErrorHandler^(0+128)
  4529  0844                     l151:	
  4530  0844  0008               	return
  4531  0845                     __end_of_EUSART_SetOverrunErrorHandler:	
  4532                           
  4533                           	psect	text18
  4534  0839                     __ptext18:	
  4535 ;; *************** function _EUSART_SetFramingErrorHandler *****************
  4536 ;; Defined at:
  4537 ;;		line 273 in file "mcc_generated_files/eusart.c"
  4538 ;; Parameters:    Size  Location     Type
  4539 ;;  interruptHan    2    1[COMMON] PTR FTN()void 
  4540 ;;		 -> EUSART_DefaultFramingErrorHandler(1), 
  4541 ;; Auto vars:     Size  Location     Type
  4542 ;;		None
  4543 ;; Return value:  Size  Location     Type
  4544 ;;                  1    wreg      void 
  4545 ;; Registers used:
  4546 ;;		wreg
  4547 ;; Tracked objects:
  4548 ;;		On entry : 0/0
  4549 ;;		On exit  : 0/0
  4550 ;;		Unchanged: 0/0
  4551 ;; Data sizes:     COMMON   BANK0   BANK1   BANK2   BANK3   BANK4   BANK5   BANK6
  4552 ;;      Params:         2       0       0       0       0       0       0       0
  4553 ;;      Locals:         0       0       0       0       0       0       0       0
  4554 ;;      Temps:          0       0       0       0       0       0       0       0
  4555 ;;      Totals:         2       0       0       0       0       0       0       0
  4556 ;;Total ram usage:        2 bytes
  4557 ;; Hardware stack levels used:    1
  4558 ;; Hardware stack levels required when called:    4
  4559 ;; This function calls:
  4560 ;;		Nothing
  4561 ;; This function is called by:
  4562 ;;		_EUSART_Initialize
  4563 ;; This function uses a non-reentrant model
  4564 ;;
  4565                           
  4566                           
  4567                           ;psect for function _EUSART_SetFramingErrorHandler
  4568  0839                     _EUSART_SetFramingErrorHandler:	
  4569  0839                     l3545:	
  4570                           ;incstack = 0
  4571                           ; Regs used in _EUSART_SetFramingErrorHandler: [wreg]
  4572                           
  4573                           
  4574                           ;mcc_generated_files/eusart.c: 274:     EUSART_FramingErrorHandler = interruptHandler;
  4575  0839  0872               	movf	EUSART_SetFramingErrorHandler@interruptHandler+1,w
  4576  083A  0021               	movlb	1	; select bank1
  4577  083B  00E1               	movwf	(_EUSART_FramingErrorHandler+1)^(0+128)
  4578  083C  0871               	movf	EUSART_SetFramingErrorHandler@interruptHandler,w
  4579  083D  00E0               	movwf	_EUSART_FramingErrorHandler^(0+128)
  4580  083E                     l148:	
  4581  083E  0008               	return
  4582  083F                     __end_of_EUSART_SetFramingErrorHandler:	
  4583                           
  4584                           	psect	text19
  4585  0833                     __ptext19:	
  4586 ;; *************** function _EUSART_SetErrorHandler *****************
  4587 ;; Defined at:
  4588 ;;		line 281 in file "mcc_generated_files/eusart.c"
  4589 ;; Parameters:    Size  Location     Type
  4590 ;;  interruptHan    2    1[COMMON] PTR FTN()void 
  4591 ;;		 -> EUSART_DefaultErrorHandler(1), 
  4592 ;; Auto vars:     Size  Location     Type
  4593 ;;		None
  4594 ;; Return value:  Size  Location     Type
  4595 ;;                  1    wreg      void 
  4596 ;; Registers used:
  4597 ;;		wreg
  4598 ;; Tracked objects:
  4599 ;;		On entry : 0/0
  4600 ;;		On exit  : 0/0
  4601 ;;		Unchanged: 0/0
  4602 ;; Data sizes:     COMMON   BANK0   BANK1   BANK2   BANK3   BANK4   BANK5   BANK6
  4603 ;;      Params:         2       0       0       0       0       0       0       0
  4604 ;;      Locals:         0       0       0       0       0       0       0       0
  4605 ;;      Temps:          0       0       0       0       0       0       0       0
  4606 ;;      Totals:         2       0       0       0       0       0       0       0
  4607 ;;Total ram usage:        2 bytes
  4608 ;; Hardware stack levels used:    1
  4609 ;; Hardware stack levels required when called:    4
  4610 ;; This function calls:
  4611 ;;		Nothing
  4612 ;; This function is called by:
  4613 ;;		_EUSART_Initialize
  4614 ;; This function uses a non-reentrant model
  4615 ;;
  4616                           
  4617                           
  4618                           ;psect for function _EUSART_SetErrorHandler
  4619  0833                     _EUSART_SetErrorHandler:	
  4620  0833                     l3549:	
  4621                           ;incstack = 0
  4622                           ; Regs used in _EUSART_SetErrorHandler: [wreg]
  4623                           
  4624                           
  4625                           ;mcc_generated_files/eusart.c: 282:     EUSART_ErrorHandler = interruptHandler;
  4626  0833  0872               	movf	EUSART_SetErrorHandler@interruptHandler+1,w
  4627  0834  0021               	movlb	1	; select bank1
  4628  0835  00DD               	movwf	(_EUSART_ErrorHandler+1)^(0+128)
  4629  0836  0871               	movf	EUSART_SetErrorHandler@interruptHandler,w
  4630  0837  00DC               	movwf	_EUSART_ErrorHandler^(0+128)
  4631  0838                     l154:	
  4632  0838  0008               	return
  4633  0839                     __end_of_EUSART_SetErrorHandler:	
  4634                           
  4635                           	psect	text20
  4636  0B59                     __ptext20:	
  4637 ;; *************** function _MTOUCH_Service_Mainloop *****************
  4638 ;; Defined at:
  4639 ;;		line 98 in file "mcc_generated_files/mtouch/mtouch.c"
  4640 ;; Parameters:    Size  Location     Type
  4641 ;;		None
  4642 ;; Auto vars:     Size  Location     Type
  4643 ;;		None
  4644 ;; Return value:  Size  Location     Type
  4645 ;;                  1    wreg      _Bool 
  4646 ;; Registers used:
  4647 ;;		wreg, fsr0l, fsr0h, fsr1l, fsr1h, status,2, status,0, pclath, cstack
  4648 ;; Tracked objects:
  4649 ;;		On entry : 0/0
  4650 ;;		On exit  : 0/0
  4651 ;;		Unchanged: 0/0
  4652 ;; Data sizes:     COMMON   BANK0   BANK1   BANK2   BANK3   BANK4   BANK5   BANK6
  4653 ;;      Params:         0       0       0       0       0       0       0       0
  4654 ;;      Locals:         0       0       0       0       0       0       0       0
  4655 ;;      Temps:          0       1       0       0       0       0       0       0
  4656 ;;      Totals:         0       1       0       0       0       0       0       0
  4657 ;;Total ram usage:        1 bytes
  4658 ;; Hardware stack levels used:    1
  4659 ;; Hardware stack levels required when called:   11
  4660 ;; This function calls:
  4661 ;;		_MTOUCH_DataStreamer_Service
  4662 ;;		_MTOUCH_Proximity_ServiceAll
  4663 ;;		_MTOUCH_Sensor_SampleAll
  4664 ;;		_MTOUCH_Sensor_Sampled_ResetAll
  4665 ;;		_MTOUCH_Tick
  4666 ;;		_MTOUCH_needReburst
  4667 ;; This function is called by:
  4668 ;;		_main
  4669 ;;		_touch_example
  4670 ;; This function uses a non-reentrant model
  4671 ;;
  4672                           
  4673                           
  4674                           ;psect for function _MTOUCH_Service_Mainloop
  4675  0B59                     _MTOUCH_Service_Mainloop:	
  4676  0B59                     l4645:	
  4677                           ;incstack = 0
  4678                           ; Regs used in _MTOUCH_Service_Mainloop: [wreg-fsr1h+status,2+status,0+pclath+cstack]
  4679                           
  4680                           
  4681                           ;mcc_generated_files/mtouch/mtouch.c: 102:     mtouch_time_toScan = 1;
  4682  0B59  0020               	movlb	0	; select bank0
  4683  0B5A  01CF               	clrf	_mtouch_time_toScan
  4684  0B5B  0ACF               	incf	_mtouch_time_toScan,f
  4685  0B5C                     l4647:	
  4686  0B5C                     l4649:	
  4687                           ;mcc_generated_files/mtouch/mtouch.c: 104:     if(mtouch_time_toScan)
  4688                           
  4689                           
  4690                           ;mcc_generated_files/mtouch/mtouch.c: 105:     {;mcc_generated_files/mtouch/mtouch.c: 10
      +                          6:         if(MTOUCH_Sensor_SampleAll() == 0)
  4691  0B5C  318A  2234  318B   	fcall	_MTOUCH_Sensor_SampleAll
  4692  0B5F  3A00               	xorlw	0
  4693  0B60  1D03               	skipz
  4694  0B61  2B63               	goto	u4311
  4695  0B62  2B64               	goto	u4310
  4696  0B63                     u4311:	
  4697  0B63  2B66               	goto	l4655
  4698  0B64                     u4310:	
  4699  0B64                     l4651:	
  4700                           
  4701                           ;mcc_generated_files/mtouch/mtouch.c: 107:         return 0;
  4702  0B64  3000               	movlw	0
  4703  0B65  2B7A               	goto	l953
  4704  0B66                     l4655:	
  4705                           
  4706                           ;mcc_generated_files/mtouch/mtouch.c: 110:             MTOUCH_Proximity_ServiceAll();
  4707  0B66  3188  2019  318B   	fcall	_MTOUCH_Proximity_ServiceAll
  4708                           
  4709                           ;mcc_generated_files/mtouch/mtouch.c: 112:             MTOUCH_DataStreamer_Service();
  4710  0B69  3184  246E  318B   	fcall	_MTOUCH_DataStreamer_Service
  4711  0B6C                     l4657:	
  4712                           
  4713                           ;mcc_generated_files/mtouch/mtouch.c: 114:             mtouch_time_toScan = MTOUCH_needR
      +                          eburst();
  4714  0B6C  3180  2002  318B   	fcall	_MTOUCH_needReburst
  4715  0B6F  0020               	movlb	0	; select bank0
  4716  0B70  00C8               	movwf	??_MTOUCH_Service_Mainloop
  4717  0B71  0848               	movf	??_MTOUCH_Service_Mainloop,w
  4718  0B72  00CF               	movwf	_mtouch_time_toScan
  4719  0B73                     l4659:	
  4720                           
  4721                           ;mcc_generated_files/mtouch/mtouch.c: 115:             MTOUCH_Sensor_Sampled_ResetAll();
  4722  0B73  318A  22BA  318B   	fcall	_MTOUCH_Sensor_Sampled_ResetAll
  4723  0B76                     l4661:	
  4724                           
  4725                           ;mcc_generated_files/mtouch/mtouch.c: 116:             MTOUCH_Tick();
  4726  0B76  3188  2011  318B   	fcall	_MTOUCH_Tick
  4727  0B79                     l4663:	
  4728                           
  4729                           ;mcc_generated_files/mtouch/mtouch.c: 117:             return 1;
  4730  0B79  3001               	movlw	1
  4731  0B7A                     l953:	
  4732  0B7A  0008               	return
  4733  0B7B                     __end_of_MTOUCH_Service_Mainloop:	
  4734                           
  4735                           	psect	text21
  4736  0002                     __ptext21:	
  4737 ;; *************** function _MTOUCH_needReburst *****************
  4738 ;; Defined at:
  4739 ;;		line 140 in file "mcc_generated_files/mtouch/mtouch.c"
  4740 ;; Parameters:    Size  Location     Type
  4741 ;;		None
  4742 ;; Auto vars:     Size  Location     Type
  4743 ;;  needReburst     1    0        _Bool 
  4744 ;; Return value:  Size  Location     Type
  4745 ;;                  1    wreg      _Bool 
  4746 ;; Registers used:
  4747 ;;		wreg, status,2
  4748 ;; Tracked objects:
  4749 ;;		On entry : 0/0
  4750 ;;		On exit  : 0/0
  4751 ;;		Unchanged: 0/0
  4752 ;; Data sizes:     COMMON   BANK0   BANK1   BANK2   BANK3   BANK4   BANK5   BANK6
  4753 ;;      Params:         0       0       0       0       0       0       0       0
  4754 ;;      Locals:         1       0       0       0       0       0       0       0
  4755 ;;      Temps:          0       0       0       0       0       0       0       0
  4756 ;;      Totals:         1       0       0       0       0       0       0       0
  4757 ;;Total ram usage:        1 bytes
  4758 ;; Hardware stack levels used:    1
  4759 ;; Hardware stack levels required when called:    4
  4760 ;; This function calls:
  4761 ;;		Nothing
  4762 ;; This function is called by:
  4763 ;;		_MTOUCH_Service_Mainloop
  4764 ;; This function uses a non-reentrant model
  4765 ;;
  4766                           
  4767                           
  4768                           ;psect for function _MTOUCH_needReburst
  4769  0002                     _MTOUCH_needReburst:	
  4770  0002                     l3853:	
  4771                           ;incstack = 0
  4772                           ; Regs used in _MTOUCH_needReburst: [wreg+status,2]
  4773                           
  4774  0002                     l3855:	
  4775                           
  4776                           ;mcc_generated_files/mtouch/mtouch.c: 144:     return needReburst;
  4777  0002  3000               	movlw	0
  4778  0003                     l960:	
  4779  0003  0008               	return
  4780  0004                     __end_of_MTOUCH_needReburst:	
  4781                           
  4782                           	psect	text22
  4783  0811                     __ptext22:	
  4784 ;; *************** function _MTOUCH_Tick *****************
  4785 ;; Defined at:
  4786 ;;		line 130 in file "mcc_generated_files/mtouch/mtouch.c"
  4787 ;; Parameters:    Size  Location     Type
  4788 ;;		None
  4789 ;; Auto vars:     Size  Location     Type
  4790 ;;		None
  4791 ;; Return value:  Size  Location     Type
  4792 ;;                  1    wreg      void 
  4793 ;; Registers used:
  4794 ;;		wreg, fsr1l, fsr1h, status,2, status,0, pclath, cstack
  4795 ;; Tracked objects:
  4796 ;;		On entry : 0/0
  4797 ;;		On exit  : 0/0
  4798 ;;		Unchanged: 0/0
  4799 ;; Data sizes:     COMMON   BANK0   BANK1   BANK2   BANK3   BANK4   BANK5   BANK6
  4800 ;;      Params:         0       0       0       0       0       0       0       0
  4801 ;;      Locals:         0       0       0       0       0       0       0       0
  4802 ;;      Temps:          0       0       0       0       0       0       0       0
  4803 ;;      Totals:         0       0       0       0       0       0       0       0
  4804 ;;Total ram usage:        0 bytes
  4805 ;; Hardware stack levels used:    1
  4806 ;; Hardware stack levels required when called:    6
  4807 ;; This function calls:
  4808 ;;		_MTOUCH_Proximity_Tick
  4809 ;; This function is called by:
  4810 ;;		_MTOUCH_Service_Mainloop
  4811 ;; This function uses a non-reentrant model
  4812 ;;
  4813                           
  4814                           
  4815                           ;psect for function _MTOUCH_Tick
  4816  0811                     _MTOUCH_Tick:	
  4817  0811                     l3859:	
  4818                           ;incstack = 0
  4819                           ; Regs used in _MTOUCH_Tick: [wreg+fsr1l+fsr1h+status,2+status,0+pclath+cstack]
  4820                           
  4821                           
  4822                           ;mcc_generated_files/mtouch/mtouch.c: 132:     MTOUCH_Proximity_Tick();
  4823  0811  3188  2023  3188   	fcall	_MTOUCH_Proximity_Tick
  4824  0814                     l957:	
  4825  0814  0008               	return
  4826  0815                     __end_of_MTOUCH_Tick:	
  4827                           
  4828                           	psect	text23
  4829  0823                     __ptext23:	
  4830 ;; *************** function _MTOUCH_Proximity_Tick *****************
  4831 ;; Defined at:
  4832 ;;		line 275 in file "mcc_generated_files/mtouch/mtouch_proximity.c"
  4833 ;; Parameters:    Size  Location     Type
  4834 ;;		None
  4835 ;; Auto vars:     Size  Location     Type
  4836 ;;		None
  4837 ;; Return value:  Size  Location     Type
  4838 ;;                  1    wreg      void 
  4839 ;; Registers used:
  4840 ;;		wreg, fsr1l, fsr1h, status,2, status,0, pclath, cstack
  4841 ;; Tracked objects:
  4842 ;;		On entry : 0/0
  4843 ;;		On exit  : 0/0
  4844 ;;		Unchanged: 0/0
  4845 ;; Data sizes:     COMMON   BANK0   BANK1   BANK2   BANK3   BANK4   BANK5   BANK6
  4846 ;;      Params:         0       0       0       0       0       0       0       0
  4847 ;;      Locals:         0       0       0       0       0       0       0       0
  4848 ;;      Temps:          0       0       0       0       0       0       0       0
  4849 ;;      Totals:         0       0       0       0       0       0       0       0
  4850 ;;Total ram usage:        0 bytes
  4851 ;; Hardware stack levels used:    1
  4852 ;; Hardware stack levels required when called:    5
  4853 ;; This function calls:
  4854 ;;		_Proximity_Tick_helper
  4855 ;; This function is called by:
  4856 ;;		_MTOUCH_Tick
  4857 ;; This function uses a non-reentrant model
  4858 ;;
  4859                           
  4860                           
  4861                           ;psect for function _MTOUCH_Proximity_Tick
  4862  0823                     _MTOUCH_Proximity_Tick:	
  4863  0823                     l3663:	
  4864                           ;incstack = 0
  4865                           ; Regs used in _MTOUCH_Proximity_Tick: [wreg+fsr1l+fsr1h+status,2+status,0+pclath+cstack
      +                          ]
  4866                           
  4867                           
  4868                           ;mcc_generated_files/mtouch/mtouch_proximity.c: 277:     Proximity_Tick_helper(&mtouch_p
      +                          roximity[0]);
  4869  0823  3058               	movlw	(low (_mtouch_proximity| 0))& (0+255)
  4870  0824  318B  23C6  3188   	fcall	_Proximity_Tick_helper
  4871  0827                     l638:	
  4872  0827  0008               	return
  4873  0828                     __end_of_MTOUCH_Proximity_Tick:	
  4874                           
  4875                           	psect	text24
  4876  0BC6                     __ptext24:	
  4877 ;; *************** function _Proximity_Tick_helper *****************
  4878 ;; Defined at:
  4879 ;;		line 279 in file "mcc_generated_files/mtouch/mtouch_proximity.c"
  4880 ;; Parameters:    Size  Location     Type
  4881 ;;  prox            1    wreg     PTR struct .
  4882 ;;		 -> mtouch_proximity(18), 
  4883 ;; Auto vars:     Size  Location     Type
  4884 ;;  prox            1    3[COMMON] PTR struct .
  4885 ;;		 -> mtouch_proximity(18), 
  4886 ;; Return value:  Size  Location     Type
  4887 ;;                  1    wreg      void 
  4888 ;; Registers used:
  4889 ;;		wreg, fsr1l, fsr1h, status,2, status,0
  4890 ;; Tracked objects:
  4891 ;;		On entry : 0/0
  4892 ;;		On exit  : 0/0
  4893 ;;		Unchanged: 0/0
  4894 ;; Data sizes:     COMMON   BANK0   BANK1   BANK2   BANK3   BANK4   BANK5   BANK6
  4895 ;;      Params:         0       0       0       0       0       0       0       0
  4896 ;;      Locals:         1       0       0       0       0       0       0       0
  4897 ;;      Temps:          2       0       0       0       0       0       0       0
  4898 ;;      Totals:         3       0       0       0       0       0       0       0
  4899 ;;Total ram usage:        3 bytes
  4900 ;; Hardware stack levels used:    1
  4901 ;; Hardware stack levels required when called:    4
  4902 ;; This function calls:
  4903 ;;		Nothing
  4904 ;; This function is called by:
  4905 ;;		_MTOUCH_Proximity_Tick
  4906 ;; This function uses a non-reentrant model
  4907 ;;
  4908                           
  4909                           
  4910                           ;psect for function _Proximity_Tick_helper
  4911  0BC6                     _Proximity_Tick_helper:	
  4912                           
  4913                           ;incstack = 0
  4914                           ; Regs used in _Proximity_Tick_helper: [wreg+fsr1l+fsr1h+status,2+status,0]
  4915                           ;Proximity_Tick_helper@prox stored from wreg
  4916  0BC6  00F3               	movwf	Proximity_Tick_helper@prox
  4917  0BC7                     l3523:	
  4918                           
  4919                           ;mcc_generated_files/mtouch/mtouch_proximity.c: 279: static void Proximity_Tick_helper(m
      +                          touch_proximity_t* prox);mcc_generated_files/mtouch/mtouch_proximity.c: 280: {;mcc_gener
      +                          ated_files/mtouch/mtouch_proximity.c: 282:     if ((prox->state) == MTOUCH_PROXIMITY_STA
      +                          TE_activated)
  4920  0BC7  0873               	movf	Proximity_Tick_helper@prox,w
  4921  0BC8  3E02               	addlw	2
  4922  0BC9  0086               	movwf	6
  4923  0BCA  0187               	clrf	7
  4924  0BCB  3002               	movlw	2
  4925  0BCC  0601               	xorwf	1,w
  4926  0BCD  1D03               	btfss	3,2
  4927  0BCE  2BD0               	goto	u2891
  4928  0BCF  2BD1               	goto	u2890
  4929  0BD0                     u2891:	
  4930  0BD0  2BEC               	goto	l643
  4931  0BD1                     u2890:	
  4932  0BD1                     l3525:	
  4933                           
  4934                           ;mcc_generated_files/mtouch/mtouch_proximity.c: 283:     {;mcc_generated_files/mtouch/mt
      +                          ouch_proximity.c: 284:         (prox->counter)++;
  4935  0BD1  0873               	movf	Proximity_Tick_helper@prox,w
  4936  0BD2  3E0C               	addlw	12
  4937  0BD3  0086               	movwf	6
  4938  0BD4  0187               	clrf	7
  4939  0BD5  3001               	movlw	1
  4940  0BD6  0781               	addwf	1,f
  4941  0BD7  3141               	addfsr 1,1
  4942  0BD8  1803               	skipnc
  4943  0BD9  0A81               	incf	1,f
  4944                           
  4945                           ;mcc_generated_files/mtouch/mtouch_proximity.c: 285:         if (prox->counter == (mtouc
      +                          h_prox_statecounter_t)0)
  4946  0BDA  0873               	movf	Proximity_Tick_helper@prox,w
  4947  0BDB  3E0C               	addlw	12
  4948  0BDC  0086               	movwf	6
  4949  0BDD  0187               	clrf	7
  4950  0BDE  0016               	moviw fsr1++
  4951  0BDF  0401               	iorwf	1,w
  4952  0BE0  1D03               	btfss	3,2
  4953  0BE1  2BE3               	goto	u2901
  4954  0BE2  2BE4               	goto	u2900
  4955  0BE3                     u2901:	
  4956  0BE3  2BEC               	goto	l643
  4957  0BE4                     u2900:	
  4958  0BE4                     l3527:	
  4959                           
  4960                           ;mcc_generated_files/mtouch/mtouch_proximity.c: 286:         {;mcc_generated_files/mtouc
      +                          h/mtouch_proximity.c: 287:             prox->counter = (mtouch_prox_statecounter_t)0xFFF
      +                          F;
  4961  0BE4  0873               	movf	Proximity_Tick_helper@prox,w
  4962  0BE5  3E0C               	addlw	12
  4963  0BE6  0086               	movwf	6
  4964  0BE7  0187               	clrf	7
  4965  0BE8  30FF               	movlw	255
  4966  0BE9  3FC0               	movwi [0]fsr1
  4967  0BEA  30FF               	movlw	255
  4968  0BEB  3FC1               	movwi [1]fsr1
  4969  0BEC                     l643:	
  4970  0BEC  0008               	return
  4971  0BED                     __end_of_Proximity_Tick_helper:	
  4972                           
  4973                           	psect	text25
  4974  0ABA                     __ptext25:	
  4975 ;; *************** function _MTOUCH_Sensor_Sampled_ResetAll *****************
  4976 ;; Defined at:
  4977 ;;		line 933 in file "mcc_generated_files/mtouch/mtouch_sensor.c"
  4978 ;; Parameters:    Size  Location     Type
  4979 ;;		None
  4980 ;; Auto vars:     Size  Location     Type
  4981 ;;  sensor          1    3[COMMON] PTR struct .
  4982 ;;		 -> mtouch_sensor(9), 
  4983 ;; Return value:  Size  Location     Type
  4984 ;;                  1    wreg      void 
  4985 ;; Registers used:
  4986 ;;		wreg, fsr1l, fsr1h, status,2, status,0, pclath, cstack
  4987 ;; Tracked objects:
  4988 ;;		On entry : 0/0
  4989 ;;		On exit  : 0/0
  4990 ;;		Unchanged: 0/0
  4991 ;; Data sizes:     COMMON   BANK0   BANK1   BANK2   BANK3   BANK4   BANK5   BANK6
  4992 ;;      Params:         0       0       0       0       0       0       0       0
  4993 ;;      Locals:         1       0       0       0       0       0       0       0
  4994 ;;      Temps:          1       0       0       0       0       0       0       0
  4995 ;;      Totals:         2       0       0       0       0       0       0       0
  4996 ;;Total ram usage:        2 bytes
  4997 ;; Hardware stack levels used:    1
  4998 ;; Hardware stack levels required when called:    5
  4999 ;; This function calls:
  5000 ;;		_Sensor_Sampled_Reset
  5001 ;; This function is called by:
  5002 ;;		_MTOUCH_Initialize
  5003 ;;		_MTOUCH_Service_Mainloop
  5004 ;; This function uses a non-reentrant model
  5005 ;;
  5006                           
  5007                           
  5008                           ;psect for function _MTOUCH_Sensor_Sampled_ResetAll
  5009  0ABA                     _MTOUCH_Sensor_Sampled_ResetAll:	
  5010  0ABA                     l3613:	
  5011                           ;incstack = 0
  5012                           ; Regs used in _MTOUCH_Sensor_Sampled_ResetAll: [wreg+fsr1l+fsr1h+status,2+status,0+pcla
      +                          th+cstack]
  5013                           
  5014                           
  5015                           ;mcc_generated_files/mtouch/mtouch_sensor.c: 935:     mtouch_sensor_t* sensor;;mcc_gener
      +                          ated_files/mtouch/mtouch_sensor.c: 936:     for(sensor = &mtouch_sensor[0];sensor<= &mto
      +                          uch_sensor[1u -1];sensor++)
  5016  0ABA  30BB               	movlw	(low (_mtouch_sensor| 0))& (0+255)
  5017  0ABB  00F2               	movwf	??_MTOUCH_Sensor_Sampled_ResetAll
  5018  0ABC  0872               	movf	??_MTOUCH_Sensor_Sampled_ResetAll,w
  5019  0ABD  00F3               	movwf	MTOUCH_Sensor_Sampled_ResetAll@sensor
  5020  0ABE  30BB               	movlw	(low (_mtouch_sensor| 0))& (0+255)
  5021  0ABF  00F2               	movwf	??_MTOUCH_Sensor_Sampled_ResetAll
  5022  0AC0  0873               	movf	MTOUCH_Sensor_Sampled_ResetAll@sensor,w
  5023  0AC1  0272               	subwf	??_MTOUCH_Sensor_Sampled_ResetAll,w
  5024  0AC2  1803               	skipnc
  5025  0AC3  2AC5               	goto	u3001
  5026  0AC4  2AC6               	goto	u3000
  5027  0AC5                     u3001:	
  5028  0AC5  2AC7               	goto	l3617
  5029  0AC6                     u3000:	
  5030  0AC6  2AD7               	goto	l514
  5031  0AC7                     l3617:	
  5032                           
  5033                           ;mcc_generated_files/mtouch/mtouch_sensor.c: 937:     {;mcc_generated_files/mtouch/mtouc
      +                          h_sensor.c: 938:         Sensor_Sampled_Reset(sensor);
  5034  0AC7  0873               	movf	MTOUCH_Sensor_Sampled_ResetAll@sensor,w
  5035  0AC8  3187  27F9  318A   	fcall	_Sensor_Sampled_Reset
  5036  0ACB                     l3619:	
  5037                           
  5038                           ;mcc_generated_files/mtouch/mtouch_sensor.c: 939:     }
  5039  0ACB  3009               	movlw	9
  5040  0ACC  00F2               	movwf	??_MTOUCH_Sensor_Sampled_ResetAll
  5041  0ACD  0872               	movf	??_MTOUCH_Sensor_Sampled_ResetAll,w
  5042  0ACE  07F3               	addwf	MTOUCH_Sensor_Sampled_ResetAll@sensor,f
  5043  0ACF                     l3621:	
  5044  0ACF  30BB               	movlw	(low (_mtouch_sensor| 0))& (0+255)
  5045  0AD0  00F2               	movwf	??_MTOUCH_Sensor_Sampled_ResetAll
  5046  0AD1  0873               	movf	MTOUCH_Sensor_Sampled_ResetAll@sensor,w
  5047  0AD2  0272               	subwf	??_MTOUCH_Sensor_Sampled_ResetAll,w
  5048  0AD3  1803               	skipnc
  5049  0AD4  2AD6               	goto	u3011
  5050  0AD5  2AD7               	goto	u3010
  5051  0AD6                     u3011:	
  5052  0AD6  2AC7               	goto	l3617
  5053  0AD7                     u3010:	
  5054  0AD7                     l514:	
  5055  0AD7  0008               	return
  5056  0AD8                     __end_of_MTOUCH_Sensor_Sampled_ResetAll:	
  5057                           
  5058                           	psect	text26
  5059  07F9                     __ptext26:	
  5060 ;; *************** function _Sensor_Sampled_Reset *****************
  5061 ;; Defined at:
  5062 ;;		line 947 in file "mcc_generated_files/mtouch/mtouch_sensor.c"
  5063 ;; Parameters:    Size  Location     Type
  5064 ;;  sensor          1    wreg     PTR struct .
  5065 ;;		 -> mtouch_sensor(9), 
  5066 ;; Auto vars:     Size  Location     Type
  5067 ;;  sensor          1    1[COMMON] PTR struct .
  5068 ;;		 -> mtouch_sensor(9), 
  5069 ;; Return value:  Size  Location     Type
  5070 ;;                  1    wreg      void 
  5071 ;; Registers used:
  5072 ;;		wreg, fsr1l, fsr1h, status,2, status,0
  5073 ;; Tracked objects:
  5074 ;;		On entry : 0/0
  5075 ;;		On exit  : 0/0
  5076 ;;		Unchanged: 0/0
  5077 ;; Data sizes:     COMMON   BANK0   BANK1   BANK2   BANK3   BANK4   BANK5   BANK6
  5078 ;;      Params:         0       0       0       0       0       0       0       0
  5079 ;;      Locals:         1       0       0       0       0       0       0       0
  5080 ;;      Temps:          0       0       0       0       0       0       0       0
  5081 ;;      Totals:         1       0       0       0       0       0       0       0
  5082 ;;Total ram usage:        1 bytes
  5083 ;; Hardware stack levels used:    1
  5084 ;; Hardware stack levels required when called:    4
  5085 ;; This function calls:
  5086 ;;		Nothing
  5087 ;; This function is called by:
  5088 ;;		_MTOUCH_Sensor_Initialize
  5089 ;;		_MTOUCH_Sensor_Sampled_ResetAll
  5090 ;; This function uses a non-reentrant model
  5091 ;;
  5092                           
  5093                           
  5094                           ;psect for function _Sensor_Sampled_Reset
  5095  07F9                     _Sensor_Sampled_Reset:	
  5096                           
  5097                           ;incstack = 0
  5098                           ; Regs used in _Sensor_Sampled_Reset: [wreg+fsr1l+fsr1h+status,2+status,0]
  5099                           ;Sensor_Sampled_Reset@sensor stored from wreg
  5100  07F9  00F1               	movwf	Sensor_Sampled_Reset@sensor
  5101  07FA                     l3219:	
  5102                           
  5103                           ;mcc_generated_files/mtouch/mtouch_sensor.c: 947: static __attribute__((inline)) void Se
      +                          nsor_Sampled_Reset(mtouch_sensor_t* sensor);mcc_generated_files/mtouch/mtouch_sensor.c: 
      +                          948: {;mcc_generated_files/mtouch/mtouch_sensor.c: 949:     sensor->sampled = 0;
  5104  07FA  0871               	movf	Sensor_Sampled_Reset@sensor,w
  5105  07FB  3E08               	addlw	8
  5106  07FC  0086               	movwf	6
  5107  07FD  0187               	clrf	7
  5108  07FE  1001               	bcf	1,0
  5109  07FF                     l520:	
  5110  07FF  0008               	return
  5111  0800                     __end_of_Sensor_Sampled_Reset:	
  5112                           
  5113                           	psect	text27
  5114  0A34                     __ptext27:	
  5115 ;; *************** function _MTOUCH_Sensor_SampleAll *****************
  5116 ;; Defined at:
  5117 ;;		line 241 in file "mcc_generated_files/mtouch/mtouch_sensor.c"
  5118 ;; Parameters:    Size  Location     Type
  5119 ;;		None
  5120 ;; Auto vars:     Size  Location     Type
  5121 ;;  group           1   39[BANK0 ] unsigned char 
  5122 ;; Return value:  Size  Location     Type
  5123 ;;                  1    wreg      _Bool 
  5124 ;; Registers used:
  5125 ;;		wreg, fsr0l, fsr0h, fsr1l, fsr1h, status,2, status,0, pclath, cstack
  5126 ;; Tracked objects:
  5127 ;;		On entry : 0/0
  5128 ;;		On exit  : 0/0
  5129 ;;		Unchanged: 0/0
  5130 ;; Data sizes:     COMMON   BANK0   BANK1   BANK2   BANK3   BANK4   BANK5   BANK6
  5131 ;;      Params:         0       0       0       0       0       0       0       0
  5132 ;;      Locals:         0       1       0       0       0       0       0       0
  5133 ;;      Temps:          0       1       0       0       0       0       0       0
  5134 ;;      Totals:         0       2       0       0       0       0       0       0
  5135 ;;Total ram usage:        2 bytes
  5136 ;; Hardware stack levels used:    1
  5137 ;; Hardware stack levels required when called:   10
  5138 ;; This function calls:
  5139 ;;		_Sensor_Service
  5140 ;; This function is called by:
  5141 ;;		_MTOUCH_Service_Mainloop
  5142 ;; This function uses a non-reentrant model
  5143 ;;
  5144                           
  5145                           
  5146                           ;psect for function _MTOUCH_Sensor_SampleAll
  5147  0A34                     _MTOUCH_Sensor_SampleAll:	
  5148  0A34                     l4569:	
  5149                           ;incstack = 0
  5150                           ; Regs used in _MTOUCH_Sensor_SampleAll: [wreg-fsr1h+status,2+status,0+pclath+cstack]
  5151                           
  5152                           
  5153                           ;mcc_generated_files/mtouch/mtouch_sensor.c: 243:     uint8_t group;;mcc_generated_files
      +                          /mtouch/mtouch_sensor.c: 244:     for (group = 0; group < 1u; group++)
  5154  0A34  0020               	movlb	0	; select bank0
  5155  0A35  01C7               	clrf	MTOUCH_Sensor_SampleAll@group
  5156  0A36                     l4575:	
  5157                           
  5158                           ;mcc_generated_files/mtouch/mtouch_sensor.c: 245:     {;mcc_generated_files/mtouch/mtouc
      +                          h_sensor.c: 246:         if(Sensor_Service(group)!= MTOUCH_SENSOR_ERROR_none)
  5159  0A36  0847               	movf	MTOUCH_Sensor_SampleAll@group,w
  5160  0A37  3185  25FD  318A   	fcall	_Sensor_Service
  5161  0A3A  3A00               	xorlw	0
  5162  0A3B  1903               	skipnz
  5163  0A3C  2A3E               	goto	u4251
  5164  0A3D  2A3F               	goto	u4250
  5165  0A3E                     u4251:	
  5166  0A3E  2A41               	goto	l4581
  5167  0A3F                     u4250:	
  5168  0A3F                     l4577:	
  5169                           
  5170                           ;mcc_generated_files/mtouch/mtouch_sensor.c: 247:             return 0;
  5171  0A3F  3000               	movlw	0
  5172  0A40  2A4C               	goto	l293
  5173  0A41                     l4581:	
  5174                           
  5175                           ;mcc_generated_files/mtouch/mtouch_sensor.c: 248:     }
  5176  0A41  3001               	movlw	1
  5177  0A42  0020               	movlb	0	; select bank0
  5178  0A43  00C6               	movwf	??_MTOUCH_Sensor_SampleAll
  5179  0A44  0846               	movf	??_MTOUCH_Sensor_SampleAll,w
  5180  0A45  07C7               	addwf	MTOUCH_Sensor_SampleAll@group,f
  5181  0A46  0847               	movf	MTOUCH_Sensor_SampleAll@group,w
  5182  0A47  1903               	btfsc	3,2
  5183  0A48  2A4A               	goto	u4261
  5184  0A49  2A4B               	goto	u4260
  5185  0A4A                     u4261:	
  5186  0A4A  2A36               	goto	l4575
  5187  0A4B                     u4260:	
  5188  0A4B                     l4583:	
  5189                           
  5190                           ;mcc_generated_files/mtouch/mtouch_sensor.c: 249:     return 1;
  5191  0A4B  3001               	movlw	1
  5192  0A4C                     l293:	
  5193  0A4C  0008               	return
  5194  0A4D                     __end_of_MTOUCH_Sensor_SampleAll:	
  5195                           
  5196                           	psect	text28
  5197  05FD                     __ptext28:	
  5198 ;; *************** function _Sensor_Service *****************
  5199 ;; Defined at:
  5200 ;;		line 286 in file "mcc_generated_files/mtouch/mtouch_sensor.c"
  5201 ;; Parameters:    Size  Location     Type
  5202 ;;  scanGroup       1    wreg     unsigned char 
  5203 ;; Auto vars:     Size  Location     Type
  5204 ;;  scanGroup       1   34[BANK0 ] unsigned char 
  5205 ;;  sensor_adc2     1   37[BANK0 ] PTR struct .
  5206 ;;		 -> NULL(0), 
  5207 ;;  sensor_adc1     1   36[BANK0 ] PTR struct .
  5208 ;;		 -> mtouch_sensor(9), 
  5209 ;;  error           1   35[BANK0 ] enum E2856
  5210 ;; Return value:  Size  Location     Type
  5211 ;;                  1    wreg      enum E2856
  5212 ;; Registers used:
  5213 ;;		wreg, fsr0l, fsr0h, fsr1l, fsr1h, status,2, status,0, pclath, cstack
  5214 ;; Tracked objects:
  5215 ;;		On entry : 0/0
  5216 ;;		On exit  : 0/0
  5217 ;;		Unchanged: 0/0
  5218 ;; Data sizes:     COMMON   BANK0   BANK1   BANK2   BANK3   BANK4   BANK5   BANK6
  5219 ;;      Params:         0       0       0       0       0       0       0       0
  5220 ;;      Locals:         0       4       0       0       0       0       0       0
  5221 ;;      Temps:          0       3       0       0       0       0       0       0
  5222 ;;      Totals:         0       7       0       0       0       0       0       0
  5223 ;;Total ram usage:        7 bytes
  5224 ;; Hardware stack levels used:    1
  5225 ;; Hardware stack levels required when called:    9
  5226 ;; This function calls:
  5227 ;;		_Sensor_Acquisition
  5228 ;;		_Sensor_DefaultCallback
  5229 ;;		_Sensor_RawSample_Update
  5230 ;;		_Sensor_isEnabled
  5231 ;;		_Sensor_setSampled
  5232 ;; This function is called by:
  5233 ;;		_MTOUCH_Sensor_SampleAll
  5234 ;; This function uses a non-reentrant model
  5235 ;;
  5236                           
  5237                           
  5238                           ;psect for function _Sensor_Service
  5239  05FD                     _Sensor_Service:	
  5240                           
  5241                           ;incstack = 0
  5242                           ; Regs used in _Sensor_Service: [wreg-fsr1h+status,2+status,0+pclath+cstack]
  5243                           ;Sensor_Service@scanGroup stored from wreg
  5244  05FD  0020               	movlb	0	; select bank0
  5245  05FE  00C2               	movwf	Sensor_Service@scanGroup
  5246  05FF                     l4493:	
  5247                           
  5248                           ;mcc_generated_files/mtouch/mtouch_sensor.c: 286: static enum mtouch_sensor_error Sensor
      +                          _Service(uint8_t scanGroup);mcc_generated_files/mtouch/mtouch_sensor.c: 287: {;mcc_gener
      +                          ated_files/mtouch/mtouch_sensor.c: 288:     mtouch_sensor_t* sensor_adc1;;mcc_generated_
      +                          files/mtouch/mtouch_sensor.c: 289:     mtouch_sensor_t* sensor_adc2;;mcc_generated_files
      +                          /mtouch/mtouch_sensor.c: 291:     sensor_adc1 = (mtouch_sensor_t*)sensor_scan_group[scan
      +                          Group].sensor_adc1;
  5249  05FF  0842               	movf	Sensor_Service@scanGroup,w
  5250  0600  00BF               	movwf	??_Sensor_Service
  5251  0601  01C0               	clrf	??_Sensor_Service+1
  5252  0602  35BF               	lslf	??_Sensor_Service,f
  5253  0603  0DC0               	rlf	??_Sensor_Service+1,f
  5254  0604  3017               	movlw	low (_sensor_scan_group| (0+32768))
  5255  0605  073F               	addwf	??_Sensor_Service,w
  5256  0606  0084               	movwf	4
  5257  0607  3090               	movlw	high (_sensor_scan_group| (0+32768))
  5258  0608  3D40               	addwfc	??_Sensor_Service+1,w
  5259  0609  0085               	movwf	5
  5260  060A  0800               	movf	0,w	;code access
  5261  060B  00C1               	movwf	??_Sensor_Service+2
  5262  060C  0841               	movf	??_Sensor_Service+2,w
  5263  060D  00C4               	movwf	Sensor_Service@sensor_adc1
  5264                           
  5265                           ;mcc_generated_files/mtouch/mtouch_sensor.c: 292:     sensor_adc2 = (mtouch_sensor_t*)se
      +                          nsor_scan_group[scanGroup].sensor_adc2;
  5266  060E  0842               	movf	Sensor_Service@scanGroup,w
  5267  060F  00BF               	movwf	??_Sensor_Service
  5268  0610  01C0               	clrf	??_Sensor_Service+1
  5269  0611  35BF               	lslf	??_Sensor_Service,f
  5270  0612  0DC0               	rlf	??_Sensor_Service+1,f
  5271  0613  3018               	movlw	low ((_sensor_scan_group+1)| (0+32768))
  5272  0614  073F               	addwf	??_Sensor_Service,w
  5273  0615  0084               	movwf	4
  5274  0616  3090               	movlw	high ((_sensor_scan_group+1)| (0+32768))
  5275  0617  3D40               	addwfc	??_Sensor_Service+1,w
  5276  0618  0085               	movwf	5
  5277  0619  0800               	movf	0,w	;code access
  5278  061A  00C1               	movwf	??_Sensor_Service+2
  5279  061B  0841               	movf	??_Sensor_Service+2,w
  5280  061C  00C5               	movwf	Sensor_Service@sensor_adc2
  5281  061D                     l4495:	
  5282                           
  5283                           ;mcc_generated_files/mtouch/mtouch_sensor.c: 294:     enum mtouch_sensor_error error = S
      +                          ensor_Acquisition(sensor_adc1,sensor_adc2);
  5284  061D  0845               	movf	Sensor_Service@sensor_adc2,w
  5285  061E  00BF               	movwf	??_Sensor_Service
  5286  061F  083F               	movf	??_Sensor_Service,w
  5287  0620  00BB               	movwf	Sensor_Acquisition@sensor_adc2
  5288  0621  0844               	movf	Sensor_Service@sensor_adc1,w
  5289  0622  318E  2692  3185   	fcall	_Sensor_Acquisition
  5290  0625  0020               	movlb	0	; select bank0
  5291  0626  00C0               	movwf	??_Sensor_Service+1
  5292  0627  0840               	movf	??_Sensor_Service+1,w
  5293  0628  00C3               	movwf	Sensor_Service@error
  5294                           
  5295                           ;mcc_generated_files/mtouch/mtouch_sensor.c: 297:     switch(error)
  5296  0629  2E72               	goto	l4519
  5297  062A                     l4497:	
  5298                           
  5299                           ;mcc_generated_files/mtouch/mtouch_sensor.c: 300:         {;mcc_generated_files/mtouch/m
      +                          touch_sensor.c: 301:             if(Sensor_isEnabled(sensor_adc1))
  5300  062A  0844               	movf	Sensor_Service@sensor_adc1,w
  5301  062B  3189  214C  3185   	fcall	_Sensor_isEnabled
  5302  062E  3A00               	xorlw	0
  5303  062F  1903               	skipnz
  5304  0630  2E32               	goto	u4161
  5305  0631  2E33               	goto	u4160
  5306  0632                     u4161:	
  5307  0632  2E4D               	goto	l4507
  5308  0633                     u4160:	
  5309  0633                     l4499:	
  5310                           
  5311                           ;mcc_generated_files/mtouch/mtouch_sensor.c: 302:             {;mcc_generated_files/mtou
      +                          ch/mtouch_sensor.c: 307:                 if(!lowpowerActivated)
  5312  0633  0020               	movlb	0	; select bank0
  5313  0634  0852               	movf	_lowpowerActivated,w
  5314  0635  1D03               	btfss	3,2
  5315  0636  2E38               	goto	u4171
  5316  0637  2E39               	goto	u4170
  5317  0638                     u4171:	
  5318  0638  2E3D               	goto	l4503
  5319  0639                     u4170:	
  5320  0639                     l4501:	
  5321                           
  5322                           ;mcc_generated_files/mtouch/mtouch_sensor.c: 308:                 {;mcc_generated_files/
      +                          mtouch/mtouch_sensor.c: 309:                     Sensor_RawSample_Update(sensor_adc1);
  5323  0639  0844               	movf	Sensor_Service@sensor_adc1,w
  5324  063A  318B  23ED  3185   	fcall	_Sensor_RawSample_Update
  5325  063D                     l4503:	
  5326                           
  5327                           ;mcc_generated_files/mtouch/mtouch_sensor.c: 311:                 Sensor_setSampled(sens
      +                          or_adc1);
  5328  063D  0020               	movlb	0	; select bank0
  5329  063E  0844               	movf	Sensor_Service@sensor_adc1,w
  5330  063F  3188  2071  3185   	fcall	_Sensor_setSampled
  5331  0642                     l4505:	
  5332                           
  5333                           ;mcc_generated_files/mtouch/mtouch_sensor.c: 312:                 callback_sampled(senso
      +                          r_adc1->sensor);
  5334  0642  0020               	movlb	0	; select bank0
  5335  0643  0844               	movf	Sensor_Service@sensor_adc1,w
  5336  0644  0086               	movwf	6
  5337  0645  0187               	clrf	7
  5338  0646  0801               	movf	1,w
  5339  0647  00BF               	movwf	??_Sensor_Service
  5340  0648  083F               	movf	??_Sensor_Service,w
  5341  0649  00F1               	movwf	Sensor_DefaultCallback@sensor
  5342  064A  3188  2001  3185   	fcall	_Sensor_DefaultCallback
  5343  064D                     l4507:	
  5344                           
  5345                           ;mcc_generated_files/mtouch/mtouch_sensor.c: 314:             if(Sensor_isEnabled(sensor
      +                          _adc2))
  5346  064D  0020               	movlb	0	; select bank0
  5347  064E  0845               	movf	Sensor_Service@sensor_adc2,w
  5348  064F  3189  214C  3185   	fcall	_Sensor_isEnabled
  5349  0652  3A00               	xorlw	0
  5350  0653  1903               	skipnz
  5351  0654  2E56               	goto	u4181
  5352  0655  2E57               	goto	u4180
  5353  0656                     u4181:	
  5354  0656  2E95               	goto	l4521
  5355  0657                     u4180:	
  5356  0657                     l4509:	
  5357                           
  5358                           ;mcc_generated_files/mtouch/mtouch_sensor.c: 315:             {;mcc_generated_files/mtou
      +                          ch/mtouch_sensor.c: 316:                 if(!lowpowerActivated)
  5359  0657  0020               	movlb	0	; select bank0
  5360  0658  0852               	movf	_lowpowerActivated,w
  5361  0659  1D03               	btfss	3,2
  5362  065A  2E5C               	goto	u4191
  5363  065B  2E5D               	goto	u4190
  5364  065C                     u4191:	
  5365  065C  2E61               	goto	l4513
  5366  065D                     u4190:	
  5367  065D                     l4511:	
  5368                           
  5369                           ;mcc_generated_files/mtouch/mtouch_sensor.c: 317:                 {;mcc_generated_files/
      +                          mtouch/mtouch_sensor.c: 318:                     Sensor_RawSample_Update(sensor_adc2);
  5370  065D  0845               	movf	Sensor_Service@sensor_adc2,w
  5371  065E  318B  23ED  3185   	fcall	_Sensor_RawSample_Update
  5372  0661                     l4513:	
  5373                           
  5374                           ;mcc_generated_files/mtouch/mtouch_sensor.c: 320:                 Sensor_setSampled(sens
      +                          or_adc2);
  5375  0661  0020               	movlb	0	; select bank0
  5376  0662  0845               	movf	Sensor_Service@sensor_adc2,w
  5377  0663  3188  2071  3185   	fcall	_Sensor_setSampled
  5378  0666                     l4515:	
  5379                           
  5380                           ;mcc_generated_files/mtouch/mtouch_sensor.c: 321:                 callback_sampled(senso
      +                          r_adc2->sensor);
  5381  0666  0020               	movlb	0	; select bank0
  5382  0667  0845               	movf	Sensor_Service@sensor_adc2,w
  5383  0668  0086               	movwf	6
  5384  0669  0187               	clrf	7
  5385  066A  0801               	movf	1,w
  5386  066B  00BF               	movwf	??_Sensor_Service
  5387  066C  083F               	movf	??_Sensor_Service,w
  5388  066D  00F1               	movwf	Sensor_DefaultCallback@sensor
  5389  066E  3188  2001  3185   	fcall	_Sensor_DefaultCallback
  5390  0671  2E95               	goto	l4521
  5391  0672                     l4519:	
  5392  0672  0843               	movf	Sensor_Service@error,w
  5393  0673  00BF               	movwf	??_Sensor_Service
  5394  0674  01C0               	clrf	??_Sensor_Service+1
  5395  0675  1BBF               	btfsc	??_Sensor_Service,7
  5396  0676  03C0               	decf	??_Sensor_Service+1,f
  5397                           
  5398                           ; Switch on 2 bytes has been partitioned into a top level switch of size 1, and 2 sub-sw
      +                          itches
  5399                           ; Switch size 1, requested type "simple"
  5400                           ; Number of cases is 2, Range of values is 0 to 255
  5401                           ; switch strategies available:
  5402                           ; Name         Instructions Cycles
  5403                           ; simple_byte            7     4 (average)
  5404                           ; jumptable            260     6 (fixed)
  5405                           ;	Chosen strategy is simple_byte
  5406  0677  0840               	movf	??_Sensor_Service+1,w
  5407  0678  3A00               	xorlw	0	; case 0
  5408  0679  1903               	skipnz
  5409  067A  2E7F               	goto	l4783
  5410  067B  3AFF               	xorlw	255	; case 255
  5411  067C  1903               	skipnz
  5412  067D  2E84               	goto	l4785
  5413  067E  2E95               	goto	l4521
  5414  067F                     l4783:	
  5415                           
  5416                           ; Switch size 1, requested type "simple"
  5417                           ; Number of cases is 1, Range of values is 0 to 0
  5418                           ; switch strategies available:
  5419                           ; Name         Instructions Cycles
  5420                           ; simple_byte            4     3 (average)
  5421                           ; direct_byte            8     6 (fixed)
  5422                           ; jumptable            260     6 (fixed)
  5423                           ;	Chosen strategy is simple_byte
  5424  067F  083F               	movf	??_Sensor_Service,w
  5425  0680  3A00               	xorlw	0	; case 0
  5426  0681  1903               	skipnz
  5427  0682  2E2A               	goto	l4497
  5428  0683  2E95               	goto	l4521
  5429  0684                     l4785:	
  5430                           
  5431                           ; Switch size 1, requested type "simple"
  5432                           ; Number of cases is 5, Range of values is 251 to 255
  5433                           ; switch strategies available:
  5434                           ; Name         Instructions Cycles
  5435                           ; direct_byte           15     5 (fixed)
  5436                           ; simple_byte           16     9 (average)
  5437                           ; jumptable            263     9 (fixed)
  5438                           ;	Chosen strategy is simple_byte
  5439  0684  083F               	movf	??_Sensor_Service,w
  5440  0685  3AFB               	xorlw	251	; case 251
  5441  0686  1903               	skipnz
  5442  0687  2E95               	goto	l4521
  5443  0688  3A07               	xorlw	7	; case 252
  5444  0689  1903               	skipnz
  5445  068A  2E95               	goto	l4521
  5446  068B  3A01               	xorlw	1	; case 253
  5447  068C  1903               	skipnz
  5448  068D  2E95               	goto	l4521
  5449  068E  3A03               	xorlw	3	; case 254
  5450  068F  1903               	skipnz
  5451  0690  2E95               	goto	l4521
  5452  0691  3A01               	xorlw	1	; case 255
  5453  0692  1903               	skipnz
  5454  0693  2E95               	goto	l4521
  5455  0694  2E95               	goto	l4521
  5456  0695                     l4521:	
  5457                           
  5458                           ;mcc_generated_files/mtouch/mtouch_sensor.c: 334:     return error;
  5459  0695  0020               	movlb	0	; select bank0
  5460  0696  0843               	movf	Sensor_Service@error,w
  5461  0697                     l321:	
  5462  0697  0008               	return
  5463  0698                     __end_of_Sensor_Service:	
  5464                           
  5465                           	psect	text29
  5466  0871                     __ptext29:	
  5467 ;; *************** function _Sensor_setSampled *****************
  5468 ;; Defined at:
  5469 ;;		line 952 in file "mcc_generated_files/mtouch/mtouch_sensor.c"
  5470 ;; Parameters:    Size  Location     Type
  5471 ;;  sensor          1    wreg     PTR struct .
  5472 ;;		 -> NULL(0), mtouch_sensor(9), 
  5473 ;; Auto vars:     Size  Location     Type
  5474 ;;  sensor          1    1[COMMON] PTR struct .
  5475 ;;		 -> NULL(0), mtouch_sensor(9), 
  5476 ;; Return value:  Size  Location     Type
  5477 ;;                  1    wreg      void 
  5478 ;; Registers used:
  5479 ;;		wreg, fsr1l, fsr1h, status,2, status,0
  5480 ;; Tracked objects:
  5481 ;;		On entry : 0/0
  5482 ;;		On exit  : 0/0
  5483 ;;		Unchanged: 0/0
  5484 ;; Data sizes:     COMMON   BANK0   BANK1   BANK2   BANK3   BANK4   BANK5   BANK6
  5485 ;;      Params:         0       0       0       0       0       0       0       0
  5486 ;;      Locals:         1       0       0       0       0       0       0       0
  5487 ;;      Temps:          0       0       0       0       0       0       0       0
  5488 ;;      Totals:         1       0       0       0       0       0       0       0
  5489 ;;Total ram usage:        1 bytes
  5490 ;; Hardware stack levels used:    1
  5491 ;; Hardware stack levels required when called:    4
  5492 ;; This function calls:
  5493 ;;		Nothing
  5494 ;; This function is called by:
  5495 ;;		_Sensor_Service
  5496 ;; This function uses a non-reentrant model
  5497 ;;
  5498                           
  5499                           
  5500                           ;psect for function _Sensor_setSampled
  5501  0871                     _Sensor_setSampled:	
  5502                           
  5503                           ;incstack = 0
  5504                           ; Regs used in _Sensor_setSampled: [wreg+fsr1l+fsr1h+status,2+status,0]
  5505                           ;Sensor_setSampled@sensor stored from wreg
  5506  0871  00F1               	movwf	Sensor_setSampled@sensor
  5507  0872                     l3411:	
  5508                           
  5509                           ;mcc_generated_files/mtouch/mtouch_sensor.c: 952: static __attribute__((inline)) void Se
      +                          nsor_setSampled(mtouch_sensor_t* sensor);mcc_generated_files/mtouch/mtouch_sensor.c: 953
      +                          : {;mcc_generated_files/mtouch/mtouch_sensor.c: 954:     sensor->sampled = 1;
  5510  0872  0871               	movf	Sensor_setSampled@sensor,w
  5511  0873  3E08               	addlw	8
  5512  0874  0086               	movwf	6
  5513  0875  0187               	clrf	7
  5514  0876  1401               	bsf	1,0
  5515  0877                     l523:	
  5516  0877  0008               	return
  5517  0878                     __end_of_Sensor_setSampled:	
  5518                           
  5519                           	psect	text30
  5520  0BED                     __ptext30:	
  5521 ;; *************** function _Sensor_RawSample_Update *****************
  5522 ;; Defined at:
  5523 ;;		line 785 in file "mcc_generated_files/mtouch/mtouch_sensor.c"
  5524 ;; Parameters:    Size  Location     Type
  5525 ;;  sensor          1    wreg     PTR struct .
  5526 ;;		 -> NULL(0), mtouch_sensor(9), 
  5527 ;; Auto vars:     Size  Location     Type
  5528 ;;  sensor          1    7[COMMON] PTR struct .
  5529 ;;		 -> NULL(0), mtouch_sensor(9), 
  5530 ;;  adcIndex        1    6[COMMON] unsigned char 
  5531 ;; Return value:  Size  Location     Type
  5532 ;;                  1    wreg      void 
  5533 ;; Registers used:
  5534 ;;		wreg, fsr0l, fsr0h, fsr1l, fsr1h, status,2, status,0, pclath, cstack
  5535 ;; Tracked objects:
  5536 ;;		On entry : 0/0
  5537 ;;		On exit  : 0/0
  5538 ;;		Unchanged: 0/0
  5539 ;; Data sizes:     COMMON   BANK0   BANK1   BANK2   BANK3   BANK4   BANK5   BANK6
  5540 ;;      Params:         0       0       0       0       0       0       0       0
  5541 ;;      Locals:         2       0       0       0       0       0       0       0
  5542 ;;      Temps:          1       0       0       0       0       0       0       0
  5543 ;;      Totals:         3       0       0       0       0       0       0       0
  5544 ;;Total ram usage:        3 bytes
  5545 ;; Hardware stack levels used:    1
  5546 ;; Hardware stack levels required when called:    5
  5547 ;; This function calls:
  5548 ;;		_Sensor_getScanGroupIndex
  5549 ;; This function is called by:
  5550 ;;		_Sensor_Service
  5551 ;; This function uses a non-reentrant model
  5552 ;;
  5553                           
  5554                           
  5555                           ;psect for function _Sensor_RawSample_Update
  5556  0BED                     _Sensor_RawSample_Update:	
  5557                           
  5558                           ;incstack = 0
  5559                           ; Regs used in _Sensor_RawSample_Update: [wreg-fsr1h+status,2+status,0+pclath+cstack]
  5560                           ;Sensor_RawSample_Update@sensor stored from wreg
  5561  0BED  00F7               	movwf	Sensor_RawSample_Update@sensor
  5562  0BEE                     l3399:	
  5563                           
  5564                           ;mcc_generated_files/mtouch/mtouch_sensor.c: 785: static void Sensor_RawSample_Update(mt
      +                          ouch_sensor_t* sensor);mcc_generated_files/mtouch/mtouch_sensor.c: 786: {;mcc_generated_
      +                          files/mtouch/mtouch_sensor.c: 787:     uint8_t adcIndex = Sensor_getScanGroupIndex(senso
      +                          r);
  5565  0BEE  0877               	movf	Sensor_RawSample_Update@sensor,w
  5566  0BEF  318C  2498  318B   	fcall	_Sensor_getScanGroupIndex
  5567  0BF2  00F5               	movwf	??_Sensor_RawSample_Update
  5568  0BF3  0875               	movf	??_Sensor_RawSample_Update,w
  5569  0BF4  00F6               	movwf	Sensor_RawSample_Update@adcIndex
  5570  0BF5                     l3401:	
  5571                           
  5572                           ;mcc_generated_files/mtouch/mtouch_sensor.c: 789:     if (INTCONbits.GIE == (uint8_t)1)
  5573  0BF5  1F8B               	btfss	11,7	;volatile
  5574  0BF6  2BF8               	goto	u2661
  5575  0BF7  2BF9               	goto	u2660
  5576  0BF8                     u2661:	
  5577  0BF8  2C08               	goto	l3409
  5578  0BF9                     u2660:	
  5579  0BF9                     l3403:	
  5580                           
  5581                           ;mcc_generated_files/mtouch/mtouch_sensor.c: 790:     {;mcc_generated_files/mtouch/mtouc
      +                          h_sensor.c: 791:         INTCONbits.GIE = (uint8_t)0;
  5582  0BF9  138B               	bcf	11,7	;volatile
  5583  0BFA                     l3405:	
  5584                           
  5585                           ;mcc_generated_files/mtouch/mtouch_sensor.c: 792:         sensor->rawSample = packet_sam
      +                          ple[adcIndex];
  5586  0BFA  3576               	lslf	Sensor_RawSample_Update@adcIndex,w
  5587  0BFB  3E49               	addlw	(low (_packet_sample| 0))& (0+255)
  5588  0BFC  0086               	movwf	6
  5589  0BFD  0187               	clrf	7
  5590  0BFE  0877               	movf	Sensor_RawSample_Update@sensor,w
  5591  0BFF  3E06               	addlw	6
  5592  0C00  0084               	movwf	4
  5593  0C01  0185               	clrf	5
  5594  0C02  3F40               	moviw [0]fsr1
  5595  0C03  3F80               	movwi [0]fsr0
  5596  0C04  3F41               	moviw [1]fsr1
  5597  0C05  3F81               	movwi [1]fsr0
  5598  0C06                     l3407:	
  5599                           
  5600                           ;mcc_generated_files/mtouch/mtouch_sensor.c: 793:         INTCONbits.GIE = (uint8_t)1;
  5601  0C06  178B               	bsf	11,7	;volatile
  5602                           
  5603                           ;mcc_generated_files/mtouch/mtouch_sensor.c: 794:     }
  5604  0C07  2C14               	goto	l450
  5605  0C08                     l3409:	
  5606                           
  5607                           ;mcc_generated_files/mtouch/mtouch_sensor.c: 796:     {;mcc_generated_files/mtouch/mtouc
      +                          h_sensor.c: 797:         sensor->rawSample = packet_sample[adcIndex];
  5608  0C08  3576               	lslf	Sensor_RawSample_Update@adcIndex,w
  5609  0C09  3E49               	addlw	(low (_packet_sample| 0))& (0+255)
  5610  0C0A  0086               	movwf	6
  5611  0C0B  0187               	clrf	7
  5612  0C0C  0877               	movf	Sensor_RawSample_Update@sensor,w
  5613  0C0D  3E06               	addlw	6
  5614  0C0E  0084               	movwf	4
  5615  0C0F  0185               	clrf	5
  5616  0C10  3F40               	moviw [0]fsr1
  5617  0C11  3F80               	movwi [0]fsr0
  5618  0C12  3F41               	moviw [1]fsr1
  5619  0C13  3F81               	movwi [1]fsr0
  5620  0C14                     l450:	
  5621  0C14  0008               	return
  5622  0C15                     __end_of_Sensor_RawSample_Update:	
  5623                           
  5624                           	psect	text31
  5625  0801                     __ptext31:	
  5626 ;; *************** function _Sensor_DefaultCallback *****************
  5627 ;; Defined at:
  5628 ;;		line 806 in file "mcc_generated_files/mtouch/mtouch_sensor.c"
  5629 ;; Parameters:    Size  Location     Type
  5630 ;;  sensor          1    1[COMMON] enum E2854
  5631 ;; Auto vars:     Size  Location     Type
  5632 ;;		None
  5633 ;; Return value:  Size  Location     Type
  5634 ;;                  1    wreg      void 
  5635 ;; Registers used:
  5636 ;;		None
  5637 ;; Tracked objects:
  5638 ;;		On entry : 0/0
  5639 ;;		On exit  : 0/0
  5640 ;;		Unchanged: 0/0
  5641 ;; Data sizes:     COMMON   BANK0   BANK1   BANK2   BANK3   BANK4   BANK5   BANK6
  5642 ;;      Params:         1       0       0       0       0       0       0       0
  5643 ;;      Locals:         0       0       0       0       0       0       0       0
  5644 ;;      Temps:          0       0       0       0       0       0       0       0
  5645 ;;      Totals:         1       0       0       0       0       0       0       0
  5646 ;;Total ram usage:        1 bytes
  5647 ;; Hardware stack levels used:    1
  5648 ;; Hardware stack levels required when called:    4
  5649 ;; This function calls:
  5650 ;;		Nothing
  5651 ;; This function is called by:
  5652 ;;		_Sensor_Service
  5653 ;; This function uses a non-reentrant model
  5654 ;;
  5655                           
  5656                           
  5657                           ;psect for function _Sensor_DefaultCallback
  5658  0801                     _Sensor_DefaultCallback:	
  5659  0801                     l453:	
  5660                           ;incstack = 0
  5661                           ; Regs used in _Sensor_DefaultCallback: []
  5662                           
  5663  0801  0008               	return
  5664  0802                     __end_of_Sensor_DefaultCallback:	
  5665                           
  5666                           	psect	text32
  5667  0E92                     __ptext32:	
  5668 ;; *************** function _Sensor_Acquisition *****************
  5669 ;; Defined at:
  5670 ;;		line 355 in file "mcc_generated_files/mtouch/mtouch_sensor.c"
  5671 ;; Parameters:    Size  Location     Type
  5672 ;;  sensor_adc1     1    wreg     PTR struct .
  5673 ;;		 -> mtouch_sensor(9), 
  5674 ;;  sensor_adc2     1   27[BANK0 ] PTR struct .
  5675 ;;		 -> NULL(0), 
  5676 ;; Auto vars:     Size  Location     Type
  5677 ;;  sensor_adc1     1   30[BANK0 ] PTR struct .
  5678 ;;		 -> mtouch_sensor(9), 
  5679 ;;  retry           1   29[BANK0 ] unsigned char 
  5680 ;; Return value:  Size  Location     Type
  5681 ;;                  1    wreg      enum E2856
  5682 ;; Registers used:
  5683 ;;		wreg, fsr0l, fsr0h, fsr1l, fsr1h, status,2, status,0, pclath, cstack
  5684 ;; Tracked objects:
  5685 ;;		On entry : 0/0
  5686 ;;		On exit  : 0/0
  5687 ;;		Unchanged: 0/0
  5688 ;; Data sizes:     COMMON   BANK0   BANK1   BANK2   BANK3   BANK4   BANK5   BANK6
  5689 ;;      Params:         0       1       0       0       0       0       0       0
  5690 ;;      Locals:         0       2       0       0       0       0       0       0
  5691 ;;      Temps:          0       1       0       0       0       0       0       0
  5692 ;;      Totals:         0       4       0       0       0       0       0       0
  5693 ;;Total ram usage:        4 bytes
  5694 ;; Hardware stack levels used:    1
  5695 ;; Hardware stack levels required when called:    8
  5696 ;; This function calls:
  5697 ;;		_Sensor_Acq_ExecutePacket
  5698 ;;		_Sensor_Scanfrequency_Evaluation
  5699 ;;		_Sensor_isActive
  5700 ;;		_Sensor_isCalibrated
  5701 ;;		_Sensor_postAcquisitionProcess
  5702 ;; This function is called by:
  5703 ;;		_Sensor_Service
  5704 ;; This function uses a non-reentrant model
  5705 ;;
  5706                           
  5707                           
  5708                           ;psect for function _Sensor_Acquisition
  5709  0E92                     _Sensor_Acquisition:	
  5710                           
  5711                           ;incstack = 0
  5712                           ; Regs used in _Sensor_Acquisition: [wreg-fsr1h+status,2+status,0+pclath+cstack]
  5713                           ;Sensor_Acquisition@sensor_adc1 stored from wreg
  5714  0E92  0020               	movlb	0	; select bank0
  5715  0E93  00BE               	movwf	Sensor_Acquisition@sensor_adc1
  5716  0E94                     l4401:	
  5717                           
  5718                           ;mcc_generated_files/mtouch/mtouch_sensor.c: 355: static enum mtouch_sensor_error Sensor
      +                          _Acquisition(mtouch_sensor_t* sensor_adc1,mtouch_sensor_t* sensor_adc2);mcc_generated_fi
      +                          les/mtouch/mtouch_sensor.c: 356: {;mcc_generated_files/mtouch/mtouch_sensor.c: 357:     
      +                          uint8_t retry = (uint8_t)5;
  5719  0E94  3005               	movlw	5
  5720  0E95  00BC               	movwf	??_Sensor_Acquisition
  5721  0E96  083C               	movf	??_Sensor_Acquisition,w
  5722  0E97  00BD               	movwf	Sensor_Acquisition@retry
  5723  0E98                     l4403:	
  5724                           
  5725                           ;mcc_generated_files/mtouch/mtouch_sensor.c: 360:     if (sensor_adc1 == ((void*)0) && s
      +                          ensor_adc2 == ((void*)0))
  5726  0E98  083E               	movf	Sensor_Acquisition@sensor_adc1,w
  5727  0E99  1D03               	btfss	3,2
  5728  0E9A  2E9C               	goto	u4011
  5729  0E9B  2E9D               	goto	u4010
  5730  0E9C                     u4011:	
  5731  0E9C  2EAE               	goto	l4417
  5732  0E9D                     u4010:	
  5733  0E9D                     l4405:	
  5734  0E9D  083B               	movf	Sensor_Acquisition@sensor_adc2,w
  5735  0E9E  1D03               	btfss	3,2
  5736  0E9F  2EA1               	goto	u4021
  5737  0EA0  2EA2               	goto	u4020
  5738  0EA1                     u4021:	
  5739  0EA1  2EAE               	goto	l4417
  5740  0EA2                     u4020:	
  5741  0EA2                     l4407:	
  5742                           
  5743                           ;mcc_generated_files/mtouch/mtouch_sensor.c: 361:     {;mcc_generated_files/mtouch/mtouc
      +                          h_sensor.c: 362:         return MTOUCH_SENSOR_ERROR_invalid_index;
  5744  0EA2  30FF               	movlw	255
  5745  0EA3  2F02               	goto	l332
  5746  0EA4                     l4411:	
  5747                           
  5748                           ;mcc_generated_files/mtouch/mtouch_sensor.c: 371:     {;mcc_generated_files/mtouch/mtouc
      +                          h_sensor.c: 372:         retry--;
  5749  0EA4  3001               	movlw	1
  5750  0EA5  0020               	movlb	0	; select bank0
  5751  0EA6  02BD               	subwf	Sensor_Acquisition@retry,f
  5752                           
  5753                           ;mcc_generated_files/mtouch/mtouch_sensor.c: 373:         if(retry == 0)
  5754  0EA7  083D               	movf	Sensor_Acquisition@retry,w
  5755  0EA8  1D03               	btfss	3,2
  5756  0EA9  2EAB               	goto	u4031
  5757  0EAA  2EAC               	goto	u4030
  5758  0EAB                     u4031:	
  5759  0EAB  2EAE               	goto	l4417
  5760  0EAC                     u4030:	
  5761  0EAC                     l4413:	
  5762                           
  5763                           ;mcc_generated_files/mtouch/mtouch_sensor.c: 374:         {;mcc_generated_files/mtouch/m
      +                          touch_sensor.c: 375:             return MTOUCH_SENSOR_ERROR_tooManyRetries;
  5764  0EAC  30FC               	movlw	252
  5765  0EAD  2F02               	goto	l332
  5766  0EAE                     l4417:	
  5767                           
  5768                           ;mcc_generated_files/mtouch/mtouch_sensor.c: 370:     while(Sensor_Acq_ExecutePacket(sen
      +                          sor_adc1,sensor_adc2))
  5769  0EAE  083B               	movf	Sensor_Acquisition@sensor_adc2,w
  5770  0EAF  00BC               	movwf	??_Sensor_Acquisition
  5771  0EB0  083C               	movf	??_Sensor_Acquisition,w
  5772  0EB1  00FB               	movwf	Sensor_Acq_ExecutePacket@sensor_adc2
  5773  0EB2  083E               	movf	Sensor_Acquisition@sensor_adc1,w
  5774  0EB3  3180  205D  318E   	fcall	_Sensor_Acq_ExecutePacket
  5775  0EB6  3A00               	xorlw	0
  5776  0EB7  1D03               	skipz
  5777  0EB8  2EBA               	goto	u4041
  5778  0EB9  2EBB               	goto	u4040
  5779  0EBA                     u4041:	
  5780  0EBA  2EA4               	goto	l4411
  5781  0EBB                     u4040:	
  5782  0EBB                     l4419:	
  5783                           
  5784                           ;mcc_generated_files/mtouch/mtouch_sensor.c: 379:     if(sensor_adc1 != ((void*)0))
  5785  0EBB  0020               	movlb	0	; select bank0
  5786  0EBC  083E               	movf	Sensor_Acquisition@sensor_adc1,w
  5787  0EBD  1903               	btfsc	3,2
  5788  0EBE  2EC0               	goto	u4051
  5789  0EBF  2EC1               	goto	u4050
  5790  0EC0                     u4051:	
  5791  0EC0  2EC5               	goto	l4423
  5792  0EC1                     u4050:	
  5793  0EC1                     l4421:	
  5794                           
  5795                           ;mcc_generated_files/mtouch/mtouch_sensor.c: 380:     {;mcc_generated_files/mtouch/mtouc
      +                          h_sensor.c: 381:         Sensor_postAcquisitionProcess(sensor_adc1);
  5796  0EC1  083E               	movf	Sensor_Acquisition@sensor_adc1,w
  5797  0EC2  318D  2504  318E   	fcall	_Sensor_postAcquisitionProcess
  5798  0EC5                     l4423:	
  5799                           
  5800                           ;mcc_generated_files/mtouch/mtouch_sensor.c: 384:     if(sensor_adc2 !=((void*)0))
  5801  0EC5  0020               	movlb	0	; select bank0
  5802  0EC6  083B               	movf	Sensor_Acquisition@sensor_adc2,w
  5803  0EC7  1903               	btfsc	3,2
  5804  0EC8  2ECA               	goto	u4061
  5805  0EC9  2ECB               	goto	u4060
  5806  0ECA                     u4061:	
  5807  0ECA  2ECF               	goto	l4427
  5808  0ECB                     u4060:	
  5809  0ECB                     l4425:	
  5810                           
  5811                           ;mcc_generated_files/mtouch/mtouch_sensor.c: 385:     {;mcc_generated_files/mtouch/mtouc
      +                          h_sensor.c: 386:         Sensor_postAcquisitionProcess(sensor_adc2);
  5812  0ECB  083B               	movf	Sensor_Acquisition@sensor_adc2,w
  5813  0ECC  318D  2504  318E   	fcall	_Sensor_postAcquisitionProcess
  5814  0ECF                     l4427:	
  5815                           
  5816                           ;mcc_generated_files/mtouch/mtouch_sensor.c: 389:     if((Sensor_isActive(sensor_adc1) &
      +                          & Sensor_isCalibrated(sensor_adc1))
  5817  0ECF  0020               	movlb	0	; select bank0
  5818  0ED0  083E               	movf	Sensor_Acquisition@sensor_adc1,w
  5819  0ED1  3188  20B9  318E   	fcall	_Sensor_isActive
  5820  0ED4  3A00               	xorlw	0
  5821  0ED5  1903               	skipnz
  5822  0ED6  2ED8               	goto	u4071
  5823  0ED7  2ED9               	goto	u4070
  5824  0ED8                     u4071:	
  5825  0ED8  2EE3               	goto	l4431
  5826  0ED9                     u4070:	
  5827  0ED9                     l4429:	
  5828  0ED9  0020               	movlb	0	; select bank0
  5829  0EDA  083E               	movf	Sensor_Acquisition@sensor_adc1,w
  5830  0EDB  3188  2088  318E   	fcall	_Sensor_isCalibrated
  5831  0EDE  3A00               	xorlw	0
  5832  0EDF  1D03               	skipz
  5833  0EE0  2EE2               	goto	u4081
  5834  0EE1  2EE3               	goto	u4080
  5835  0EE2                     u4081:	
  5836  0EE2  2EF7               	goto	l4435
  5837  0EE3                     u4080:	
  5838  0EE3                     l4431:	
  5839  0EE3  0020               	movlb	0	; select bank0
  5840  0EE4  083B               	movf	Sensor_Acquisition@sensor_adc2,w
  5841  0EE5  3188  20B9  318E   	fcall	_Sensor_isActive
  5842  0EE8  3A00               	xorlw	0
  5843  0EE9  1903               	skipnz
  5844  0EEA  2EEC               	goto	u4091
  5845  0EEB  2EED               	goto	u4090
  5846  0EEC                     u4091:	
  5847  0EEC  2F01               	goto	l4439
  5848  0EED                     u4090:	
  5849  0EED                     l4433:	
  5850  0EED  0020               	movlb	0	; select bank0
  5851  0EEE  083B               	movf	Sensor_Acquisition@sensor_adc2,w
  5852  0EEF  3188  2088  318E   	fcall	_Sensor_isCalibrated
  5853  0EF2  3A00               	xorlw	0
  5854  0EF3  1903               	skipnz
  5855  0EF4  2EF6               	goto	u4101
  5856  0EF5  2EF7               	goto	u4100
  5857  0EF6                     u4101:	
  5858  0EF6  2F01               	goto	l4439
  5859  0EF7                     u4100:	
  5860  0EF7                     l4435:	
  5861                           
  5862                           ;mcc_generated_files/mtouch/mtouch_sensor.c: 391:     {;mcc_generated_files/mtouch/mtouc
      +                          h_sensor.c: 392:         return Sensor_Scanfrequency_Evaluation(sensor_adc1,sensor_adc2)
      +                          ;
  5863  0EF7  0020               	movlb	0	; select bank0
  5864  0EF8  083B               	movf	Sensor_Acquisition@sensor_adc2,w
  5865  0EF9  00BC               	movwf	??_Sensor_Acquisition
  5866  0EFA  083C               	movf	??_Sensor_Acquisition,w
  5867  0EFB  00AE               	movwf	Sensor_Scanfrequency_Evaluation@sensor_adc2
  5868  0EFC  083E               	movf	Sensor_Acquisition@sensor_adc1,w
  5869  0EFD  318F  277F  318E   	fcall	_Sensor_Scanfrequency_Evaluation
  5870  0F00  2F02               	goto	l332
  5871  0F01                     l4439:	
  5872                           
  5873                           ;mcc_generated_files/mtouch/mtouch_sensor.c: 395:     return MTOUCH_SENSOR_ERROR_none;
  5874  0F01  3000               	movlw	0
  5875  0F02                     l332:	
  5876  0F02  0008               	return
  5877  0F03                     __end_of_Sensor_Acquisition:	
  5878                           
  5879                           	psect	text33
  5880  0D04                     __ptext33:	
  5881 ;; *************** function _Sensor_postAcquisitionProcess *****************
  5882 ;; Defined at:
  5883 ;;		line 398 in file "mcc_generated_files/mtouch/mtouch_sensor.c"
  5884 ;; Parameters:    Size  Location     Type
  5885 ;;  sensor          1    wreg     PTR struct .
  5886 ;;		 -> NULL(0), mtouch_sensor(9), 
  5887 ;; Auto vars:     Size  Location     Type
  5888 ;;  sensor          1    9[COMMON] PTR struct .
  5889 ;;		 -> NULL(0), mtouch_sensor(9), 
  5890 ;;  deviation       2    6[COMMON] unsigned short 
  5891 ;;  adcIndex        1    8[COMMON] unsigned char 
  5892 ;; Return value:  Size  Location     Type
  5893 ;;                  1    wreg      void 
  5894 ;; Registers used:
  5895 ;;		wreg, fsr0l, fsr0h, fsr1l, fsr1h, status,2, status,0, pclath, cstack
  5896 ;; Tracked objects:
  5897 ;;		On entry : 0/0
  5898 ;;		On exit  : 0/0
  5899 ;;		Unchanged: 0/0
  5900 ;; Data sizes:     COMMON   BANK0   BANK1   BANK2   BANK3   BANK4   BANK5   BANK6
  5901 ;;      Params:         0       0       0       0       0       0       0       0
  5902 ;;      Locals:         4       0       0       0       0       0       0       0
  5903 ;;      Temps:          1       0       0       0       0       0       0       0
  5904 ;;      Totals:         5       0       0       0       0       0       0       0
  5905 ;;Total ram usage:        5 bytes
  5906 ;; Hardware stack levels used:    1
  5907 ;; Hardware stack levels required when called:    5
  5908 ;; This function calls:
  5909 ;;		_Sensor_getScanGroupIndex
  5910 ;;		_Sensor_isEnabled
  5911 ;;		_Sensor_setActive
  5912 ;;		_Sensor_setInactive
  5913 ;;		_abs
  5914 ;; This function is called by:
  5915 ;;		_Sensor_Acquisition
  5916 ;; This function uses a non-reentrant model
  5917 ;;
  5918                           
  5919                           
  5920                           ;psect for function _Sensor_postAcquisitionProcess
  5921  0D04                     _Sensor_postAcquisitionProcess:	
  5922                           
  5923                           ;incstack = 0
  5924                           ; Regs used in _Sensor_postAcquisitionProcess: [wreg-fsr1h+status,2+status,0+pclath+csta
      +                          ck]
  5925                           ;Sensor_postAcquisitionProcess@sensor stored from wreg
  5926  0D04  00F9               	movwf	Sensor_postAcquisitionProcess@sensor
  5927  0D05                     l3221:	
  5928                           
  5929                           ;mcc_generated_files/mtouch/mtouch_sensor.c: 398: static void Sensor_postAcquisitionProc
      +                          ess(mtouch_sensor_t* sensor);mcc_generated_files/mtouch/mtouch_sensor.c: 399: {;mcc_gene
      +                          rated_files/mtouch/mtouch_sensor.c: 400:     mtouch_sensor_sample_t deviation;;mcc_gener
      +                          ated_files/mtouch/mtouch_sensor.c: 401:     uint8_t adcIndex = Sensor_getScanGroupIndex(
      +                          sensor);
  5930  0D05  0879               	movf	Sensor_postAcquisitionProcess@sensor,w
  5931  0D06  318C  2498  318D   	fcall	_Sensor_getScanGroupIndex
  5932  0D09  00F5               	movwf	??_Sensor_postAcquisitionProcess
  5933  0D0A  0875               	movf	??_Sensor_postAcquisitionProcess,w
  5934  0D0B  00F8               	movwf	Sensor_postAcquisitionProcess@adcIndex
  5935  0D0C                     l3223:	
  5936                           
  5937                           ;mcc_generated_files/mtouch/mtouch_sensor.c: 403:     if(Sensor_isEnabled(sensor))
  5938  0D0C  0879               	movf	Sensor_postAcquisitionProcess@sensor,w
  5939  0D0D  3189  214C  318D   	fcall	_Sensor_isEnabled
  5940  0D10  3A00               	xorlw	0
  5941  0D11  1903               	skipnz
  5942  0D12  2D14               	goto	u2381
  5943  0D13  2D15               	goto	u2380
  5944  0D14                     u2381:	
  5945  0D14  2D2C               	goto	l3227
  5946  0D15                     u2380:	
  5947  0D15                     l3225:	
  5948                           
  5949                           ;mcc_generated_files/mtouch/mtouch_sensor.c: 404:         deviation = (mtouch_sensor_sam
      +                          ple_t)abs(packet_sample[adcIndex] - sensor->rawSample);
  5950  0D15  0879               	movf	Sensor_postAcquisitionProcess@sensor,w
  5951  0D16  3E06               	addlw	6
  5952  0D17  0086               	movwf	6
  5953  0D18  0187               	clrf	7
  5954  0D19  3578               	lslf	Sensor_postAcquisitionProcess@adcIndex,w
  5955  0D1A  3E49               	addlw	(low (_packet_sample| 0))& (0+255)
  5956  0D1B  0084               	movwf	4
  5957  0D1C  0185               	clrf	5
  5958  0D1D  3F40               	moviw [0]fsr1
  5959  0D1E  0200               	subwf	0,w
  5960  0D1F  00F1               	movwf	abs@a
  5961  0D20  3101               	addfsr 0,1
  5962  0D21  3F41               	moviw [1]fsr1
  5963  0D22  3B00               	subwfb	0,w
  5964  0D23  00F2               	movwf	abs@a+1
  5965  0D24  318A  2267  318D   	fcall	_abs
  5966  0D27  0872               	movf	?_abs+1,w
  5967  0D28  00F7               	movwf	Sensor_postAcquisitionProcess@deviation+1
  5968  0D29  0871               	movf	?_abs,w
  5969  0D2A  00F6               	movwf	Sensor_postAcquisitionProcess@deviation
  5970  0D2B  2D2E               	goto	l3229
  5971  0D2C                     l3227:	
  5972                           
  5973                           ;mcc_generated_files/mtouch/mtouch_sensor.c: 406:         deviation = 0;
  5974  0D2C  01F6               	clrf	Sensor_postAcquisitionProcess@deviation
  5975  0D2D  01F7               	clrf	Sensor_postAcquisitionProcess@deviation+1
  5976  0D2E                     l3229:	
  5977                           
  5978                           ;mcc_generated_files/mtouch/mtouch_sensor.c: 408:     if(deviation > 100u)
  5979  0D2E  3000               	movlw	0
  5980  0D2F  0277               	subwf	Sensor_postAcquisitionProcess@deviation+1,w
  5981  0D30  3065               	movlw	101
  5982  0D31  1903               	skipnz
  5983  0D32  0276               	subwf	Sensor_postAcquisitionProcess@deviation,w
  5984  0D33  1C03               	skipc
  5985  0D34  2D36               	goto	u2391
  5986  0D35  2D37               	goto	u2390
  5987  0D36                     u2391:	
  5988  0D36  2D3C               	goto	l3233
  5989  0D37                     u2390:	
  5990  0D37                     l3231:	
  5991                           
  5992                           ;mcc_generated_files/mtouch/mtouch_sensor.c: 409:         Sensor_setActive(sensor);
  5993  0D37  0879               	movf	Sensor_postAcquisitionProcess@sensor,w
  5994  0D38  3188  2063  318D   	fcall	_Sensor_setActive
  5995  0D3B  2D40               	goto	l350
  5996  0D3C                     l3233:	
  5997                           
  5998                           ;mcc_generated_files/mtouch/mtouch_sensor.c: 411:         Sensor_setInactive(sensor);
  5999  0D3C  0879               	movf	Sensor_postAcquisitionProcess@sensor,w
  6000  0D3D  3188  206A  318D   	fcall	_Sensor_setInactive
  6001  0D40                     l350:	
  6002  0D40  0008               	return
  6003  0D41                     __end_of_Sensor_postAcquisitionProcess:	
  6004                           
  6005                           	psect	text34
  6006  086A                     __ptext34:	
  6007 ;; *************** function _Sensor_setInactive *****************
  6008 ;; Defined at:
  6009 ;;		line 860 in file "mcc_generated_files/mtouch/mtouch_sensor.c"
  6010 ;; Parameters:    Size  Location     Type
  6011 ;;  sensor          1    wreg     PTR struct .
  6012 ;;		 -> NULL(0), mtouch_sensor(9), 
  6013 ;; Auto vars:     Size  Location     Type
  6014 ;;  sensor          1    1[COMMON] PTR struct .
  6015 ;;		 -> NULL(0), mtouch_sensor(9), 
  6016 ;; Return value:  Size  Location     Type
  6017 ;;                  1    wreg      void 
  6018 ;; Registers used:
  6019 ;;		wreg, fsr1l, fsr1h, status,2, status,0
  6020 ;; Tracked objects:
  6021 ;;		On entry : 0/0
  6022 ;;		On exit  : 0/0
  6023 ;;		Unchanged: 0/0
  6024 ;; Data sizes:     COMMON   BANK0   BANK1   BANK2   BANK3   BANK4   BANK5   BANK6
  6025 ;;      Params:         0       0       0       0       0       0       0       0
  6026 ;;      Locals:         1       0       0       0       0       0       0       0
  6027 ;;      Temps:          0       0       0       0       0       0       0       0
  6028 ;;      Totals:         1       0       0       0       0       0       0       0
  6029 ;;Total ram usage:        1 bytes
  6030 ;; Hardware stack levels used:    1
  6031 ;; Hardware stack levels required when called:    4
  6032 ;; This function calls:
  6033 ;;		Nothing
  6034 ;; This function is called by:
  6035 ;;		_Sensor_postAcquisitionProcess
  6036 ;; This function uses a non-reentrant model
  6037 ;;
  6038                           
  6039                           
  6040                           ;psect for function _Sensor_setInactive
  6041  086A                     _Sensor_setInactive:	
  6042                           
  6043                           ;incstack = 0
  6044                           ; Regs used in _Sensor_setInactive: [wreg+fsr1l+fsr1h+status,2+status,0]
  6045                           ;Sensor_setInactive@sensor stored from wreg
  6046  086A  00F1               	movwf	Sensor_setInactive@sensor
  6047  086B                     l3193:	
  6048                           
  6049                           ;mcc_generated_files/mtouch/mtouch_sensor.c: 860: static __attribute__((inline)) void Se
      +                          nsor_setInactive(mtouch_sensor_t* sensor);mcc_generated_files/mtouch/mtouch_sensor.c: 86
      +                          1: {;mcc_generated_files/mtouch/mtouch_sensor.c: 862:     sensor->active = 0;
  6050  086B  0871               	movf	Sensor_setInactive@sensor,w
  6051  086C  3E08               	addlw	8
  6052  086D  0086               	movwf	6
  6053  086E  0187               	clrf	7
  6054  086F  1081               	bcf	1,1
  6055  0870                     l480:	
  6056  0870  0008               	return
  6057  0871                     __end_of_Sensor_setInactive:	
  6058                           
  6059                           	psect	text35
  6060  0863                     __ptext35:	
  6061 ;; *************** function _Sensor_setActive *****************
  6062 ;; Defined at:
  6063 ;;		line 855 in file "mcc_generated_files/mtouch/mtouch_sensor.c"
  6064 ;; Parameters:    Size  Location     Type
  6065 ;;  sensor          1    wreg     PTR struct .
  6066 ;;		 -> NULL(0), mtouch_sensor(9), 
  6067 ;; Auto vars:     Size  Location     Type
  6068 ;;  sensor          1    1[COMMON] PTR struct .
  6069 ;;		 -> NULL(0), mtouch_sensor(9), 
  6070 ;; Return value:  Size  Location     Type
  6071 ;;                  1    wreg      void 
  6072 ;; Registers used:
  6073 ;;		wreg, fsr1l, fsr1h, status,2, status,0
  6074 ;; Tracked objects:
  6075 ;;		On entry : 0/0
  6076 ;;		On exit  : 0/0
  6077 ;;		Unchanged: 0/0
  6078 ;; Data sizes:     COMMON   BANK0   BANK1   BANK2   BANK3   BANK4   BANK5   BANK6
  6079 ;;      Params:         0       0       0       0       0       0       0       0
  6080 ;;      Locals:         1       0       0       0       0       0       0       0
  6081 ;;      Temps:          0       0       0       0       0       0       0       0
  6082 ;;      Totals:         1       0       0       0       0       0       0       0
  6083 ;;Total ram usage:        1 bytes
  6084 ;; Hardware stack levels used:    1
  6085 ;; Hardware stack levels required when called:    4
  6086 ;; This function calls:
  6087 ;;		Nothing
  6088 ;; This function is called by:
  6089 ;;		_Sensor_postAcquisitionProcess
  6090 ;; This function uses a non-reentrant model
  6091 ;;
  6092                           
  6093                           
  6094                           ;psect for function _Sensor_setActive
  6095  0863                     _Sensor_setActive:	
  6096                           
  6097                           ;incstack = 0
  6098                           ; Regs used in _Sensor_setActive: [wreg+fsr1l+fsr1h+status,2+status,0]
  6099                           ;Sensor_setActive@sensor stored from wreg
  6100  0863  00F1               	movwf	Sensor_setActive@sensor
  6101  0864                     l3191:	
  6102                           
  6103                           ;mcc_generated_files/mtouch/mtouch_sensor.c: 855: static __attribute__((inline)) void Se
      +                          nsor_setActive(mtouch_sensor_t* sensor);mcc_generated_files/mtouch/mtouch_sensor.c: 856:
      +                           {;mcc_generated_files/mtouch/mtouch_sensor.c: 857:     sensor->active = 1;
  6104  0864  0871               	movf	Sensor_setActive@sensor,w
  6105  0865  3E08               	addlw	8
  6106  0866  0086               	movwf	6
  6107  0867  0187               	clrf	7
  6108  0868  1481               	bsf	1,1
  6109  0869                     l477:	
  6110  0869  0008               	return
  6111  086A                     __end_of_Sensor_setActive:	
  6112                           
  6113                           	psect	text36
  6114  0F7F                     __ptext36:	
  6115 ;; *************** function _Sensor_Scanfrequency_Evaluation *****************
  6116 ;; Defined at:
  6117 ;;		line 716 in file "mcc_generated_files/mtouch/mtouch_sensor.c"
  6118 ;; Parameters:    Size  Location     Type
  6119 ;;  sensor_adc1     1    wreg     PTR struct .
  6120 ;;		 -> mtouch_sensor(9), 
  6121 ;;  sensor_adc2     1   14[BANK0 ] PTR struct .
  6122 ;;		 -> NULL(0), 
  6123 ;; Auto vars:     Size  Location     Type
  6124 ;;  sensor_adc1     1   17[BANK0 ] PTR struct .
  6125 ;;		 -> mtouch_sensor(9), 
  6126 ;;  best_packet_    4   22[BANK0 ] unsigned short [2]
  6127 ;;  packet_noise    2   18[BANK0 ] unsigned short 
  6128 ;;  i               1   26[BANK0 ] unsigned char 
  6129 ;;  retry           1   21[BANK0 ] unsigned char 
  6130 ;;  best_sample_    1   20[BANK0 ] unsigned char 
  6131 ;; Return value:  Size  Location     Type
  6132 ;;                  1    wreg      enum E2856
  6133 ;; Registers used:
  6134 ;;		wreg, fsr0l, fsr0h, fsr1l, fsr1h, status,2, status,0, pclath, cstack
  6135 ;; Tracked objects:
  6136 ;;		On entry : 0/0
  6137 ;;		On exit  : 0/0
  6138 ;;		Unchanged: 0/0
  6139 ;; Data sizes:     COMMON   BANK0   BANK1   BANK2   BANK3   BANK4   BANK5   BANK6
  6140 ;;      Params:         0       1       0       0       0       0       0       0
  6141 ;;      Locals:         0      10       0       0       0       0       0       0
  6142 ;;      Temps:          0       2       0       0       0       0       0       0
  6143 ;;      Totals:         0      13       0       0       0       0       0       0
  6144 ;;Total ram usage:       13 bytes
  6145 ;; Hardware stack levels used:    1
  6146 ;; Hardware stack levels required when called:    7
  6147 ;; This function calls:
  6148 ;;		_Sensor_Acq_ExecutePacket
  6149 ;; This function is called by:
  6150 ;;		_Sensor_Acquisition
  6151 ;; This function uses a non-reentrant model
  6152 ;;
  6153                           
  6154                           
  6155                           ;psect for function _Sensor_Scanfrequency_Evaluation
  6156  0F7F                     _Sensor_Scanfrequency_Evaluation:	
  6157                           
  6158                           ;incstack = 0
  6159                           ; Regs used in _Sensor_Scanfrequency_Evaluation: [wreg-fsr1h+status,2+status,0+pclath+cs
      +                          tack]
  6160                           ;Sensor_Scanfrequency_Evaluation@sensor_adc1 stored from wreg
  6161  0F7F  0020               	movlb	0	; select bank0
  6162  0F80  00B1               	movwf	Sensor_Scanfrequency_Evaluation@sensor_adc1
  6163  0F81                     l4341:	
  6164                           
  6165                           ;mcc_generated_files/mtouch/mtouch_sensor.c: 716: static enum mtouch_sensor_error Sensor
      +                          _Scanfrequency_Evaluation(mtouch_sensor_t* sensor_adc1,mtouch_sensor_t* sensor_adc2);mcc
      +                          _generated_files/mtouch/mtouch_sensor.c: 717: {;mcc_generated_files/mtouch/mtouch_sensor
      +                          .c: 718:     uint8_t i;;mcc_generated_files/mtouch/mtouch_sensor.c: 719:     const mtouc
      +                          h_sensor_sampleperiod_t frequency_hop[5] = {0,13,28,30,23};;mcc_generated_files/mtouch/m
      +                          touch_sensor.c: 720:     mtouch_sensor_packetnoise_t packet_noise_Max;;mcc_generated_fil
      +                          es/mtouch/mtouch_sensor.c: 721:     mtouch_sensor_sampleperiod_t best_sample_period;
  6166  0F81  084E               	movf	_packet_noise+1,w
  6167  0F82  00B0               	movwf	??_Sensor_Scanfrequency_Evaluation+1
  6168  0F83  084D               	movf	_packet_noise,w
  6169  0F84  00AF               	movwf	??_Sensor_Scanfrequency_Evaluation
  6170  0F85  36B0               	lsrf	??_Sensor_Scanfrequency_Evaluation+1,f
  6171  0F86  0CAF               	rrf	??_Sensor_Scanfrequency_Evaluation,f
  6172  0F87  36B0               	lsrf	??_Sensor_Scanfrequency_Evaluation+1,f
  6173  0F88  0CAF               	rrf	??_Sensor_Scanfrequency_Evaluation,f
  6174  0F89  084D               	movf	_packet_noise,w
  6175  0F8A  072F               	addwf	??_Sensor_Scanfrequency_Evaluation,w
  6176  0F8B  00B2               	movwf	Sensor_Scanfrequency_Evaluation@packet_noise_Max
  6177  0F8C  084E               	movf	_packet_noise+1,w
  6178  0F8D  3D30               	addwfc	??_Sensor_Scanfrequency_Evaluation+1,w
  6179  0F8E  00B3               	movwf	Sensor_Scanfrequency_Evaluation@packet_noise_Max+1
  6180  0F8F                     l4343:	
  6181                           
  6182                           ;mcc_generated_files/mtouch/mtouch_sensor.c: 726:     best_sample_period = sample_period
      +                          ;
  6183  0F8F  086E               	movf	_sample_period,w
  6184  0F90  00AF               	movwf	??_Sensor_Scanfrequency_Evaluation
  6185  0F91  082F               	movf	??_Sensor_Scanfrequency_Evaluation,w
  6186  0F92  00B4               	movwf	Sensor_Scanfrequency_Evaluation@best_sample_period
  6187  0F93                     l4345:	
  6188                           
  6189                           ;mcc_generated_files/mtouch/mtouch_sensor.c: 727:     best_packet_sample[0] = packet_sam
      +                          ple[0];
  6190  0F93  084A               	movf	_packet_sample+1,w
  6191  0F94  00B7               	movwf	Sensor_Scanfrequency_Evaluation@best_packet_sample+1
  6192  0F95  0849               	movf	_packet_sample,w
  6193  0F96  00B6               	movwf	Sensor_Scanfrequency_Evaluation@best_packet_sample
  6194  0F97                     l4347:	
  6195                           
  6196                           ;mcc_generated_files/mtouch/mtouch_sensor.c: 728:     best_packet_sample[1] = packet_sam
      +                          ple[1];
  6197  0F97  084C               	movf	_packet_sample+3,w
  6198  0F98  00B9               	movwf	Sensor_Scanfrequency_Evaluation@best_packet_sample+3
  6199  0F99  084B               	movf	_packet_sample+2,w
  6200  0F9A  00B8               	movwf	Sensor_Scanfrequency_Evaluation@best_packet_sample+2
  6201  0F9B                     l4349:	
  6202                           
  6203                           ;mcc_generated_files/mtouch/mtouch_sensor.c: 730:     for(i=(uint8_t)0;i<(uint8_t)5;i++)
  6204  0F9B  01BA               	clrf	Sensor_Scanfrequency_Evaluation@i
  6205  0F9C                     l4355:	
  6206                           
  6207                           ;mcc_generated_files/mtouch/mtouch_sensor.c: 731:     {;mcc_generated_files/mtouch/mtouc
      +                          h_sensor.c: 732:         sample_period += frequency_hop[i];
  6208  0F9C  083A               	movf	Sensor_Scanfrequency_Evaluation@i,w
  6209  0F9D  3E12               	addlw	low (Sensor_Scanfrequency_Evaluation@frequency_hop| (0+32768))
  6210  0F9E  0084               	movwf	4
  6211  0F9F  3090               	movlw	high (Sensor_Scanfrequency_Evaluation@frequency_hop| (0+32768))
  6212  0FA0  1803               	skipnc
  6213  0FA1  3E01               	addlw	1
  6214  0FA2  0085               	movwf	5
  6215  0FA3  0800               	movf	0,w	;code access
  6216  0FA4  00AF               	movwf	??_Sensor_Scanfrequency_Evaluation
  6217  0FA5  082F               	movf	??_Sensor_Scanfrequency_Evaluation,w
  6218  0FA6  07EE               	addwf	_sample_period,f
  6219  0FA7                     l4359:	
  6220                           ;mcc_generated_files/mtouch/mtouch_sensor.c: 733:         if(sample_period > ((mtouch_se
      +                          nsor_sampleperiod_t)255))
  6221                           
  6222  0FA7  30AE               	movlw	174
  6223  0FA8  026E               	subwf	_sample_period,w
  6224  0FA9  1803               	skipnc
  6225  0FAA  2FAC               	goto	u3931
  6226  0FAB  2FAD               	goto	u3930
  6227  0FAC                     u3931:	
  6228  0FAC  2FB1               	goto	l4363
  6229  0FAD                     u3930:	
  6230  0FAD                     l4361:	
  6231                           
  6232                           ;mcc_generated_files/mtouch/mtouch_sensor.c: 739:         {;mcc_generated_files/mtouch/m
      +                          touch_sensor.c: 740:             sample_period += ((mtouch_sensor_sampleperiod_t)(mtouch
      +                          _sensor_time_t)32 +(mtouch_sensor_time_t)32 +(mtouch_sensor_time_t)110);
  6233  0FAD  30AE               	movlw	174
  6234  0FAE  00AF               	movwf	??_Sensor_Scanfrequency_Evaluation
  6235  0FAF  082F               	movf	??_Sensor_Scanfrequency_Evaluation,w
  6236  0FB0  07EE               	addwf	_sample_period,f
  6237  0FB1                     l4363:	
  6238                           
  6239                           ;mcc_generated_files/mtouch/mtouch_sensor.c: 743:         retry = (uint8_t)5;
  6240  0FB1  3005               	movlw	5
  6241  0FB2  00AF               	movwf	??_Sensor_Scanfrequency_Evaluation
  6242  0FB3  082F               	movf	??_Sensor_Scanfrequency_Evaluation,w
  6243  0FB4  00B5               	movwf	Sensor_Scanfrequency_Evaluation@retry
  6244                           
  6245                           ;mcc_generated_files/mtouch/mtouch_sensor.c: 745:         while(Sensor_Acq_ExecutePacket
      +                          (sensor_adc1,sensor_adc2))
  6246  0FB5  2FC0               	goto	l4371
  6247  0FB6                     l4365:	
  6248                           
  6249                           ;mcc_generated_files/mtouch/mtouch_sensor.c: 746:         {;mcc_generated_files/mtouch/m
      +                          touch_sensor.c: 747:             retry--;
  6250  0FB6  3001               	movlw	1
  6251  0FB7  0020               	movlb	0	; select bank0
  6252  0FB8  02B5               	subwf	Sensor_Scanfrequency_Evaluation@retry,f
  6253                           
  6254                           ;mcc_generated_files/mtouch/mtouch_sensor.c: 748:             if(retry == 0)
  6255  0FB9  0835               	movf	Sensor_Scanfrequency_Evaluation@retry,w
  6256  0FBA  1D03               	btfss	3,2
  6257  0FBB  2FBD               	goto	u3941
  6258  0FBC  2FBE               	goto	u3940
  6259  0FBD                     u3941:	
  6260  0FBD  2FC0               	goto	l4371
  6261  0FBE                     u3940:	
  6262  0FBE                     l4367:	
  6263                           
  6264                           ;mcc_generated_files/mtouch/mtouch_sensor.c: 749:             {;mcc_generated_files/mtou
      +                          ch/mtouch_sensor.c: 750:                 return MTOUCH_SENSOR_ERROR_tooManyRetries;
  6265  0FBE  30FC               	movlw	252
  6266  0FBF  2FFF               	goto	l438
  6267  0FC0                     l4371:	
  6268                           
  6269                           ;mcc_generated_files/mtouch/mtouch_sensor.c: 745:         while(Sensor_Acq_ExecutePacket
      +                          (sensor_adc1,sensor_adc2))
  6270  0FC0  082E               	movf	Sensor_Scanfrequency_Evaluation@sensor_adc2,w
  6271  0FC1  00AF               	movwf	??_Sensor_Scanfrequency_Evaluation
  6272  0FC2  082F               	movf	??_Sensor_Scanfrequency_Evaluation,w
  6273  0FC3  00FB               	movwf	Sensor_Acq_ExecutePacket@sensor_adc2
  6274  0FC4  0831               	movf	Sensor_Scanfrequency_Evaluation@sensor_adc1,w
  6275  0FC5  3180  205D  318F   	fcall	_Sensor_Acq_ExecutePacket
  6276  0FC8  3A00               	xorlw	0
  6277  0FC9  1D03               	skipz
  6278  0FCA  2FCC               	goto	u3951
  6279  0FCB  2FCD               	goto	u3950
  6280  0FCC                     u3951:	
  6281  0FCC  2FB6               	goto	l4365
  6282  0FCD                     u3950:	
  6283  0FCD                     l4373:	
  6284                           
  6285                           ;mcc_generated_files/mtouch/mtouch_sensor.c: 754:         if(packet_noise_Max < packet_n
      +                          oise)
  6286  0FCD  0020               	movlb	0	; select bank0
  6287  0FCE  084E               	movf	_packet_noise+1,w
  6288  0FCF  0233               	subwf	Sensor_Scanfrequency_Evaluation@packet_noise_Max+1,w
  6289  0FD0  1D03               	skipz
  6290  0FD1  2FD4               	goto	u3965
  6291  0FD2  084D               	movf	_packet_noise,w
  6292  0FD3  0232               	subwf	Sensor_Scanfrequency_Evaluation@packet_noise_Max,w
  6293  0FD4                     u3965:	
  6294  0FD4  1803               	skipnc
  6295  0FD5  2FD7               	goto	u3961
  6296  0FD6  2FD8               	goto	u3960
  6297  0FD7                     u3961:	
  6298  0FD7  2FE8               	goto	l4377
  6299  0FD8                     u3960:	
  6300  0FD8                     l4375:	
  6301                           
  6302                           ;mcc_generated_files/mtouch/mtouch_sensor.c: 755:         {;mcc_generated_files/mtouch/m
      +                          touch_sensor.c: 756:             packet_noise_Max = packet_noise;
  6303  0FD8  084E               	movf	_packet_noise+1,w
  6304  0FD9  00B3               	movwf	Sensor_Scanfrequency_Evaluation@packet_noise_Max+1
  6305  0FDA  084D               	movf	_packet_noise,w
  6306  0FDB  00B2               	movwf	Sensor_Scanfrequency_Evaluation@packet_noise_Max
  6307                           
  6308                           ;mcc_generated_files/mtouch/mtouch_sensor.c: 757:             best_sample_period = sampl
      +                          e_period;
  6309  0FDC  086E               	movf	_sample_period,w
  6310  0FDD  00AF               	movwf	??_Sensor_Scanfrequency_Evaluation
  6311  0FDE  082F               	movf	??_Sensor_Scanfrequency_Evaluation,w
  6312  0FDF  00B4               	movwf	Sensor_Scanfrequency_Evaluation@best_sample_period
  6313                           
  6314                           ;mcc_generated_files/mtouch/mtouch_sensor.c: 758:             best_packet_sample[0] = pa
      +                          cket_sample[0];
  6315  0FE0  084A               	movf	_packet_sample+1,w
  6316  0FE1  00B7               	movwf	Sensor_Scanfrequency_Evaluation@best_packet_sample+1
  6317  0FE2  0849               	movf	_packet_sample,w
  6318  0FE3  00B6               	movwf	Sensor_Scanfrequency_Evaluation@best_packet_sample
  6319                           
  6320                           ;mcc_generated_files/mtouch/mtouch_sensor.c: 759:             best_packet_sample[1] = pa
      +                          cket_sample[1];
  6321  0FE4  084C               	movf	_packet_sample+3,w
  6322  0FE5  00B9               	movwf	Sensor_Scanfrequency_Evaluation@best_packet_sample+3
  6323  0FE6  084B               	movf	_packet_sample+2,w
  6324  0FE7  00B8               	movwf	Sensor_Scanfrequency_Evaluation@best_packet_sample+2
  6325  0FE8                     l4377:	
  6326                           
  6327                           ;mcc_generated_files/mtouch/mtouch_sensor.c: 761:     }
  6328  0FE8  3001               	movlw	1
  6329  0FE9  00AF               	movwf	??_Sensor_Scanfrequency_Evaluation
  6330  0FEA  082F               	movf	??_Sensor_Scanfrequency_Evaluation,w
  6331  0FEB  07BA               	addwf	Sensor_Scanfrequency_Evaluation@i,f
  6332  0FEC                     l4379:	
  6333  0FEC  3005               	movlw	5
  6334  0FED  023A               	subwf	Sensor_Scanfrequency_Evaluation@i,w
  6335  0FEE  1C03               	skipc
  6336  0FEF  2FF1               	goto	u3971
  6337  0FF0  2FF2               	goto	u3970
  6338  0FF1                     u3971:	
  6339  0FF1  2F9C               	goto	l4355
  6340  0FF2                     u3970:	
  6341  0FF2                     l4381:	
  6342                           
  6343                           ;mcc_generated_files/mtouch/mtouch_sensor.c: 763:     sample_period = best_sample_period
      +                          ;
  6344  0FF2  0834               	movf	Sensor_Scanfrequency_Evaluation@best_sample_period,w
  6345  0FF3  00AF               	movwf	??_Sensor_Scanfrequency_Evaluation
  6346  0FF4  082F               	movf	??_Sensor_Scanfrequency_Evaluation,w
  6347  0FF5  00EE               	movwf	_sample_period
  6348                           
  6349                           ;mcc_generated_files/mtouch/mtouch_sensor.c: 764:     packet_sample[0] = best_packet_sam
      +                          ple[0];
  6350  0FF6  0837               	movf	Sensor_Scanfrequency_Evaluation@best_packet_sample+1,w
  6351  0FF7  00CA               	movwf	_packet_sample+1
  6352  0FF8  0836               	movf	Sensor_Scanfrequency_Evaluation@best_packet_sample,w
  6353  0FF9  00C9               	movwf	_packet_sample
  6354                           
  6355                           ;mcc_generated_files/mtouch/mtouch_sensor.c: 765:     packet_sample[1] = best_packet_sam
      +                          ple[1];
  6356  0FFA  0839               	movf	Sensor_Scanfrequency_Evaluation@best_packet_sample+3,w
  6357  0FFB  00CC               	movwf	_packet_sample+3
  6358  0FFC  0838               	movf	Sensor_Scanfrequency_Evaluation@best_packet_sample+2,w
  6359  0FFD  00CB               	movwf	_packet_sample+2
  6360                           
  6361                           ;mcc_generated_files/mtouch/mtouch_sensor.c: 767:     return MTOUCH_SENSOR_ERROR_none;
  6362  0FFE  3000               	movlw	0
  6363  0FFF                     l438:	
  6364  0FFF  0008               	return
  6365  1000                     __end_of_Sensor_Scanfrequency_Evaluation:	
  6366                           
  6367                           	psect	text37
  6368  005D                     __ptext37:	
  6369 ;; *************** function _Sensor_Acq_ExecutePacket *****************
  6370 ;; Defined at:
  6371 ;;		line 454 in file "mcc_generated_files/mtouch/mtouch_sensor.c"
  6372 ;; Parameters:    Size  Location     Type
  6373 ;;  sensor_adc1     1    wreg     PTR struct .
  6374 ;;		 -> mtouch_sensor(9), 
  6375 ;;  sensor_adc2     1   11[COMMON] PTR struct .
  6376 ;;		 -> NULL(0), 
  6377 ;; Auto vars:     Size  Location     Type
  6378 ;;  sensor_adc1     1   13[BANK0 ] PTR struct .
  6379 ;;		 -> mtouch_sensor(9), 
  6380 ;;  last_b          2   10[BANK0 ] unsigned short 
  6381 ;;  last_a          2    8[BANK0 ] unsigned short 
  6382 ;;  packet_count    1   12[BANK0 ] unsigned char 
  6383 ;;  activeSensor    1    7[BANK0 ] unsigned char 
  6384 ;;  ADxIF_flag      1    6[BANK0 ] unsigned char 
  6385 ;;  sensor2Force    1    5[BANK0 ] unsigned char 
  6386 ;;  sensor1Force    1    4[BANK0 ] unsigned char 
  6387 ;;  AD2CON2_temp    1    3[BANK0 ] unsigned char 
  6388 ;;  AD1CON2_temp    1    2[BANK0 ] unsigned char 
  6389 ;;  ADCOMCON_tem    1    1[BANK0 ] unsigned char 
  6390 ;; Return value:  Size  Location     Type
  6391 ;;                  1    wreg      enum E2856
  6392 ;; Registers used:
  6393 ;;		wreg, fsr0l, fsr0h, fsr1l, fsr1h, status,2, status,0, pclath, cstack
  6394 ;; Tracked objects:
  6395 ;;		On entry : 0/0
  6396 ;;		On exit  : 0/0
  6397 ;;		Unchanged: 0/0
  6398 ;; Data sizes:     COMMON   BANK0   BANK1   BANK2   BANK3   BANK4   BANK5   BANK6
  6399 ;;      Params:         1       0       0       0       0       0       0       0
  6400 ;;      Locals:         0      13       0       0       0       0       0       0
  6401 ;;      Temps:          0       1       0       0       0       0       0       0
  6402 ;;      Totals:         1      14       0       0       0       0       0       0
  6403 ;;Total ram usage:       15 bytes
  6404 ;; Hardware stack levels used:    1
  6405 ;; Hardware stack levels required when called:    6
  6406 ;; This function calls:
  6407 ;;		_MTOUCH_Sensor_Scan_Initialize
  6408 ;;		_Sensor_autoCalibration
  6409 ;;		_Sensor_isActive
  6410 ;;		_Sensor_isCalibrated
  6411 ;;		_Sensor_isEnabled
  6412 ;;		_Sensor_loadADCSettings
  6413 ;;		_TMR2_LoadPeriodRegister
  6414 ;;		_TMR2_StartTimer
  6415 ;;		_TMR2_StopTimer
  6416 ;;		_abs
  6417 ;; This function is called by:
  6418 ;;		_Sensor_Acquisition
  6419 ;;		_Sensor_Scanfrequency_Evaluation
  6420 ;; This function uses a non-reentrant model
  6421 ;;
  6422                           
  6423                           
  6424                           ;psect for function _Sensor_Acq_ExecutePacket
  6425  005D                     _Sensor_Acq_ExecutePacket:	
  6426                           
  6427                           ;incstack = 0
  6428                           ; Regs used in _Sensor_Acq_ExecutePacket: [wreg-fsr1h+status,2+status,0+pclath+cstack]
  6429                           ;Sensor_Acq_ExecutePacket@sensor_adc1 stored from wreg
  6430  005D  0020               	movlb	0	; select bank0
  6431  005E  00AD               	movwf	Sensor_Acq_ExecutePacket@sensor_adc1
  6432  005F                     l4119:	
  6433                           
  6434                           ;mcc_generated_files/mtouch/mtouch_sensor.c: 457:     mtouch_sensor_packetcounter_t pack
      +                          et_counter;;mcc_generated_files/mtouch/mtouch_sensor.c: 459:     mtouch_sensor_adcsample
      +                          _t last_a = 0;
  6435  005F  01A8               	clrf	Sensor_Acq_ExecutePacket@last_a
  6436  0060  01A9               	clrf	Sensor_Acq_ExecutePacket@last_a+1
  6437                           
  6438                           ;mcc_generated_files/mtouch/mtouch_sensor.c: 460:     mtouch_sensor_adcsample_t last_b =
      +                           0;
  6439  0061  01AA               	clrf	Sensor_Acq_ExecutePacket@last_b
  6440  0062  01AB               	clrf	Sensor_Acq_ExecutePacket@last_b+1
  6441                           
  6442                           ;mcc_generated_files/mtouch/mtouch_sensor.c: 461:     uint8_t activeSensor = 0;
  6443  0063  01A7               	clrf	Sensor_Acq_ExecutePacket@activeSensor
  6444                           
  6445                           ;mcc_generated_files/mtouch/mtouch_sensor.c: 463:     uint8_t ADCOMCON_temp;;mcc_generat
      +                          ed_files/mtouch/mtouch_sensor.c: 464:     uint8_t AD1CON2_temp,AD2CON2_temp;;mcc_generat
      +                          ed_files/mtouch/mtouch_sensor.c: 470:     uint8_t sensor1ForceEnabled = 0, sensor2ForceE
      +                          nabled = 0;
  6446  0064  01A4               	clrf	Sensor_Acq_ExecutePacket@sensor1ForceEnabled
  6447  0065  01A5               	clrf	Sensor_Acq_ExecutePacket@sensor2ForceEnabled
  6448  0066                     l4121:	
  6449                           
  6450                           ;mcc_generated_files/mtouch/mtouch_sensor.c: 471:     if(sensor_adc1 != ((void*)0) && se
      +                          nsor_adc2 != ((void*)0))
  6451  0066  082D               	movf	Sensor_Acq_ExecutePacket@sensor_adc1,w
  6452  0067  1903               	btfsc	3,2
  6453  0068  286A               	goto	u3551
  6454  0069  286B               	goto	u3550
  6455  006A                     u3551:	
  6456  006A  28B3               	goto	l4151
  6457  006B                     u3550:	
  6458  006B                     l4123:	
  6459  006B  087B               	movf	Sensor_Acq_ExecutePacket@sensor_adc2,w
  6460  006C  1903               	btfsc	3,2
  6461  006D  286F               	goto	u3561
  6462  006E  2870               	goto	u3560
  6463  006F                     u3561:	
  6464  006F  28B3               	goto	l4151
  6465  0070                     u3560:	
  6466  0070                     l4125:	
  6467                           
  6468                           ;mcc_generated_files/mtouch/mtouch_sensor.c: 472:     {;mcc_generated_files/mtouch/mtouc
      +                          h_sensor.c: 473:         if (sensor_adc1->enabled == 0 && sensor_adc2->enabled == 1)
  6469  0070  082D               	movf	Sensor_Acq_ExecutePacket@sensor_adc1,w
  6470  0071  3E08               	addlw	8
  6471  0072  0086               	movwf	6
  6472  0073  0187               	clrf	7
  6473  0074  1981               	btfsc	1,3
  6474  0075  2877               	goto	u3571
  6475  0076  2878               	goto	u3570
  6476  0077                     u3571:	
  6477  0077  2888               	goto	l4133
  6478  0078                     u3570:	
  6479  0078                     l4127:	
  6480  0078  087B               	movf	Sensor_Acq_ExecutePacket@sensor_adc2,w
  6481  0079  3E08               	addlw	8
  6482  007A  0086               	movwf	6
  6483  007B  0187               	clrf	7
  6484  007C  1D81               	btfss	1,3
  6485  007D  287F               	goto	u3581
  6486  007E  2880               	goto	u3580
  6487  007F                     u3581:	
  6488  007F  2888               	goto	l4133
  6489  0080                     u3580:	
  6490  0080                     l4129:	
  6491                           
  6492                           ;mcc_generated_files/mtouch/mtouch_sensor.c: 474:         {;mcc_generated_files/mtouch/m
      +                          touch_sensor.c: 475:             sensor_adc1->enabled = 1;
  6493  0080  082D               	movf	Sensor_Acq_ExecutePacket@sensor_adc1,w
  6494  0081  3E08               	addlw	8
  6495  0082  0086               	movwf	6
  6496  0083  0187               	clrf	7
  6497  0084  1581               	bsf	1,3
  6498  0085                     l4131:	
  6499                           
  6500                           ;mcc_generated_files/mtouch/mtouch_sensor.c: 476:             sensor1ForceEnabled = 1;
  6501  0085  01A4               	clrf	Sensor_Acq_ExecutePacket@sensor1ForceEnabled
  6502  0086  0AA4               	incf	Sensor_Acq_ExecutePacket@sensor1ForceEnabled,f
  6503                           
  6504                           ;mcc_generated_files/mtouch/mtouch_sensor.c: 477:         }
  6505  0087  28D9               	goto	l4175
  6506  0088                     l4133:	
  6507  0088  087B               	movf	Sensor_Acq_ExecutePacket@sensor_adc2,w
  6508  0089  3E08               	addlw	8
  6509  008A  0086               	movwf	6
  6510  008B  0187               	clrf	7
  6511  008C  1981               	btfsc	1,3
  6512  008D  288F               	goto	u3591
  6513  008E  2890               	goto	u3590
  6514  008F                     u3591:	
  6515  008F  28A0               	goto	l4141
  6516  0090                     u3590:	
  6517  0090                     l4135:	
  6518  0090  082D               	movf	Sensor_Acq_ExecutePacket@sensor_adc1,w
  6519  0091  3E08               	addlw	8
  6520  0092  0086               	movwf	6
  6521  0093  0187               	clrf	7
  6522  0094  1D81               	btfss	1,3
  6523  0095  2897               	goto	u3601
  6524  0096  2898               	goto	u3600
  6525  0097                     u3601:	
  6526  0097  28A0               	goto	l4141
  6527  0098                     u3600:	
  6528  0098                     l4137:	
  6529                           
  6530                           ;mcc_generated_files/mtouch/mtouch_sensor.c: 479:         {;mcc_generated_files/mtouch/m
      +                          touch_sensor.c: 480:             sensor_adc2->enabled = 1;
  6531  0098  087B               	movf	Sensor_Acq_ExecutePacket@sensor_adc2,w
  6532  0099  3E08               	addlw	8
  6533  009A  0086               	movwf	6
  6534  009B  0187               	clrf	7
  6535  009C  1581               	bsf	1,3
  6536  009D                     l4139:	
  6537                           
  6538                           ;mcc_generated_files/mtouch/mtouch_sensor.c: 481:             sensor2ForceEnabled = 1;
  6539  009D  01A5               	clrf	Sensor_Acq_ExecutePacket@sensor2ForceEnabled
  6540  009E  0AA5               	incf	Sensor_Acq_ExecutePacket@sensor2ForceEnabled,f
  6541                           
  6542                           ;mcc_generated_files/mtouch/mtouch_sensor.c: 482:         }
  6543  009F  28D9               	goto	l4175
  6544  00A0                     l4141:	
  6545  00A0  082D               	movf	Sensor_Acq_ExecutePacket@sensor_adc1,w
  6546  00A1  3E08               	addlw	8
  6547  00A2  0086               	movwf	6
  6548  00A3  0187               	clrf	7
  6549  00A4  1981               	btfsc	1,3
  6550  00A5  28A7               	goto	u3611
  6551  00A6  28A8               	goto	u3610
  6552  00A7                     u3611:	
  6553  00A7  28B2               	goto	l370
  6554  00A8                     u3610:	
  6555  00A8                     l4143:	
  6556  00A8  087B               	movf	Sensor_Acq_ExecutePacket@sensor_adc2,w
  6557  00A9  3E08               	addlw	8
  6558  00AA  0086               	movwf	6
  6559  00AB  0187               	clrf	7
  6560  00AC  1981               	btfsc	1,3
  6561  00AD  28AF               	goto	u3621
  6562  00AE  28B0               	goto	u3620
  6563  00AF                     u3621:	
  6564  00AF  28B2               	goto	l370
  6565  00B0                     u3620:	
  6566  00B0                     l4145:	
  6567                           
  6568                           ;mcc_generated_files/mtouch/mtouch_sensor.c: 484:         {;mcc_generated_files/mtouch/m
      +                          touch_sensor.c: 485:             return MTOUCH_SENSOR_ERROR_none;
  6569  00B0  3000               	movlw	0
  6570  00B1  2A80               	goto	l374
  6571  00B2                     l370:	
  6572                           
  6573                           ;mcc_generated_files/mtouch/mtouch_sensor.c: 490:     }
  6574  00B2  28D9               	goto	l4175
  6575  00B3                     l4151:	
  6576  00B3  082D               	movf	Sensor_Acq_ExecutePacket@sensor_adc1,w
  6577  00B4  1D03               	btfss	3,2
  6578  00B5  28B7               	goto	u3631
  6579  00B6  28B8               	goto	u3630
  6580  00B7                     u3631:	
  6581  00B7  28C6               	goto	l4163
  6582  00B8                     u3630:	
  6583  00B8                     l4153:	
  6584  00B8  087B               	movf	Sensor_Acq_ExecutePacket@sensor_adc2,w
  6585  00B9  1903               	btfsc	3,2
  6586  00BA  28BC               	goto	u3641
  6587  00BB  28BD               	goto	u3640
  6588  00BC                     u3641:	
  6589  00BC  28C6               	goto	l4163
  6590  00BD                     u3640:	
  6591  00BD                     l4155:	
  6592                           
  6593                           ;mcc_generated_files/mtouch/mtouch_sensor.c: 492:     {;mcc_generated_files/mtouch/mtouc
      +                          h_sensor.c: 493:         if(sensor_adc2->enabled == 0)
  6594  00BD  087B               	movf	Sensor_Acq_ExecutePacket@sensor_adc2,w
  6595  00BE  3E08               	addlw	8
  6596  00BF  0086               	movwf	6
  6597  00C0  0187               	clrf	7
  6598  00C1  1981               	btfsc	1,3
  6599  00C2  28C4               	goto	u3651
  6600  00C3  28C5               	goto	u3650
  6601  00C4                     u3651:	
  6602  00C4  28D9               	goto	l4175
  6603  00C5                     u3650:	
  6604  00C5  28B0               	goto	l4145
  6605  00C6                     l4163:	
  6606  00C6  082D               	movf	Sensor_Acq_ExecutePacket@sensor_adc1,w
  6607  00C7  1903               	btfsc	3,2
  6608  00C8  28CA               	goto	u3661
  6609  00C9  28CB               	goto	u3660
  6610  00CA                     u3661:	
  6611  00CA  28D9               	goto	l4175
  6612  00CB                     u3660:	
  6613  00CB                     l4165:	
  6614  00CB  087B               	movf	Sensor_Acq_ExecutePacket@sensor_adc2,w
  6615  00CC  1D03               	btfss	3,2
  6616  00CD  28CF               	goto	u3671
  6617  00CE  28D0               	goto	u3670
  6618  00CF                     u3671:	
  6619  00CF  28D9               	goto	l4175
  6620  00D0                     u3670:	
  6621  00D0                     l4167:	
  6622                           
  6623                           ;mcc_generated_files/mtouch/mtouch_sensor.c: 502:     {;mcc_generated_files/mtouch/mtouc
      +                          h_sensor.c: 503:         if(sensor_adc1->enabled == 0)
  6624  00D0  082D               	movf	Sensor_Acq_ExecutePacket@sensor_adc1,w
  6625  00D1  3E08               	addlw	8
  6626  00D2  0086               	movwf	6
  6627  00D3  0187               	clrf	7
  6628  00D4  1981               	btfsc	1,3
  6629  00D5  28D7               	goto	u3681
  6630  00D6  28D8               	goto	u3680
  6631  00D7                     u3681:	
  6632  00D7  28D9               	goto	l4175
  6633  00D8                     u3680:	
  6634  00D8  28B0               	goto	l4145
  6635  00D9                     l4175:	
  6636                           
  6637                           ;mcc_generated_files/mtouch/mtouch_sensor.c: 515:     if(Sensor_isActive(sensor_adc2))
  6638  00D9  087B               	movf	Sensor_Acq_ExecutePacket@sensor_adc2,w
  6639  00DA  3188  20B9  3180   	fcall	_Sensor_isActive
  6640  00DD  3A00               	xorlw	0
  6641  00DE  1903               	skipnz
  6642  00DF  28E1               	goto	u3691
  6643  00E0  28E2               	goto	u3690
  6644  00E1                     u3691:	
  6645  00E1  28E5               	goto	l4179
  6646  00E2                     u3690:	
  6647  00E2                     l4177:	
  6648                           
  6649                           ;mcc_generated_files/mtouch/mtouch_sensor.c: 516:         activeSensor = 1;
  6650  00E2  0020               	movlb	0	; select bank0
  6651  00E3  01A7               	clrf	Sensor_Acq_ExecutePacket@activeSensor
  6652  00E4  0AA7               	incf	Sensor_Acq_ExecutePacket@activeSensor,f
  6653  00E5                     l4179:	
  6654                           
  6655                           ;mcc_generated_files/mtouch/mtouch_sensor.c: 522:     ADCOMCON_temp = ADCOMCON;
  6656  00E5  002E               	movlb	14	; select bank14
  6657  00E6  0812               	movf	18,w	;volatile
  6658  00E7  0020               	movlb	0	; select bank0
  6659  00E8  00A0               	movwf	??_Sensor_Acq_ExecutePacket
  6660  00E9  0820               	movf	??_Sensor_Acq_ExecutePacket,w
  6661  00EA  00A1               	movwf	Sensor_Acq_ExecutePacket@ADCOMCON_temp
  6662                           
  6663                           ;mcc_generated_files/mtouch/mtouch_sensor.c: 523:     AD1CON2_temp = AD1CON2;
  6664  00EB  002E               	movlb	14	; select bank14
  6665  00EC  0813               	movf	19,w	;volatile
  6666  00ED  0020               	movlb	0	; select bank0
  6667  00EE  00A0               	movwf	??_Sensor_Acq_ExecutePacket
  6668  00EF  0820               	movf	??_Sensor_Acq_ExecutePacket,w
  6669  00F0  00A2               	movwf	Sensor_Acq_ExecutePacket@AD1CON2_temp
  6670                           
  6671                           ;mcc_generated_files/mtouch/mtouch_sensor.c: 524:     AD2CON2_temp = AD2CON2;
  6672  00F1  002F               	movlb	15	; select bank15
  6673  00F2  0813               	movf	19,w	;volatile
  6674  00F3  0020               	movlb	0	; select bank0
  6675  00F4  00A0               	movwf	??_Sensor_Acq_ExecutePacket
  6676  00F5  0820               	movf	??_Sensor_Acq_ExecutePacket,w
  6677  00F6  00A3               	movwf	Sensor_Acq_ExecutePacket@AD2CON2_temp
  6678  00F7                     l4181:	
  6679                           
  6680                           ;mcc_generated_files/mtouch/mtouch_sensor.c: 525:     MTOUCH_Sensor_Scan_Initialize();
  6681  00F7  3188  20D7  3180   	fcall	_MTOUCH_Sensor_Scan_Initialize
  6682  00FA                     l4183:	
  6683                           
  6684                           ;mcc_generated_files/mtouch/mtouch_sensor.c: 529:     if(sensor_adc1!=((void*)0))
  6685  00FA  0020               	movlb	0	; select bank0
  6686  00FB  082D               	movf	Sensor_Acq_ExecutePacket@sensor_adc1,w
  6687  00FC  1903               	btfsc	3,2
  6688  00FD  28FF               	goto	u3701
  6689  00FE  2900               	goto	u3700
  6690  00FF                     u3701:	
  6691  00FF  2912               	goto	l4195
  6692  0100                     u3700:	
  6693  0100                     l4185:	
  6694                           
  6695                           ;mcc_generated_files/mtouch/mtouch_sensor.c: 530:     {;mcc_generated_files/mtouch/mtouc
      +                          h_sensor.c: 531:         packet_counter = (mtouch_sensor_packetcounter_t)(sensor_adc1->o
      +                          versampling-(mtouch_sensor_packetcounter_t)1);
  6696  0100  082D               	movf	Sensor_Acq_ExecutePacket@sensor_adc1,w
  6697  0101  3E04               	addlw	4
  6698  0102  0086               	movwf	6
  6699  0103  0187               	clrf	7
  6700  0104  0801               	movf	1,w
  6701  0105  3EFF               	addlw	255
  6702  0106  00A0               	movwf	??_Sensor_Acq_ExecutePacket
  6703  0107  0820               	movf	??_Sensor_Acq_ExecutePacket,w
  6704  0108  00AC               	movwf	Sensor_Acq_ExecutePacket@packet_counter
  6705  0109                     l4187:	
  6706                           
  6707                           ;mcc_generated_files/mtouch/mtouch_sensor.c: 532:         ADxIF_flag = 0;
  6708  0109  01A6               	clrf	Sensor_Acq_ExecutePacket@ADxIF_flag
  6709  010A                     l4189:	
  6710                           
  6711                           ;mcc_generated_files/mtouch/mtouch_sensor.c: 533:         AAD1GRD = 0b01000000;
  6712  010A  3040               	movlw	64
  6713  010B  002E               	movlb	14	; select bank14
  6714  010C  0098               	movwf	24	;volatile
  6715  010D                     l4191:	
  6716                           
  6717                           ;mcc_generated_files/mtouch/mtouch_sensor.c: 534:         AAD2GRD = 0b00000000;
  6718  010D  002F               	movlb	15	; select bank15
  6719  010E  0198               	clrf	24	;volatile
  6720  010F                     l4193:	
  6721                           
  6722                           ;mcc_generated_files/mtouch/mtouch_sensor.c: 535:         APFCONbits.GRDASEL = 0x0;
  6723  010F  0022               	movlb	2	; select bank2
  6724  0110  101D               	bcf	29,0	;volatile
  6725                           
  6726                           ;mcc_generated_files/mtouch/mtouch_sensor.c: 536:     }
  6727  0111  2924               	goto	l4205
  6728  0112                     l4195:	
  6729                           
  6730                           ;mcc_generated_files/mtouch/mtouch_sensor.c: 538:     {;mcc_generated_files/mtouch/mtouc
      +                          h_sensor.c: 539:         packet_counter = (mtouch_sensor_packetcounter_t)(sensor_adc2->o
      +                          versampling-(mtouch_sensor_packetcounter_t)1);
  6731  0112  087B               	movf	Sensor_Acq_ExecutePacket@sensor_adc2,w
  6732  0113  3E04               	addlw	4
  6733  0114  0086               	movwf	6
  6734  0115  0187               	clrf	7
  6735  0116  0801               	movf	1,w
  6736  0117  3EFF               	addlw	255
  6737  0118  00A0               	movwf	??_Sensor_Acq_ExecutePacket
  6738  0119  0820               	movf	??_Sensor_Acq_ExecutePacket,w
  6739  011A  00AC               	movwf	Sensor_Acq_ExecutePacket@packet_counter
  6740  011B                     l4197:	
  6741                           
  6742                           ;mcc_generated_files/mtouch/mtouch_sensor.c: 540:         ADxIF_flag = 1;
  6743  011B  01A6               	clrf	Sensor_Acq_ExecutePacket@ADxIF_flag
  6744  011C  0AA6               	incf	Sensor_Acq_ExecutePacket@ADxIF_flag,f
  6745  011D                     l4199:	
  6746                           
  6747                           ;mcc_generated_files/mtouch/mtouch_sensor.c: 541:         AAD1GRD = 0b00000000;
  6748  011D  002E               	movlb	14	; select bank14
  6749  011E  0198               	clrf	24	;volatile
  6750  011F                     l4201:	
  6751                           
  6752                           ;mcc_generated_files/mtouch/mtouch_sensor.c: 542:         AAD2GRD = 0b01000000;
  6753  011F  3040               	movlw	64
  6754  0120  002F               	movlb	15	; select bank15
  6755  0121  0098               	movwf	24	;volatile
  6756  0122                     l4203:	
  6757                           
  6758                           ;mcc_generated_files/mtouch/mtouch_sensor.c: 543:         APFCONbits.GRDASEL = 0x1;
  6759  0122  0022               	movlb	2	; select bank2
  6760  0123  141D               	bsf	29,0	;volatile
  6761  0124                     l4205:	
  6762                           
  6763                           ;mcc_generated_files/mtouch/mtouch_sensor.c: 546:     Sensor_loadADCSettings(sensor_adc1
      +                          ,0);
  6764  0124  01F2               	clrf	Sensor_loadADCSettings@adc_index
  6765  0125  0020               	movlb	0	; select bank0
  6766  0126  082D               	movf	Sensor_Acq_ExecutePacket@sensor_adc1,w
  6767  0127  3185  2536  3180   	fcall	_Sensor_loadADCSettings
  6768  012A                     l4207:	
  6769                           
  6770                           ;mcc_generated_files/mtouch/mtouch_sensor.c: 547:     Sensor_loadADCSettings(sensor_adc2
      +                          ,1);
  6771  012A  01F2               	clrf	Sensor_loadADCSettings@adc_index
  6772  012B  0AF2               	incf	Sensor_loadADCSettings@adc_index,f
  6773  012C  087B               	movf	Sensor_Acq_ExecutePacket@sensor_adc2,w
  6774  012D  3185  2536  3180   	fcall	_Sensor_loadADCSettings
  6775  0130                     l4209:	
  6776                           
  6777                           ;mcc_generated_files/mtouch/mtouch_sensor.c: 549:     sensor_globalFlags.done = 0;
  6778  0130  0020               	movlb	0	; select bank0
  6779  0131  1051               	bcf	_sensor_globalFlags,0	;volatile
  6780  0132                     l4211:	
  6781                           
  6782                           ;mcc_generated_files/mtouch/mtouch_sensor.c: 550:     sensor_globalFlags.error = 0;
  6783  0132  1151               	bcf	_sensor_globalFlags,2	;volatile
  6784  0133                     l4213:	
  6785                           
  6786                           ;mcc_generated_files/mtouch/mtouch_sensor.c: 551:     sensor_globalFlags.interrupted = 0
      +                          ;
  6787  0133  11D1               	bcf	_sensor_globalFlags,3	;volatile
  6788  0134                     l4215:	
  6789                           
  6790                           ;mcc_generated_files/mtouch/mtouch_sensor.c: 553:     TMR2_LoadPeriodRegister(sample_per
      +                          iod);
  6791  0134  086E               	movf	_sample_period,w
  6792  0135  3188  201E  3180   	fcall	_TMR2_LoadPeriodRegister
  6793  0138                     l4217:	
  6794                           
  6795                           ;mcc_generated_files/mtouch/mtouch_sensor.c: 554:     TMR2_StartTimer();
  6796  0138  3188  2003  3180   	fcall	_TMR2_StartTimer
  6797  013B                     l4219:	
  6798                           
  6799                           ;mcc_generated_files/mtouch/mtouch_sensor.c: 555:     packet_noise = 0;
  6800  013B  0020               	movlb	0	; select bank0
  6801  013C  01CD               	clrf	_packet_noise
  6802  013D  01CE               	clrf	_packet_noise+1
  6803  013E                     l4221:	
  6804                           
  6805                           ;mcc_generated_files/mtouch/mtouch_sensor.c: 558:     {;mcc_generated_files/mtouch/mtouc
      +                          h_sensor.c: 559:         if(ADxIF_flag == 0)
  6806  013E  0826               	movf	Sensor_Acq_ExecutePacket@ADxIF_flag,w
  6807  013F  1D03               	btfss	3,2
  6808  0140  2942               	goto	u3711
  6809  0141  2943               	goto	u3710
  6810  0142                     u3711:	
  6811  0142  294E               	goto	l390
  6812  0143                     u3710:	
  6813  0143                     l4223:	
  6814                           
  6815                           ;mcc_generated_files/mtouch/mtouch_sensor.c: 560:         {;mcc_generated_files/mtouch/m
      +                          touch_sensor.c: 561:             if (PIR1bits.AD1IF == 0) { sensor_globalFlags.check = 0
      +                          ; }
  6816  0143  1B11               	btfsc	17,6	;volatile
  6817  0144  2946               	goto	u3721
  6818  0145  2947               	goto	u3720
  6819  0146                     u3721:	
  6820  0146  2948               	goto	l392
  6821  0147                     u3720:	
  6822  0147                     l4225:	
  6823  0147  10D1               	bcf	_sensor_globalFlags,1	;volatile
  6824  0148                     l392:	
  6825  0148  1F11               	btfss	17,6	;volatile
  6826  0149  294B               	goto	u3731
  6827  014A  294C               	goto	u3730
  6828  014B                     u3731:	
  6829  014B  2948               	goto	l392
  6830  014C                     u3730:	
  6831  014C                     l394:	
  6832                           
  6833                           ;mcc_generated_files/mtouch/mtouch_sensor.c: 563:             PIR1bits.AD1IF = 0;
  6834  014C  1311               	bcf	17,6	;volatile
  6835                           
  6836                           ;mcc_generated_files/mtouch/mtouch_sensor.c: 564:         }
  6837  014D  2958               	goto	l4229
  6838  014E                     l390:	
  6839                           ;mcc_generated_files/mtouch/mtouch_sensor.c: 565:         else
  6840                           
  6841                           
  6842                           ;mcc_generated_files/mtouch/mtouch_sensor.c: 566:         {;mcc_generated_files/mtouch/m
      +                          touch_sensor.c: 567:             if (PIR2bits.AD2IF == 0) { sensor_globalFlags.check = 0
      +                          ; }
  6843  014E  1B12               	btfsc	18,6	;volatile
  6844  014F  2951               	goto	u3741
  6845  0150  2952               	goto	u3740
  6846  0151                     u3741:	
  6847  0151  2953               	goto	l397
  6848  0152                     u3740:	
  6849  0152                     l4227:	
  6850  0152  10D1               	bcf	_sensor_globalFlags,1	;volatile
  6851  0153                     l397:	
  6852  0153  1F12               	btfss	18,6	;volatile
  6853  0154  2956               	goto	u3751
  6854  0155  2957               	goto	u3750
  6855  0156                     u3751:	
  6856  0156  2953               	goto	l397
  6857  0157                     u3750:	
  6858  0157                     l399:	
  6859                           
  6860                           ;mcc_generated_files/mtouch/mtouch_sensor.c: 569:             PIR2bits.AD2IF = 0;
  6861  0157  1312               	bcf	18,6	;volatile
  6862  0158                     l4229:	
  6863                           
  6864                           ;mcc_generated_files/mtouch/mtouch_sensor.c: 572:         AAD1GRD ^= 0b00100001;
  6865  0158  3021               	movlw	33
  6866  0159  00A0               	movwf	??_Sensor_Acq_ExecutePacket
  6867  015A  0820               	movf	??_Sensor_Acq_ExecutePacket,w
  6868  015B  002E               	movlb	14	; select bank14
  6869  015C  0698               	xorwf	24,f	;volatile
  6870                           
  6871                           ;mcc_generated_files/mtouch/mtouch_sensor.c: 573:         AAD2GRD ^= 0b00100001;
  6872  015D  3021               	movlw	33
  6873  015E  0020               	movlb	0	; select bank0
  6874  015F  00A0               	movwf	??_Sensor_Acq_ExecutePacket
  6875  0160  0820               	movf	??_Sensor_Acq_ExecutePacket,w
  6876  0161  002F               	movlb	15	; select bank15
  6877  0162  0698               	xorwf	24,f	;volatile
  6878                           
  6879                           ;mcc_generated_files/mtouch/mtouch_sensor.c: 574:         AAD1CON3 ^= 0b11000000;
  6880  0163  30C0               	movlw	192
  6881  0164  0020               	movlb	0	; select bank0
  6882  0165  00A0               	movwf	??_Sensor_Acq_ExecutePacket
  6883  0166  0820               	movf	??_Sensor_Acq_ExecutePacket,w
  6884  0167  002E               	movlb	14	; select bank14
  6885  0168  0694               	xorwf	20,f	;volatile
  6886                           
  6887                           ;mcc_generated_files/mtouch/mtouch_sensor.c: 575:         AAD2CON3 ^= 0b11000000;
  6888  0169  30C0               	movlw	192
  6889  016A  0020               	movlb	0	; select bank0
  6890  016B  00A0               	movwf	??_Sensor_Acq_ExecutePacket
  6891  016C  0820               	movf	??_Sensor_Acq_ExecutePacket,w
  6892  016D  002F               	movlb	15	; select bank15
  6893  016E  0694               	xorwf	20,f	;volatile
  6894  016F                     l4231:	
  6895                           
  6896                           ;mcc_generated_files/mtouch/mtouch_sensor.c: 577:         if ((packet_counter & 0x01) ==
      +                           0)
  6897  016F  0020               	movlb	0	; select bank0
  6898  0170  182C               	btfsc	Sensor_Acq_ExecutePacket@packet_counter,0
  6899  0171  2973               	goto	u3761
  6900  0172  2974               	goto	u3760
  6901  0173                     u3761:	
  6902  0173  29BF               	goto	l4245
  6903  0174                     u3760:	
  6904  0174                     l4233:	
  6905                           
  6906                           ;mcc_generated_files/mtouch/mtouch_sensor.c: 578:         {;mcc_generated_files/mtouch/m
      +                          touch_sensor.c: 579:             packet_sample[0] += AAD1RES0;
  6907  0174  002E               	movlb	14	; select bank14
  6908  0175  081A               	movf	26,w	;volatile
  6909  0176  0020               	movlb	0	; select bank0
  6910  0177  07C9               	addwf	_packet_sample,f
  6911  0178  002E               	movlb	14	; select bank14
  6912  0179  081B               	movf	27,w	;volatile
  6913  017A  0020               	movlb	0	; select bank0
  6914  017B  3DCA               	addwfc	_packet_sample+1,f
  6915                           
  6916                           ;mcc_generated_files/mtouch/mtouch_sensor.c: 580:             packet_sample[1] += AAD2RE
      +                          S0;
  6917  017C  002F               	movlb	15	; select bank15
  6918  017D  081A               	movf	26,w	;volatile
  6919  017E  0020               	movlb	0	; select bank0
  6920  017F  07CB               	addwf	_packet_sample+2,f
  6921  0180  002F               	movlb	15	; select bank15
  6922  0181  081B               	movf	27,w	;volatile
  6923  0182  0020               	movlb	0	; select bank0
  6924  0183  3DCC               	addwfc	_packet_sample+3,f
  6925  0184                     l4235:	
  6926                           
  6927                           ;mcc_generated_files/mtouch/mtouch_sensor.c: 581:             if(activeSensor ==0)
  6928  0184  0827               	movf	Sensor_Acq_ExecutePacket@activeSensor,w
  6929  0185  1D03               	btfss	3,2
  6930  0186  2988               	goto	u3771
  6931  0187  2989               	goto	u3770
  6932  0188                     u3771:	
  6933  0188  29A4               	goto	l4241
  6934  0189                     u3770:	
  6935  0189                     l4237:	
  6936                           
  6937                           ;mcc_generated_files/mtouch/mtouch_sensor.c: 582:             {;mcc_generated_files/mtou
      +                          ch/mtouch_sensor.c: 583:                 packet_noise += (mtouch_sensor_packetsample_t)a
      +                          bs(last_b-AAD1RES0);
  6938  0189  002E               	movlb	14	; select bank14
  6939  018A  081A               	movf	26,w	;volatile
  6940  018B  0020               	movlb	0	; select bank0
  6941  018C  022A               	subwf	Sensor_Acq_ExecutePacket@last_b,w
  6942  018D  00F1               	movwf	abs@a
  6943  018E  002E               	movlb	14	; select bank14
  6944  018F  081B               	movf	27,w	;volatile
  6945  0190  0020               	movlb	0	; select bank0
  6946  0191  3B2B               	subwfb	Sensor_Acq_ExecutePacket@last_b+1,w
  6947  0192  00F2               	movwf	abs@a+1
  6948  0193  318A  2267  3180   	fcall	_abs
  6949  0196  0871               	movf	?_abs,w
  6950  0197  0020               	movlb	0	; select bank0
  6951  0198  07CD               	addwf	_packet_noise,f
  6952  0199  0872               	movf	?_abs+1,w
  6953  019A  3DCE               	addwfc	_packet_noise+1,f
  6954  019B                     l4239:	
  6955                           
  6956                           ;mcc_generated_files/mtouch/mtouch_sensor.c: 584:                 last_b = AAD1RES0;
  6957  019B  002E               	movlb	14	; select bank14
  6958  019C  081B               	movf	27,w	;volatile
  6959  019D  0020               	movlb	0	; select bank0
  6960  019E  00AB               	movwf	Sensor_Acq_ExecutePacket@last_b+1
  6961  019F  002E               	movlb	14	; select bank14
  6962  01A0  081A               	movf	26,w	;volatile
  6963  01A1  0020               	movlb	0	; select bank0
  6964  01A2  00AA               	movwf	Sensor_Acq_ExecutePacket@last_b
  6965                           
  6966                           ;mcc_generated_files/mtouch/mtouch_sensor.c: 585:             }
  6967  01A3  2A02               	goto	l4257
  6968  01A4                     l4241:	
  6969                           
  6970                           ;mcc_generated_files/mtouch/mtouch_sensor.c: 587:             {;mcc_generated_files/mtou
      +                          ch/mtouch_sensor.c: 588:                 packet_noise += (mtouch_sensor_packetsample_t)a
      +                          bs(last_b-AAD2RES0);
  6971  01A4  002F               	movlb	15	; select bank15
  6972  01A5  081A               	movf	26,w	;volatile
  6973  01A6  0020               	movlb	0	; select bank0
  6974  01A7  022A               	subwf	Sensor_Acq_ExecutePacket@last_b,w
  6975  01A8  00F1               	movwf	abs@a
  6976  01A9  002F               	movlb	15	; select bank15
  6977  01AA  081B               	movf	27,w	;volatile
  6978  01AB  0020               	movlb	0	; select bank0
  6979  01AC  3B2B               	subwfb	Sensor_Acq_ExecutePacket@last_b+1,w
  6980  01AD  00F2               	movwf	abs@a+1
  6981  01AE  318A  2267  3180   	fcall	_abs
  6982  01B1  0871               	movf	?_abs,w
  6983  01B2  0020               	movlb	0	; select bank0
  6984  01B3  07CD               	addwf	_packet_noise,f
  6985  01B4  0872               	movf	?_abs+1,w
  6986  01B5  3DCE               	addwfc	_packet_noise+1,f
  6987  01B6                     l4243:	
  6988                           
  6989                           ;mcc_generated_files/mtouch/mtouch_sensor.c: 589:                 last_b = AAD2RES0;
  6990  01B6  002F               	movlb	15	; select bank15
  6991  01B7  081B               	movf	27,w	;volatile
  6992  01B8  0020               	movlb	0	; select bank0
  6993  01B9  00AB               	movwf	Sensor_Acq_ExecutePacket@last_b+1
  6994  01BA  002F               	movlb	15	; select bank15
  6995  01BB  081A               	movf	26,w	;volatile
  6996  01BC  0020               	movlb	0	; select bank0
  6997  01BD  00AA               	movwf	Sensor_Acq_ExecutePacket@last_b
  6998  01BE  2A02               	goto	l4257
  6999  01BF                     l4245:	
  7000                           
  7001                           ;mcc_generated_files/mtouch/mtouch_sensor.c: 593:         {;mcc_generated_files/mtouch/m
      +                          touch_sensor.c: 594:             packet_sample[0] -= AAD1RES0;
  7002  01BF  002E               	movlb	14	; select bank14
  7003  01C0  081A               	movf	26,w	;volatile
  7004  01C1  0020               	movlb	0	; select bank0
  7005  01C2  02C9               	subwf	_packet_sample,f
  7006  01C3  002E               	movlb	14	; select bank14
  7007  01C4  081B               	movf	27,w	;volatile
  7008  01C5  0020               	movlb	0	; select bank0
  7009  01C6  3BCA               	subwfb	_packet_sample+1,f
  7010                           
  7011                           ;mcc_generated_files/mtouch/mtouch_sensor.c: 595:             packet_sample[1] -= AAD2RE
      +                          S0;
  7012  01C7  002F               	movlb	15	; select bank15
  7013  01C8  081A               	movf	26,w	;volatile
  7014  01C9  0020               	movlb	0	; select bank0
  7015  01CA  02CB               	subwf	_packet_sample+2,f
  7016  01CB  002F               	movlb	15	; select bank15
  7017  01CC  081B               	movf	27,w	;volatile
  7018  01CD  0020               	movlb	0	; select bank0
  7019  01CE  3BCC               	subwfb	_packet_sample+3,f
  7020  01CF                     l4247:	
  7021                           
  7022                           ;mcc_generated_files/mtouch/mtouch_sensor.c: 596:             if(activeSensor ==0)
  7023  01CF  0827               	movf	Sensor_Acq_ExecutePacket@activeSensor,w
  7024  01D0  1D03               	btfss	3,2
  7025  01D1  29D3               	goto	u3781
  7026  01D2  29D4               	goto	u3780
  7027  01D3                     u3781:	
  7028  01D3  29EF               	goto	l4253
  7029  01D4                     u3780:	
  7030  01D4                     l4249:	
  7031                           
  7032                           ;mcc_generated_files/mtouch/mtouch_sensor.c: 597:             {;mcc_generated_files/mtou
      +                          ch/mtouch_sensor.c: 598:                 packet_noise +=(mtouch_sensor_packetsample_t)ab
      +                          s(last_a-AAD1RES0);
  7033  01D4  002E               	movlb	14	; select bank14
  7034  01D5  081A               	movf	26,w	;volatile
  7035  01D6  0020               	movlb	0	; select bank0
  7036  01D7  0228               	subwf	Sensor_Acq_ExecutePacket@last_a,w
  7037  01D8  00F1               	movwf	abs@a
  7038  01D9  002E               	movlb	14	; select bank14
  7039  01DA  081B               	movf	27,w	;volatile
  7040  01DB  0020               	movlb	0	; select bank0
  7041  01DC  3B29               	subwfb	Sensor_Acq_ExecutePacket@last_a+1,w
  7042  01DD  00F2               	movwf	abs@a+1
  7043  01DE  318A  2267  3180   	fcall	_abs
  7044  01E1  0871               	movf	?_abs,w
  7045  01E2  0020               	movlb	0	; select bank0
  7046  01E3  07CD               	addwf	_packet_noise,f
  7047  01E4  0872               	movf	?_abs+1,w
  7048  01E5  3DCE               	addwfc	_packet_noise+1,f
  7049  01E6                     l4251:	
  7050                           
  7051                           ;mcc_generated_files/mtouch/mtouch_sensor.c: 599:                 last_a = AAD1RES0;
  7052  01E6  002E               	movlb	14	; select bank14
  7053  01E7  081B               	movf	27,w	;volatile
  7054  01E8  0020               	movlb	0	; select bank0
  7055  01E9  00A9               	movwf	Sensor_Acq_ExecutePacket@last_a+1
  7056  01EA  002E               	movlb	14	; select bank14
  7057  01EB  081A               	movf	26,w	;volatile
  7058  01EC  0020               	movlb	0	; select bank0
  7059  01ED  00A8               	movwf	Sensor_Acq_ExecutePacket@last_a
  7060                           
  7061                           ;mcc_generated_files/mtouch/mtouch_sensor.c: 600:             }
  7062  01EE  2A02               	goto	l4257
  7063  01EF                     l4253:	
  7064                           
  7065                           ;mcc_generated_files/mtouch/mtouch_sensor.c: 602:             {;mcc_generated_files/mtou
      +                          ch/mtouch_sensor.c: 603:                 packet_noise +=(mtouch_sensor_packetsample_t)ab
      +                          s(last_a-AAD2RES0);
  7066  01EF  002F               	movlb	15	; select bank15
  7067  01F0  081A               	movf	26,w	;volatile
  7068  01F1  0020               	movlb	0	; select bank0
  7069  01F2  0228               	subwf	Sensor_Acq_ExecutePacket@last_a,w
  7070  01F3  00F1               	movwf	abs@a
  7071  01F4  002F               	movlb	15	; select bank15
  7072  01F5  081B               	movf	27,w	;volatile
  7073  01F6  0020               	movlb	0	; select bank0
  7074  01F7  3B29               	subwfb	Sensor_Acq_ExecutePacket@last_a+1,w
  7075  01F8  00F2               	movwf	abs@a+1
  7076  01F9  318A  2267  3180   	fcall	_abs
  7077  01FC  0871               	movf	?_abs,w
  7078  01FD  0020               	movlb	0	; select bank0
  7079  01FE  07CD               	addwf	_packet_noise,f
  7080  01FF  0872               	movf	?_abs+1,w
  7081  0200  3DCE               	addwfc	_packet_noise+1,f
  7082  0201  29E6               	goto	l4251
  7083  0202                     l4257:	
  7084                           
  7085                           ;mcc_generated_files/mtouch/mtouch_sensor.c: 609:         if (packet_counter == 0)
  7086  0202  082C               	movf	Sensor_Acq_ExecutePacket@packet_counter,w
  7087  0203  1D03               	btfss	3,2
  7088  0204  2A06               	goto	u3791
  7089  0205  2A07               	goto	u3790
  7090  0206                     u3791:	
  7091  0206  2A08               	goto	l4261
  7092  0207                     u3790:	
  7093  0207                     l4259:	
  7094                           
  7095                           ;mcc_generated_files/mtouch/mtouch_sensor.c: 610:         {;mcc_generated_files/mtouch/m
      +                          touch_sensor.c: 612:             sensor_globalFlags.done = (uint8_t)1;
  7096  0207  1451               	bsf	_sensor_globalFlags,0	;volatile
  7097  0208                     l4261:	
  7098                           
  7099                           ;mcc_generated_files/mtouch/mtouch_sensor.c: 614:         packet_counter--;
  7100  0208  3001               	movlw	1
  7101  0209  02AC               	subwf	Sensor_Acq_ExecutePacket@packet_counter,f
  7102  020A                     l4263:	
  7103                           
  7104                           ;mcc_generated_files/mtouch/mtouch_sensor.c: 616:         if (sensor_globalFlags.check !
      +                          = 0)
  7105  020A  1CD1               	btfss	_sensor_globalFlags,1	;volatile
  7106  020B  2A0D               	goto	u3801
  7107  020C  2A0E               	goto	u3800
  7108  020D                     u3801:	
  7109  020D  2A10               	goto	l407
  7110  020E                     u3800:	
  7111  020E                     l4265:	
  7112                           
  7113                           ;mcc_generated_files/mtouch/mtouch_sensor.c: 617:         {;mcc_generated_files/mtouch/m
      +                          touch_sensor.c: 618:             sensor_globalFlags.error = 1;
  7114  020E  1551               	bsf	_sensor_globalFlags,2	;volatile
  7115                           
  7116                           ;mcc_generated_files/mtouch/mtouch_sensor.c: 619:             sensor_globalFlags.done = 
      +                          1;
  7117  020F  1451               	bsf	_sensor_globalFlags,0	;volatile
  7118  0210                     l407:	
  7119                           ;mcc_generated_files/mtouch/mtouch_sensor.c: 620:         }
  7120                           
  7121                           
  7122                           ;mcc_generated_files/mtouch/mtouch_sensor.c: 621:         sensor_globalFlags.check = 1;
  7123  0210  14D1               	bsf	_sensor_globalFlags,1	;volatile
  7124                           
  7125                           ;mcc_generated_files/mtouch/mtouch_sensor.c: 622:     } while(sensor_globalFlags.done ==
      +                           0);
  7126  0211  1C51               	btfss	_sensor_globalFlags,0	;volatile
  7127  0212  2A14               	goto	u3811
  7128  0213  2A15               	goto	u3810
  7129  0214                     u3811:	
  7130  0214  293E               	goto	l4221
  7131  0215                     u3810:	
  7132  0215                     l4267:	
  7133                           
  7134                           ;mcc_generated_files/mtouch/mtouch_sensor.c: 624:     TMR2_StopTimer();
  7135  0215  3188  2006  3180   	fcall	_TMR2_StopTimer
  7136  0218                     l4269:	
  7137                           
  7138                           ;mcc_generated_files/mtouch/mtouch_sensor.c: 625:     ADCOMCON = ADCOMCON_temp;
  7139  0218  0020               	movlb	0	; select bank0
  7140  0219  0821               	movf	Sensor_Acq_ExecutePacket@ADCOMCON_temp,w
  7141  021A  002E               	movlb	14	; select bank14
  7142  021B  0092               	movwf	18	;volatile
  7143  021C                     l4271:	
  7144                           
  7145                           ;mcc_generated_files/mtouch/mtouch_sensor.c: 626:     AD1CON2 = AD1CON2_temp;
  7146  021C  0020               	movlb	0	; select bank0
  7147  021D  0822               	movf	Sensor_Acq_ExecutePacket@AD1CON2_temp,w
  7148  021E  002E               	movlb	14	; select bank14
  7149  021F  0093               	movwf	19	;volatile
  7150  0220                     l4273:	
  7151                           
  7152                           ;mcc_generated_files/mtouch/mtouch_sensor.c: 627:     AD2CON2 = AD2CON2_temp;
  7153  0220  0020               	movlb	0	; select bank0
  7154  0221  0823               	movf	Sensor_Acq_ExecutePacket@AD2CON2_temp,w
  7155  0222  002F               	movlb	15	; select bank15
  7156  0223  0093               	movwf	19	;volatile
  7157  0224                     l4275:	
  7158                           
  7159                           ;mcc_generated_files/mtouch/mtouch_sensor.c: 629:     if(sensor_globalFlags.error)
  7160  0224  0020               	movlb	0	; select bank0
  7161  0225  1D51               	btfss	_sensor_globalFlags,2	;volatile
  7162  0226  2A28               	goto	u3821
  7163  0227  2A29               	goto	u3820
  7164  0228                     u3821:	
  7165  0228  2A2B               	goto	l409
  7166  0229                     u3820:	
  7167  0229                     l4277:	
  7168                           
  7169                           ;mcc_generated_files/mtouch/mtouch_sensor.c: 630:     {;mcc_generated_files/mtouch/mtouc
      +                          h_sensor.c: 631:         return MTOUCH_SENSOR_ERROR_scanOverrun;
  7170  0229  30FB               	movlw	251
  7171  022A  2A80               	goto	l374
  7172  022B                     l409:	
  7173                           ;mcc_generated_files/mtouch/mtouch_sensor.c: 632:     }
  7174                           
  7175                           
  7176                           ;mcc_generated_files/mtouch/mtouch_sensor.c: 634:     if(sensor_globalFlags.interrupted)
  7177  022B  1DD1               	btfss	_sensor_globalFlags,3	;volatile
  7178  022C  2A2E               	goto	u3831
  7179  022D  2A2F               	goto	u3830
  7180  022E                     u3831:	
  7181  022E  2A31               	goto	l4285
  7182  022F                     u3830:	
  7183  022F                     l4281:	
  7184                           
  7185                           ;mcc_generated_files/mtouch/mtouch_sensor.c: 635:     {;mcc_generated_files/mtouch/mtouc
      +                          h_sensor.c: 636:         return MTOUCH_SENSOR_ERROR_interruptedScan;
  7186  022F  30FA               	movlw	250
  7187  0230  2A80               	goto	l374
  7188  0231                     l4285:	
  7189                           
  7190                           ;mcc_generated_files/mtouch/mtouch_sensor.c: 640:     if (sensor1ForceEnabled)
  7191  0231  0824               	movf	Sensor_Acq_ExecutePacket@sensor1ForceEnabled,w
  7192  0232  1903               	btfsc	3,2
  7193  0233  2A35               	goto	u3841
  7194  0234  2A36               	goto	u3840
  7195  0235                     u3841:	
  7196  0235  2A3B               	goto	l4289
  7197  0236                     u3840:	
  7198  0236                     l4287:	
  7199                           
  7200                           ;mcc_generated_files/mtouch/mtouch_sensor.c: 641:         sensor_adc1->enabled = 0;
  7201  0236  082D               	movf	Sensor_Acq_ExecutePacket@sensor_adc1,w
  7202  0237  3E08               	addlw	8
  7203  0238  0086               	movwf	6
  7204  0239  0187               	clrf	7
  7205  023A  1181               	bcf	1,3
  7206  023B                     l4289:	
  7207                           
  7208                           ;mcc_generated_files/mtouch/mtouch_sensor.c: 643:     if (sensor2ForceEnabled)
  7209  023B  0825               	movf	Sensor_Acq_ExecutePacket@sensor2ForceEnabled,w
  7210  023C  1903               	btfsc	3,2
  7211  023D  2A3F               	goto	u3851
  7212  023E  2A40               	goto	u3850
  7213  023F                     u3851:	
  7214  023F  2A45               	goto	l4293
  7215  0240                     u3850:	
  7216  0240                     l4291:	
  7217                           
  7218                           ;mcc_generated_files/mtouch/mtouch_sensor.c: 644:         sensor_adc2->enabled = 0;
  7219  0240  087B               	movf	Sensor_Acq_ExecutePacket@sensor_adc2,w
  7220  0241  3E08               	addlw	8
  7221  0242  0086               	movwf	6
  7222  0243  0187               	clrf	7
  7223  0244  1181               	bcf	1,3
  7224  0245                     l4293:	
  7225                           
  7226                           ;mcc_generated_files/mtouch/mtouch_sensor.c: 647:     if(Sensor_isEnabled(sensor_adc1) &
      +                          & !Sensor_isCalibrated(sensor_adc1))
  7227  0245  082D               	movf	Sensor_Acq_ExecutePacket@sensor_adc1,w
  7228  0246  3189  214C  3180   	fcall	_Sensor_isEnabled
  7229  0249  3A00               	xorlw	0
  7230  024A  1903               	skipnz
  7231  024B  2A4D               	goto	u3861
  7232  024C  2A4E               	goto	u3860
  7233  024D                     u3861:	
  7234  024D  2A5D               	goto	l4299
  7235  024E                     u3860:	
  7236  024E                     l4295:	
  7237  024E  0020               	movlb	0	; select bank0
  7238  024F  082D               	movf	Sensor_Acq_ExecutePacket@sensor_adc1,w
  7239  0250  3188  2088  3180   	fcall	_Sensor_isCalibrated
  7240  0253  3A00               	xorlw	0
  7241  0254  1D03               	skipz
  7242  0255  2A57               	goto	u3871
  7243  0256  2A58               	goto	u3870
  7244  0257                     u3871:	
  7245  0257  2A5D               	goto	l4299
  7246  0258                     u3870:	
  7247  0258                     l4297:	
  7248                           
  7249                           ;mcc_generated_files/mtouch/mtouch_sensor.c: 648:         Sensor_autoCalibration(sensor_
      +                          adc1);
  7250  0258  0020               	movlb	0	; select bank0
  7251  0259  082D               	movf	Sensor_Acq_ExecutePacket@sensor_adc1,w
  7252  025A  3186  2698  3180   	fcall	_Sensor_autoCalibration
  7253  025D                     l4299:	
  7254                           
  7255                           ;mcc_generated_files/mtouch/mtouch_sensor.c: 650:     if(Sensor_isEnabled(sensor_adc2) &
      +                          & !Sensor_isCalibrated(sensor_adc2))
  7256  025D  087B               	movf	Sensor_Acq_ExecutePacket@sensor_adc2,w
  7257  025E  3189  214C  3180   	fcall	_Sensor_isEnabled
  7258  0261  3A00               	xorlw	0
  7259  0262  1903               	skipnz
  7260  0263  2A65               	goto	u3881
  7261  0264  2A66               	goto	u3880
  7262  0265                     u3881:	
  7263  0265  2A73               	goto	l4305
  7264  0266                     u3880:	
  7265  0266                     l4301:	
  7266  0266  087B               	movf	Sensor_Acq_ExecutePacket@sensor_adc2,w
  7267  0267  3188  2088  3180   	fcall	_Sensor_isCalibrated
  7268  026A  3A00               	xorlw	0
  7269  026B  1D03               	skipz
  7270  026C  2A6E               	goto	u3891
  7271  026D  2A6F               	goto	u3890
  7272  026E                     u3891:	
  7273  026E  2A73               	goto	l4305
  7274  026F                     u3890:	
  7275  026F                     l4303:	
  7276                           
  7277                           ;mcc_generated_files/mtouch/mtouch_sensor.c: 651:         Sensor_autoCalibration(sensor_
      +                          adc2);
  7278  026F  087B               	movf	Sensor_Acq_ExecutePacket@sensor_adc2,w
  7279  0270  3186  2698  3180   	fcall	_Sensor_autoCalibration
  7280  0273                     l4305:	
  7281                           
  7282                           ;mcc_generated_files/mtouch/mtouch_sensor.c: 653:     AD1PRECON = 0;
  7283  0273  002E               	movlb	14	; select bank14
  7284  0274  0196               	clrf	22	;volatile
  7285  0275                     l4307:	
  7286                           
  7287                           ;mcc_generated_files/mtouch/mtouch_sensor.c: 654:     AD2PRECON = 0;
  7288  0275  002F               	movlb	15	; select bank15
  7289  0276  0196               	clrf	22	;volatile
  7290  0277                     l4309:	
  7291                           
  7292                           ;mcc_generated_files/mtouch/mtouch_sensor.c: 655:     AD1ACQCON = 0;
  7293  0277  002E               	movlb	14	; select bank14
  7294  0278  0197               	clrf	23	;volatile
  7295  0279                     l4311:	
  7296                           
  7297                           ;mcc_generated_files/mtouch/mtouch_sensor.c: 656:     AD2ACQCON = 0;
  7298  0279  002F               	movlb	15	; select bank15
  7299  027A  0197               	clrf	23	;volatile
  7300  027B                     l4313:	
  7301                           
  7302                           ;mcc_generated_files/mtouch/mtouch_sensor.c: 657:     AD1CON0bits.ADON = 0;
  7303  027B  002E               	movlb	14	; select bank14
  7304  027C  1011               	bcf	17,0	;volatile
  7305  027D                     l4315:	
  7306                           
  7307                           ;mcc_generated_files/mtouch/mtouch_sensor.c: 658:     AD2CON0bits.ADON = 0;
  7308  027D  002F               	movlb	15	; select bank15
  7309  027E  1011               	bcf	17,0	;volatile
  7310  027F  28B0               	goto	l4145
  7311  0280                     l374:	
  7312  0280  0008               	return
  7313  0281                     __end_of_Sensor_Acq_ExecutePacket:	
  7314                           
  7315                           	psect	text38
  7316  0806                     __ptext38:	
  7317 ;; *************** function _TMR2_StopTimer *****************
  7318 ;; Defined at:
  7319 ;;		line 85 in file "mcc_generated_files/tmr2.c"
  7320 ;; Parameters:    Size  Location     Type
  7321 ;;		None
  7322 ;; Auto vars:     Size  Location     Type
  7323 ;;		None
  7324 ;; Return value:  Size  Location     Type
  7325 ;;                  1    wreg      void 
  7326 ;; Registers used:
  7327 ;;		None
  7328 ;; Tracked objects:
  7329 ;;		On entry : 0/0
  7330 ;;		On exit  : 0/0
  7331 ;;		Unchanged: 0/0
  7332 ;; Data sizes:     COMMON   BANK0   BANK1   BANK2   BANK3   BANK4   BANK5   BANK6
  7333 ;;      Params:         0       0       0       0       0       0       0       0
  7334 ;;      Locals:         0       0       0       0       0       0       0       0
  7335 ;;      Temps:          0       0       0       0       0       0       0       0
  7336 ;;      Totals:         0       0       0       0       0       0       0       0
  7337 ;;Total ram usage:        0 bytes
  7338 ;; Hardware stack levels used:    1
  7339 ;; Hardware stack levels required when called:    4
  7340 ;; This function calls:
  7341 ;;		Nothing
  7342 ;; This function is called by:
  7343 ;;		_Sensor_Acq_ExecutePacket
  7344 ;; This function uses a non-reentrant model
  7345 ;;
  7346                           
  7347                           
  7348                           ;psect for function _TMR2_StopTimer
  7349  0806                     _TMR2_StopTimer:	
  7350  0806                     l2949:	
  7351                           ;incstack = 0
  7352                           ; Regs used in _TMR2_StopTimer: []
  7353                           
  7354                           
  7355                           ;mcc_generated_files/tmr2.c: 88:     T2CONbits.TMR2ON = 0;
  7356  0806  0020               	movlb	0	; select bank0
  7357  0807  111C               	bcf	28,2	;volatile
  7358  0808                     l905:	
  7359  0808  0008               	return
  7360  0809                     __end_of_TMR2_StopTimer:	
  7361                           
  7362                           	psect	text39
  7363  0803                     __ptext39:	
  7364 ;; *************** function _TMR2_StartTimer *****************
  7365 ;; Defined at:
  7366 ;;		line 79 in file "mcc_generated_files/tmr2.c"
  7367 ;; Parameters:    Size  Location     Type
  7368 ;;		None
  7369 ;; Auto vars:     Size  Location     Type
  7370 ;;		None
  7371 ;; Return value:  Size  Location     Type
  7372 ;;                  1    wreg      void 
  7373 ;; Registers used:
  7374 ;;		None
  7375 ;; Tracked objects:
  7376 ;;		On entry : 0/0
  7377 ;;		On exit  : 0/0
  7378 ;;		Unchanged: 0/0
  7379 ;; Data sizes:     COMMON   BANK0   BANK1   BANK2   BANK3   BANK4   BANK5   BANK6
  7380 ;;      Params:         0       0       0       0       0       0       0       0
  7381 ;;      Locals:         0       0       0       0       0       0       0       0
  7382 ;;      Temps:          0       0       0       0       0       0       0       0
  7383 ;;      Totals:         0       0       0       0       0       0       0       0
  7384 ;;Total ram usage:        0 bytes
  7385 ;; Hardware stack levels used:    1
  7386 ;; Hardware stack levels required when called:    4
  7387 ;; This function calls:
  7388 ;;		Nothing
  7389 ;; This function is called by:
  7390 ;;		_Sensor_Acq_ExecutePacket
  7391 ;; This function uses a non-reentrant model
  7392 ;;
  7393                           
  7394                           
  7395                           ;psect for function _TMR2_StartTimer
  7396  0803                     _TMR2_StartTimer:	
  7397  0803                     l2947:	
  7398                           ;incstack = 0
  7399                           ; Regs used in _TMR2_StartTimer: []
  7400                           
  7401                           
  7402                           ;mcc_generated_files/tmr2.c: 82:     T2CONbits.TMR2ON = 1;
  7403  0803  0020               	movlb	0	; select bank0
  7404  0804  151C               	bsf	28,2	;volatile
  7405  0805                     l902:	
  7406  0805  0008               	return
  7407  0806                     __end_of_TMR2_StartTimer:	
  7408                           
  7409                           	psect	text40
  7410  081E                     __ptext40:	
  7411 ;; *************** function _TMR2_LoadPeriodRegister *****************
  7412 ;; Defined at:
  7413 ;;		line 106 in file "mcc_generated_files/tmr2.c"
  7414 ;; Parameters:    Size  Location     Type
  7415 ;;  periodVal       1    wreg     unsigned char 
  7416 ;; Auto vars:     Size  Location     Type
  7417 ;;  periodVal       1    1[COMMON] unsigned char 
  7418 ;; Return value:  Size  Location     Type
  7419 ;;                  1    wreg      void 
  7420 ;; Registers used:
  7421 ;;		wreg
  7422 ;; Tracked objects:
  7423 ;;		On entry : 0/0
  7424 ;;		On exit  : 0/0
  7425 ;;		Unchanged: 0/0
  7426 ;; Data sizes:     COMMON   BANK0   BANK1   BANK2   BANK3   BANK4   BANK5   BANK6
  7427 ;;      Params:         0       0       0       0       0       0       0       0
  7428 ;;      Locals:         1       0       0       0       0       0       0       0
  7429 ;;      Temps:          0       0       0       0       0       0       0       0
  7430 ;;      Totals:         1       0       0       0       0       0       0       0
  7431 ;;Total ram usage:        1 bytes
  7432 ;; Hardware stack levels used:    1
  7433 ;; Hardware stack levels required when called:    4
  7434 ;; This function calls:
  7435 ;;		Nothing
  7436 ;; This function is called by:
  7437 ;;		_Sensor_Acq_ExecutePacket
  7438 ;; This function uses a non-reentrant model
  7439 ;;
  7440                           
  7441                           
  7442                           ;psect for function _TMR2_LoadPeriodRegister
  7443  081E                     _TMR2_LoadPeriodRegister:	
  7444                           
  7445                           ;incstack = 0
  7446                           ; Regs used in _TMR2_LoadPeriodRegister: [wreg]
  7447                           ;TMR2_LoadPeriodRegister@periodVal stored from wreg
  7448  081E  00F1               	movwf	TMR2_LoadPeriodRegister@periodVal
  7449  081F                     l2945:	
  7450                           
  7451                           ;mcc_generated_files/tmr2.c: 106: void TMR2_LoadPeriodRegister(uint8_t periodVal);mcc_ge
      +                          nerated_files/tmr2.c: 107: {;mcc_generated_files/tmr2.c: 108:    PR2 = periodVal;
  7452  081F  0871               	movf	TMR2_LoadPeriodRegister@periodVal,w
  7453  0820  0020               	movlb	0	; select bank0
  7454  0821  009B               	movwf	27	;volatile
  7455  0822                     l914:	
  7456  0822  0008               	return
  7457  0823                     __end_of_TMR2_LoadPeriodRegister:	
  7458                           
  7459                           	psect	text41
  7460  0536                     __ptext41:	
  7461 ;; *************** function _Sensor_loadADCSettings *****************
  7462 ;; Defined at:
  7463 ;;		line 420 in file "mcc_generated_files/mtouch/mtouch_sensor.c"
  7464 ;; Parameters:    Size  Location     Type
  7465 ;;  sensor          1    wreg     PTR struct .
  7466 ;;		 -> NULL(0), mtouch_sensor(9), 
  7467 ;;  adc_index       1    2[COMMON] unsigned char 
  7468 ;; Auto vars:     Size  Location     Type
  7469 ;;  sensor          1    9[COMMON] PTR struct .
  7470 ;;		 -> NULL(0), mtouch_sensor(9), 
  7471 ;;  addressOffse    1    8[COMMON] unsigned char 
  7472 ;; Return value:  Size  Location     Type
  7473 ;;                  1    wreg      void 
  7474 ;; Registers used:
  7475 ;;		wreg, fsr1l, fsr1h, status,2, status,0, pclath, cstack
  7476 ;; Tracked objects:
  7477 ;;		On entry : 0/0
  7478 ;;		On exit  : 0/0
  7479 ;;		Unchanged: 0/0
  7480 ;; Data sizes:     COMMON   BANK0   BANK1   BANK2   BANK3   BANK4   BANK5   BANK6
  7481 ;;      Params:         1       0       0       0       0       0       0       0
  7482 ;;      Locals:         4       0       0       0       0       0       0       0
  7483 ;;      Temps:          3       0       0       0       0       0       0       0
  7484 ;;      Totals:         8       0       0       0       0       0       0       0
  7485 ;;Total ram usage:        8 bytes
  7486 ;; Hardware stack levels used:    1
  7487 ;; Hardware stack levels required when called:    5
  7488 ;; This function calls:
  7489 ;;		_Sensor_isCalibrated
  7490 ;;		_Sensor_isCalibratingAcqTime
  7491 ;; This function is called by:
  7492 ;;		_Sensor_Acq_ExecutePacket
  7493 ;; This function uses a non-reentrant model
  7494 ;;
  7495                           
  7496                           
  7497                           ;psect for function _Sensor_loadADCSettings
  7498  0536                     _Sensor_loadADCSettings:	
  7499                           
  7500                           ;incstack = 0
  7501                           ; Regs used in _Sensor_loadADCSettings: [wreg+fsr1l+fsr1h+status,2+status,0+pclath+cstac
      +                          k]
  7502                           ;Sensor_loadADCSettings@sensor stored from wreg
  7503  0536  00F9               	movwf	Sensor_loadADCSettings@sensor
  7504  0537                     l2915:	
  7505                           
  7506                           ;mcc_generated_files/mtouch/mtouch_sensor.c: 420: static void Sensor_loadADCSettings(mto
      +                          uch_sensor_t* sensor, uint8_t adc_index);mcc_generated_files/mtouch/mtouch_sensor.c: 421
      +                          : {;mcc_generated_files/mtouch/mtouch_sensor.c: 422:     if (sensor == ((void*)0))
  7507  0537  0879               	movf	Sensor_loadADCSettings@sensor,w
  7508  0538  1D03               	btfss	3,2
  7509  0539  2D3B               	goto	u1861
  7510  053A  2D3C               	goto	u1860
  7511  053B                     u1861:	
  7512  053B  2D3D               	goto	l2919
  7513  053C                     u1860:	
  7514  053C  2DFC               	goto	l357
  7515  053D                     l2919:	
  7516                           
  7517                           ;mcc_generated_files/mtouch/mtouch_sensor.c: 425:     uint8_t addressOffset = (adc_index
      +                          ) ? 0x80 : 0x00;
  7518  053D  0872               	movf	Sensor_loadADCSettings@adc_index,w
  7519  053E  1D03               	btfss	3,2
  7520  053F  2D41               	goto	u1871
  7521  0540  2D42               	goto	u1870
  7522  0541                     u1871:	
  7523  0541  2D45               	goto	l2923
  7524  0542                     u1870:	
  7525  0542                     l2921:	
  7526  0542  01F6               	clrf	_Sensor_loadADCSettings$743
  7527  0543  01F7               	clrf	_Sensor_loadADCSettings$743+1
  7528  0544  2D49               	goto	l361
  7529  0545                     l2923:	
  7530  0545  3080               	movlw	128
  7531  0546  00F6               	movwf	_Sensor_loadADCSettings$743
  7532  0547  3000               	movlw	0
  7533  0548  00F7               	movwf	_Sensor_loadADCSettings$743+1
  7534  0549                     l361:	
  7535  0549  0876               	movf	_Sensor_loadADCSettings$743,w
  7536  054A  00F3               	movwf	??_Sensor_loadADCSettings
  7537  054B  0873               	movf	??_Sensor_loadADCSettings,w
  7538  054C  00F8               	movwf	Sensor_loadADCSettings@addressOffset
  7539  054D                     l2925:	
  7540                           
  7541                           ;mcc_generated_files/mtouch/mtouch_sensor.c: 427:     *(&AD1CON0 + addressOffset) = (uin
      +                          t8_t) sensor->adcon0;
  7542  054D  0A79               	incf	Sensor_loadADCSettings@sensor,w
  7543  054E  0086               	movwf	6
  7544  054F  0187               	clrf	7
  7545  0550  0801               	movf	1,w
  7546  0551  00F3               	movwf	??_Sensor_loadADCSettings
  7547  0552  0878               	movf	Sensor_loadADCSettings@addressOffset,w
  7548  0553  3E11               	addlw	17
  7549  0554  00F4               	movwf	??_Sensor_loadADCSettings+1
  7550  0555  01F5               	clrf	??_Sensor_loadADCSettings+2
  7551  0556  3007               	movlw	7
  7552  0557  3DF5               	addwfc	??_Sensor_loadADCSettings+2,f
  7553  0558  0874               	movf	??_Sensor_loadADCSettings+1,w
  7554  0559  0086               	movwf	6
  7555  055A  0875               	movf	??_Sensor_loadADCSettings+2,w
  7556  055B  0087               	movwf	7
  7557  055C  0873               	movf	??_Sensor_loadADCSettings,w
  7558  055D  0081               	movwf	1
  7559  055E                     l2927:	
  7560                           
  7561                           ;mcc_generated_files/mtouch/mtouch_sensor.c: 428:     *(&AAD1CAP + addressOffset) = (uin
      +                          t8_t) sensor->addcap;
  7562  055E  0879               	movf	Sensor_loadADCSettings@sensor,w
  7563  055F  3E05               	addlw	5
  7564  0560  0086               	movwf	6
  7565  0561  0187               	clrf	7
  7566  0562  0801               	movf	1,w
  7567  0563  00F3               	movwf	??_Sensor_loadADCSettings
  7568  0564  0878               	movf	Sensor_loadADCSettings@addressOffset,w
  7569  0565  3E19               	addlw	25
  7570  0566  00F4               	movwf	??_Sensor_loadADCSettings+1
  7571  0567  01F5               	clrf	??_Sensor_loadADCSettings+2
  7572  0568  3007               	movlw	7
  7573  0569  3DF5               	addwfc	??_Sensor_loadADCSettings+2,f
  7574  056A  0874               	movf	??_Sensor_loadADCSettings+1,w
  7575  056B  0086               	movwf	6
  7576  056C  0875               	movf	??_Sensor_loadADCSettings+2,w
  7577  056D  0087               	movwf	7
  7578  056E  0873               	movf	??_Sensor_loadADCSettings,w
  7579  056F  0081               	movwf	1
  7580  0570                     l2929:	
  7581                           
  7582                           ;mcc_generated_files/mtouch/mtouch_sensor.c: 429:     *(&AAD1CON2 + addressOffset) = (ui
      +                          nt8_t)(0b101<<4);
  7583  0570  0878               	movf	Sensor_loadADCSettings@addressOffset,w
  7584  0571  3E13               	addlw	19
  7585  0572  00F3               	movwf	??_Sensor_loadADCSettings
  7586  0573  01F4               	clrf	??_Sensor_loadADCSettings+1
  7587  0574  3007               	movlw	7
  7588  0575  3DF4               	addwfc	??_Sensor_loadADCSettings+1,f
  7589  0576  0873               	movf	??_Sensor_loadADCSettings,w
  7590  0577  0086               	movwf	6
  7591  0578  0874               	movf	??_Sensor_loadADCSettings+1,w
  7592  0579  0087               	movwf	7
  7593  057A  3050               	movlw	80
  7594  057B  0081               	movwf	1
  7595  057C                     l2931:	
  7596                           
  7597                           ;mcc_generated_files/mtouch/mtouch_sensor.c: 430:     *(&AAD1GRD + addressOffset) &= (ui
      +                          nt8_t) 0b11111110;
  7598  057C  30FE               	movlw	254
  7599  057D  00F3               	movwf	??_Sensor_loadADCSettings
  7600  057E  0878               	movf	Sensor_loadADCSettings@addressOffset,w
  7601  057F  3E18               	addlw	24
  7602  0580  0086               	movwf	6
  7603  0581  0187               	clrf	7
  7604  0582  3007               	movlw	7
  7605  0583  3D87               	addwfc	7,f
  7606  0584  0873               	movf	??_Sensor_loadADCSettings,w
  7607  0585  0581               	andwf	1,f
  7608  0586                     l2933:	
  7609                           
  7610                           ;mcc_generated_files/mtouch/mtouch_sensor.c: 432:     if (Sensor_isCalibrated(sensor))
  7611  0586  0879               	movf	Sensor_loadADCSettings@sensor,w
  7612  0587  3188  2088  3185   	fcall	_Sensor_isCalibrated
  7613  058A  3A00               	xorlw	0
  7614  058B  1903               	skipnz
  7615  058C  2D8E               	goto	u1881
  7616  058D  2D8F               	goto	u1880
  7617  058E                     u1881:	
  7618  058E  2DB4               	goto	l2937
  7619  058F                     u1880:	
  7620  058F                     l2935:	
  7621                           
  7622                           ;mcc_generated_files/mtouch/mtouch_sensor.c: 433:     {;mcc_generated_files/mtouch/mtouc
      +                          h_sensor.c: 434:         *(&AD1PRECON + addressOffset) = (uint8_t) sensor->precharge_tim
      +                          e;
  7623  058F  0879               	movf	Sensor_loadADCSettings@sensor,w
  7624  0590  3E02               	addlw	2
  7625  0591  0086               	movwf	6
  7626  0592  0187               	clrf	7
  7627  0593  0801               	movf	1,w
  7628  0594  00F3               	movwf	??_Sensor_loadADCSettings
  7629  0595  0878               	movf	Sensor_loadADCSettings@addressOffset,w
  7630  0596  3E16               	addlw	22
  7631  0597  00F4               	movwf	??_Sensor_loadADCSettings+1
  7632  0598  01F5               	clrf	??_Sensor_loadADCSettings+2
  7633  0599  3007               	movlw	7
  7634  059A  3DF5               	addwfc	??_Sensor_loadADCSettings+2,f
  7635  059B  0874               	movf	??_Sensor_loadADCSettings+1,w
  7636  059C  0086               	movwf	6
  7637  059D  0875               	movf	??_Sensor_loadADCSettings+2,w
  7638  059E  0087               	movwf	7
  7639  059F  0873               	movf	??_Sensor_loadADCSettings,w
  7640  05A0  0081               	movwf	1
  7641                           
  7642                           ;mcc_generated_files/mtouch/mtouch_sensor.c: 435:         *(&AD1ACQCON + addressOffset) 
      +                          = (uint8_t) sensor->acquisition_time;
  7643  05A1  0879               	movf	Sensor_loadADCSettings@sensor,w
  7644  05A2  3E03               	addlw	3
  7645  05A3  0086               	movwf	6
  7646  05A4  0187               	clrf	7
  7647  05A5  0801               	movf	1,w
  7648  05A6  00F3               	movwf	??_Sensor_loadADCSettings
  7649  05A7  0878               	movf	Sensor_loadADCSettings@addressOffset,w
  7650  05A8  3E17               	addlw	23
  7651  05A9  00F4               	movwf	??_Sensor_loadADCSettings+1
  7652  05AA  01F5               	clrf	??_Sensor_loadADCSettings+2
  7653  05AB  3007               	movlw	7
  7654  05AC  3DF5               	addwfc	??_Sensor_loadADCSettings+2,f
  7655  05AD  0874               	movf	??_Sensor_loadADCSettings+1,w
  7656  05AE  0086               	movwf	6
  7657  05AF  0875               	movf	??_Sensor_loadADCSettings+2,w
  7658  05B0  0087               	movwf	7
  7659  05B1  0873               	movf	??_Sensor_loadADCSettings,w
  7660  05B2  0081               	movwf	1
  7661                           
  7662                           ;mcc_generated_files/mtouch/mtouch_sensor.c: 436:     }
  7663  05B3  2DE8               	goto	l363
  7664  05B4                     l2937:	
  7665                           
  7666                           ;mcc_generated_files/mtouch/mtouch_sensor.c: 438:     {;mcc_generated_files/mtouch/mtouc
      +                          h_sensor.c: 439:         *(&AD1PRECON + addressOffset) = (mtouch_sensor_time_t)32;
  7667  05B4  0878               	movf	Sensor_loadADCSettings@addressOffset,w
  7668  05B5  3E16               	addlw	22
  7669  05B6  00F3               	movwf	??_Sensor_loadADCSettings
  7670  05B7  01F4               	clrf	??_Sensor_loadADCSettings+1
  7671  05B8  3007               	movlw	7
  7672  05B9  3DF4               	addwfc	??_Sensor_loadADCSettings+1,f
  7673  05BA  0873               	movf	??_Sensor_loadADCSettings,w
  7674  05BB  0086               	movwf	6
  7675  05BC  0874               	movf	??_Sensor_loadADCSettings+1,w
  7676  05BD  0087               	movwf	7
  7677  05BE  3020               	movlw	32
  7678  05BF  0081               	movwf	1
  7679  05C0                     l2939:	
  7680                           
  7681                           ;mcc_generated_files/mtouch/mtouch_sensor.c: 440:         if (Sensor_isCalibratingAcqTim
      +                          e(sensor))
  7682  05C0  0879               	movf	Sensor_loadADCSettings@sensor,w
  7683  05C1  3188  2078  3185   	fcall	_Sensor_isCalibratingAcqTime
  7684  05C4  3A00               	xorlw	0
  7685  05C5  1903               	skipnz
  7686  05C6  2DC8               	goto	u1891
  7687  05C7  2DC9               	goto	u1890
  7688  05C8                     u1891:	
  7689  05C8  2DDC               	goto	l2943
  7690  05C9                     u1890:	
  7691  05C9                     l2941:	
  7692                           
  7693                           ;mcc_generated_files/mtouch/mtouch_sensor.c: 441:             *(&AD1ACQCON + addressOffs
      +                          et) = (uint8_t) sensor->acquisition_time;
  7694  05C9  0879               	movf	Sensor_loadADCSettings@sensor,w
  7695  05CA  3E03               	addlw	3
  7696  05CB  0086               	movwf	6
  7697  05CC  0187               	clrf	7
  7698  05CD  0801               	movf	1,w
  7699  05CE  00F3               	movwf	??_Sensor_loadADCSettings
  7700  05CF  0878               	movf	Sensor_loadADCSettings@addressOffset,w
  7701  05D0  3E17               	addlw	23
  7702  05D1  00F4               	movwf	??_Sensor_loadADCSettings+1
  7703  05D2  01F5               	clrf	??_Sensor_loadADCSettings+2
  7704  05D3  3007               	movlw	7
  7705  05D4  3DF5               	addwfc	??_Sensor_loadADCSettings+2,f
  7706  05D5  0874               	movf	??_Sensor_loadADCSettings+1,w
  7707  05D6  0086               	movwf	6
  7708  05D7  0875               	movf	??_Sensor_loadADCSettings+2,w
  7709  05D8  0087               	movwf	7
  7710  05D9  0873               	movf	??_Sensor_loadADCSettings,w
  7711  05DA  0081               	movwf	1
  7712  05DB  2DE8               	goto	l363
  7713  05DC                     l2943:	
  7714                           
  7715                           ;mcc_generated_files/mtouch/mtouch_sensor.c: 443:             *(&AD1ACQCON + addressOffs
      +                          et) = (mtouch_sensor_time_t)32;
  7716  05DC  0878               	movf	Sensor_loadADCSettings@addressOffset,w
  7717  05DD  3E17               	addlw	23
  7718  05DE  00F3               	movwf	??_Sensor_loadADCSettings
  7719  05DF  01F4               	clrf	??_Sensor_loadADCSettings+1
  7720  05E0  3007               	movlw	7
  7721  05E1  3DF4               	addwfc	??_Sensor_loadADCSettings+1,f
  7722  05E2  0873               	movf	??_Sensor_loadADCSettings,w
  7723  05E3  0086               	movwf	6
  7724  05E4  0874               	movf	??_Sensor_loadADCSettings+1,w
  7725  05E5  0087               	movwf	7
  7726  05E6  3020               	movlw	32
  7727  05E7  0081               	movwf	1
  7728  05E8                     l363:	
  7729                           ;mcc_generated_files/mtouch/mtouch_sensor.c: 444:     }
  7730                           
  7731                           
  7732                           ;mcc_generated_files/mtouch/mtouch_sensor.c: 446:     packet_sample[adc_index] = ((mtouc
      +                          h_sensor_packetsample_t)(sensor->oversampling)<<9);
  7733  05E8  0879               	movf	Sensor_loadADCSettings@sensor,w
  7734  05E9  3E04               	addlw	4
  7735  05EA  0086               	movwf	6
  7736  05EB  0187               	clrf	7
  7737  05EC  0801               	movf	1,w
  7738  05ED  00F3               	movwf	??_Sensor_loadADCSettings
  7739  05EE  01F4               	clrf	??_Sensor_loadADCSettings+1
  7740  05EF  3009               	movlw	9
  7741  05F0                     u1905:	
  7742  05F0  35F3               	lslf	??_Sensor_loadADCSettings,f
  7743  05F1  0DF4               	rlf	??_Sensor_loadADCSettings+1,f
  7744  05F2  0B89               	decfsz	9,f
  7745  05F3  2DF0               	goto	u1905
  7746  05F4  3572               	lslf	Sensor_loadADCSettings@adc_index,w
  7747  05F5  3E49               	addlw	(low (_packet_sample| 0))& (0+255)
  7748  05F6  0086               	movwf	6
  7749  05F7  0187               	clrf	7
  7750  05F8  0873               	movf	??_Sensor_loadADCSettings,w
  7751  05F9  3FC0               	movwi [0]fsr1
  7752  05FA  0874               	movf	??_Sensor_loadADCSettings+1,w
  7753  05FB  3FC1               	movwi [1]fsr1
  7754  05FC                     l357:	
  7755  05FC  0008               	return
  7756  05FD                     __end_of_Sensor_loadADCSettings:	
  7757                           
  7758                           	psect	text42
  7759  0888                     __ptext42:	
  7760 ;; *************** function _Sensor_isCalibrated *****************
  7761 ;; Defined at:
  7762 ;;		line 903 in file "mcc_generated_files/mtouch/mtouch_sensor.c"
  7763 ;; Parameters:    Size  Location     Type
  7764 ;;  sensor          1    wreg     PTR struct .
  7765 ;;		 -> NULL(0), mtouch_sensor(9), 
  7766 ;; Auto vars:     Size  Location     Type
  7767 ;;  sensor          1    1[COMMON] PTR struct .
  7768 ;;		 -> NULL(0), mtouch_sensor(9), 
  7769 ;; Return value:  Size  Location     Type
  7770 ;;                  1    wreg      _Bool 
  7771 ;; Registers used:
  7772 ;;		wreg, fsr1l, fsr1h, status,2, status,0
  7773 ;; Tracked objects:
  7774 ;;		On entry : 0/0
  7775 ;;		On exit  : 0/0
  7776 ;;		Unchanged: 0/0
  7777 ;; Data sizes:     COMMON   BANK0   BANK1   BANK2   BANK3   BANK4   BANK5   BANK6
  7778 ;;      Params:         0       0       0       0       0       0       0       0
  7779 ;;      Locals:         1       0       0       0       0       0       0       0
  7780 ;;      Temps:          0       0       0       0       0       0       0       0
  7781 ;;      Totals:         1       0       0       0       0       0       0       0
  7782 ;;Total ram usage:        1 bytes
  7783 ;; Hardware stack levels used:    1
  7784 ;; Hardware stack levels required when called:    4
  7785 ;; This function calls:
  7786 ;;		Nothing
  7787 ;; This function is called by:
  7788 ;;		_Sensor_Acquisition
  7789 ;;		_Sensor_loadADCSettings
  7790 ;;		_Sensor_Acq_ExecutePacket
  7791 ;; This function uses a non-reentrant model
  7792 ;;
  7793                           
  7794                           
  7795                           ;psect for function _Sensor_isCalibrated
  7796  0888                     _Sensor_isCalibrated:	
  7797                           
  7798                           ;incstack = 0
  7799                           ; Regs used in _Sensor_isCalibrated: [wreg+fsr1l+fsr1h+status,2+status,0]
  7800                           ;Sensor_isCalibrated@sensor stored from wreg
  7801  0888  00F1               	movwf	Sensor_isCalibrated@sensor
  7802  0889                     l2865:	
  7803                           
  7804                           ;mcc_generated_files/mtouch/mtouch_sensor.c: 903: static __attribute__((inline)) _Bool S
      +                          ensor_isCalibrated(mtouch_sensor_t* sensor);mcc_generated_files/mtouch/mtouch_sensor.c: 
      +                          904: {;mcc_generated_files/mtouch/mtouch_sensor.c: 905:     return (_Bool)sensor->calibr
      +                          ated;
  7805  0889  0871               	movf	Sensor_isCalibrated@sensor,w
  7806  088A  3E08               	addlw	8
  7807  088B  0086               	movwf	6
  7808  088C  0187               	clrf	7
  7809  088D  0C01               	rrf	1,w
  7810  088E  0C89               	rrf	9,f
  7811  088F  3901               	andlw	1
  7812  0890                     l500:	
  7813  0890  0008               	return
  7814  0891                     __end_of_Sensor_isCalibrated:	
  7815                           
  7816                           	psect	text43
  7817  094C                     __ptext43:	
  7818 ;; *************** function _Sensor_isEnabled *****************
  7819 ;; Defined at:
  7820 ;;		line 838 in file "mcc_generated_files/mtouch/mtouch_sensor.c"
  7821 ;; Parameters:    Size  Location     Type
  7822 ;;  sensor          1    wreg     PTR struct .
  7823 ;;		 -> NULL(0), mtouch_sensor(9), 
  7824 ;; Auto vars:     Size  Location     Type
  7825 ;;  sensor          1    2[COMMON] PTR struct .
  7826 ;;		 -> NULL(0), mtouch_sensor(9), 
  7827 ;; Return value:  Size  Location     Type
  7828 ;;                  1    wreg      _Bool 
  7829 ;; Registers used:
  7830 ;;		wreg, fsr1l, fsr1h, status,2, status,0
  7831 ;; Tracked objects:
  7832 ;;		On entry : 0/0
  7833 ;;		On exit  : 0/0
  7834 ;;		Unchanged: 0/0
  7835 ;; Data sizes:     COMMON   BANK0   BANK1   BANK2   BANK3   BANK4   BANK5   BANK6
  7836 ;;      Params:         0       0       0       0       0       0       0       0
  7837 ;;      Locals:         1       0       0       0       0       0       0       0
  7838 ;;      Temps:          1       0       0       0       0       0       0       0
  7839 ;;      Totals:         2       0       0       0       0       0       0       0
  7840 ;;Total ram usage:        2 bytes
  7841 ;; Hardware stack levels used:    1
  7842 ;; Hardware stack levels required when called:    4
  7843 ;; This function calls:
  7844 ;;		Nothing
  7845 ;; This function is called by:
  7846 ;;		_Sensor_Service
  7847 ;;		_Sensor_postAcquisitionProcess
  7848 ;;		_Sensor_Acq_ExecutePacket
  7849 ;; This function uses a non-reentrant model
  7850 ;;
  7851                           
  7852                           
  7853                           ;psect for function _Sensor_isEnabled
  7854  094C                     _Sensor_isEnabled:	
  7855                           
  7856                           ;incstack = 0
  7857                           ; Regs used in _Sensor_isEnabled: [wreg+fsr1l+fsr1h+status,2+status,0]
  7858                           ;Sensor_isEnabled@sensor stored from wreg
  7859  094C  00F2               	movwf	Sensor_isEnabled@sensor
  7860  094D                     l2893:	
  7861                           
  7862                           ;mcc_generated_files/mtouch/mtouch_sensor.c: 838: static _Bool Sensor_isEnabled(mtouch_s
      +                          ensor_t* sensor);mcc_generated_files/mtouch/mtouch_sensor.c: 839: {;mcc_generated_files/
      +                          mtouch/mtouch_sensor.c: 840:     if(sensor!=((void*)0))
  7863  094D  0872               	movf	Sensor_isEnabled@sensor,w
  7864  094E  1903               	btfsc	3,2
  7865  094F  2951               	goto	u1841
  7866  0950  2952               	goto	u1840
  7867  0951                     u1841:	
  7868  0951  295C               	goto	l2901
  7869  0952                     u1840:	
  7870  0952                     l2895:	
  7871                           
  7872                           ;mcc_generated_files/mtouch/mtouch_sensor.c: 841:         return (_Bool)sensor->enabled;
  7873  0952  0872               	movf	Sensor_isEnabled@sensor,w
  7874  0953  3E08               	addlw	8
  7875  0954  0086               	movwf	6
  7876  0955  0187               	clrf	7
  7877  0956  0C01               	rrf	1,w
  7878  0957  00F1               	movwf	??_Sensor_isEnabled
  7879  0958  0CF1               	rrf	??_Sensor_isEnabled,f
  7880  0959  0C71               	rrf	??_Sensor_isEnabled,w
  7881  095A  3901               	andlw	1
  7882  095B  295D               	goto	l473
  7883  095C                     l2901:	
  7884                           
  7885                           ;mcc_generated_files/mtouch/mtouch_sensor.c: 843:         return 0;
  7886  095C  3000               	movlw	0
  7887  095D                     l473:	
  7888  095D  0008               	return
  7889  095E                     __end_of_Sensor_isEnabled:	
  7890                           
  7891                           	psect	text44
  7892  08B9                     __ptext44:	
  7893 ;; *************** function _Sensor_isActive *****************
  7894 ;; Defined at:
  7895 ;;		line 865 in file "mcc_generated_files/mtouch/mtouch_sensor.c"
  7896 ;; Parameters:    Size  Location     Type
  7897 ;;  sensor          1    wreg     PTR struct .
  7898 ;;		 -> NULL(0), mtouch_sensor(9), 
  7899 ;; Auto vars:     Size  Location     Type
  7900 ;;  sensor          1    1[COMMON] PTR struct .
  7901 ;;		 -> NULL(0), mtouch_sensor(9), 
  7902 ;; Return value:  Size  Location     Type
  7903 ;;                  1    wreg      _Bool 
  7904 ;; Registers used:
  7905 ;;		wreg, fsr1l, fsr1h, status,2, status,0
  7906 ;; Tracked objects:
  7907 ;;		On entry : 0/0
  7908 ;;		On exit  : 0/0
  7909 ;;		Unchanged: 0/0
  7910 ;; Data sizes:     COMMON   BANK0   BANK1   BANK2   BANK3   BANK4   BANK5   BANK6
  7911 ;;      Params:         0       0       0       0       0       0       0       0
  7912 ;;      Locals:         1       0       0       0       0       0       0       0
  7913 ;;      Temps:          0       0       0       0       0       0       0       0
  7914 ;;      Totals:         1       0       0       0       0       0       0       0
  7915 ;;Total ram usage:        1 bytes
  7916 ;; Hardware stack levels used:    1
  7917 ;; Hardware stack levels required when called:    4
  7918 ;; This function calls:
  7919 ;;		Nothing
  7920 ;; This function is called by:
  7921 ;;		_Sensor_Acquisition
  7922 ;;		_Sensor_Acq_ExecutePacket
  7923 ;; This function uses a non-reentrant model
  7924 ;;
  7925                           
  7926                           
  7927                           ;psect for function _Sensor_isActive
  7928  08B9                     _Sensor_isActive:	
  7929                           
  7930                           ;incstack = 0
  7931                           ; Regs used in _Sensor_isActive: [wreg+fsr1l+fsr1h+status,2+status,0]
  7932                           ;Sensor_isActive@sensor stored from wreg
  7933  08B9  00F1               	movwf	Sensor_isActive@sensor
  7934  08BA                     l2905:	
  7935                           
  7936                           ;mcc_generated_files/mtouch/mtouch_sensor.c: 865: static __attribute__((inline)) _Bool S
      +                          ensor_isActive(mtouch_sensor_t* sensor);mcc_generated_files/mtouch/mtouch_sensor.c: 866:
      +                           {;mcc_generated_files/mtouch/mtouch_sensor.c: 867:     if(sensor == ((void*)0))
  7937  08BA  0871               	movf	Sensor_isActive@sensor,w
  7938  08BB  1D03               	btfss	3,2
  7939  08BC  28BE               	goto	u1851
  7940  08BD  28BF               	goto	u1850
  7941  08BE                     u1851:	
  7942  08BE  28C1               	goto	l2911
  7943  08BF                     u1850:	
  7944  08BF                     l2907:	
  7945                           
  7946                           ;mcc_generated_files/mtouch/mtouch_sensor.c: 868:         return 0;
  7947  08BF  3000               	movlw	0
  7948  08C0  28C7               	goto	l484
  7949  08C1                     l2911:	
  7950                           
  7951                           ;mcc_generated_files/mtouch/mtouch_sensor.c: 870:     return (_Bool)sensor->active;
  7952  08C1  0871               	movf	Sensor_isActive@sensor,w
  7953  08C2  3E08               	addlw	8
  7954  08C3  0086               	movwf	6
  7955  08C4  0187               	clrf	7
  7956  08C5  0C01               	rrf	1,w
  7957  08C6  3901               	andlw	1
  7958  08C7                     l484:	
  7959  08C7  0008               	return
  7960  08C8                     __end_of_Sensor_isActive:	
  7961                           
  7962                           	psect	text45
  7963  0698                     __ptext45:	
  7964 ;; *************** function _Sensor_autoCalibration *****************
  7965 ;; Defined at:
  7966 ;;		line 671 in file "mcc_generated_files/mtouch/mtouch_sensor.c"
  7967 ;; Parameters:    Size  Location     Type
  7968 ;;  sensor          1    wreg     PTR struct .
  7969 ;;		 -> NULL(0), mtouch_sensor(9), 
  7970 ;; Auto vars:     Size  Location     Type
  7971 ;;  sensor          1   10[COMMON] PTR struct .
  7972 ;;		 -> NULL(0), mtouch_sensor(9), 
  7973 ;;  adcIndex        1    9[COMMON] unsigned char 
  7974 ;; Return value:  Size  Location     Type
  7975 ;;                  1    wreg      void 
  7976 ;; Registers used:
  7977 ;;		wreg, fsr0l, fsr0h, fsr1l, fsr1h, status,2, status,0, pclath, cstack
  7978 ;; Tracked objects:
  7979 ;;		On entry : 0/0
  7980 ;;		On exit  : 0/0
  7981 ;;		Unchanged: 0/0
  7982 ;; Data sizes:     COMMON   BANK0   BANK1   BANK2   BANK3   BANK4   BANK5   BANK6
  7983 ;;      Params:         0       0       0       0       0       0       0       0
  7984 ;;      Locals:         2       0       0       0       0       0       0       0
  7985 ;;      Temps:          4       0       0       0       0       0       0       0
  7986 ;;      Totals:         6       0       0       0       0       0       0       0
  7987 ;;Total ram usage:        6 bytes
  7988 ;; Hardware stack levels used:    1
  7989 ;; Hardware stack levels required when called:    5
  7990 ;; This function calls:
  7991 ;;		_Sensor_getScanGroupIndex
  7992 ;;		_Sensor_isCalibratingAcqTime
  7993 ;;		_Sensor_setCalibratAcqTime
  7994 ;;		_Sensor_setCalibrated
  7995 ;;		_abs
  7996 ;; This function is called by:
  7997 ;;		_Sensor_Acq_ExecutePacket
  7998 ;; This function uses a non-reentrant model
  7999 ;;
  8000                           
  8001                           
  8002                           ;psect for function _Sensor_autoCalibration
  8003  0698                     _Sensor_autoCalibration:	
  8004                           
  8005                           ;incstack = 0
  8006                           ; Regs used in _Sensor_autoCalibration: [wreg-fsr1h+status,2+status,0+pclath+cstack]
  8007                           ;Sensor_autoCalibration@sensor stored from wreg
  8008  0698  00FA               	movwf	Sensor_autoCalibration@sensor
  8009  0699                     l2951:	
  8010                           
  8011                           ;mcc_generated_files/mtouch/mtouch_sensor.c: 671: static void Sensor_autoCalibration(mto
      +                          uch_sensor_t* sensor);mcc_generated_files/mtouch/mtouch_sensor.c: 672: {;mcc_generated_f
      +                          iles/mtouch/mtouch_sensor.c: 673:     uint8_t adcIndex = Sensor_getScanGroupIndex(sensor
      +                          );
  8012  0699  087A               	movf	Sensor_autoCalibration@sensor,w
  8013  069A  318C  2498  3186   	fcall	_Sensor_getScanGroupIndex
  8014  069D  00F5               	movwf	??_Sensor_autoCalibration
  8015  069E  0875               	movf	??_Sensor_autoCalibration,w
  8016  069F  00F9               	movwf	Sensor_autoCalibration@adcIndex
  8017  06A0                     l2953:	
  8018                           
  8019                           ;mcc_generated_files/mtouch/mtouch_sensor.c: 675:     if(!Sensor_isCalibratingAcqTime(se
      +                          nsor))
  8020  06A0  087A               	movf	Sensor_autoCalibration@sensor,w
  8021  06A1  3188  2078  3186   	fcall	_Sensor_isCalibratingAcqTime
  8022  06A4  3A00               	xorlw	0
  8023  06A5  1D03               	skipz
  8024  06A6  2EA8               	goto	u1911
  8025  06A7  2EA9               	goto	u1910
  8026  06A8                     u1911:	
  8027  06A8  2EDF               	goto	l2963
  8028  06A9                     u1910:	
  8029  06A9                     l2955:	
  8030                           
  8031                           ;mcc_generated_files/mtouch/mtouch_sensor.c: 676:     {;mcc_generated_files/mtouch/mtouc
      +                          h_sensor.c: 677:         if(packet_sample[adcIndex] > ((mtouch_sensor_packetsample_t)(se
      +                          nsor->oversampling)<<9))
  8032  06A9  3579               	lslf	Sensor_autoCalibration@adcIndex,w
  8033  06AA  3E49               	addlw	(low (_packet_sample| 0))& (0+255)
  8034  06AB  0086               	movwf	6
  8035  06AC  0187               	clrf	7
  8036  06AD  3F40               	moviw [0]fsr1
  8037  06AE  00F5               	movwf	??_Sensor_autoCalibration
  8038  06AF  3F41               	moviw [1]fsr1
  8039  06B0  00F6               	movwf	??_Sensor_autoCalibration+1
  8040  06B1  087A               	movf	Sensor_autoCalibration@sensor,w
  8041  06B2  3E04               	addlw	4
  8042  06B3  0086               	movwf	6
  8043  06B4  0187               	clrf	7
  8044  06B5  0801               	movf	1,w
  8045  06B6  00F7               	movwf	??_Sensor_autoCalibration+2
  8046  06B7  01F8               	clrf	??_Sensor_autoCalibration+3
  8047  06B8  3009               	movlw	9
  8048  06B9                     u1925:	
  8049  06B9  35F7               	lslf	??_Sensor_autoCalibration+2,f
  8050  06BA  0DF8               	rlf	??_Sensor_autoCalibration+3,f
  8051  06BB  0B89               	decfsz	9,f
  8052  06BC  2EB9               	goto	u1925
  8053  06BD  0876               	movf	??_Sensor_autoCalibration+1,w
  8054  06BE  0278               	subwf	??_Sensor_autoCalibration+3,w
  8055  06BF  1D03               	skipz
  8056  06C0  2EC3               	goto	u1935
  8057  06C1  0875               	movf	??_Sensor_autoCalibration,w
  8058  06C2  0277               	subwf	??_Sensor_autoCalibration+2,w
  8059  06C3                     u1935:	
  8060  06C3  1803               	skipnc
  8061  06C4  2EC6               	goto	u1931
  8062  06C5  2EC7               	goto	u1930
  8063  06C6                     u1931:	
  8064  06C6  2EDA               	goto	l2961
  8065  06C7                     u1930:	
  8066  06C7                     l2957:	
  8067                           
  8068                           ;mcc_generated_files/mtouch/mtouch_sensor.c: 678:         {;mcc_generated_files/mtouch/m
      +                          touch_sensor.c: 679:             if(++(sensor->addcap) >= (uint8_t)0x0F)
  8069  06C7  3001               	movlw	1
  8070  06C8  00F5               	movwf	??_Sensor_autoCalibration
  8071  06C9  087A               	movf	Sensor_autoCalibration@sensor,w
  8072  06CA  3E05               	addlw	5
  8073  06CB  0086               	movwf	6
  8074  06CC  0187               	clrf	7
  8075  06CD  0875               	movf	??_Sensor_autoCalibration,w
  8076  06CE  0781               	addwf	1,f
  8077  06CF  300F               	movlw	15
  8078  06D0  0201               	subwf	1,w
  8079  06D1  1C03               	skipc
  8080  06D2  2ED4               	goto	u1941
  8081  06D3  2ED5               	goto	u1940
  8082  06D4                     u1941:	
  8083  06D4  2F2F               	goto	l425
  8084  06D5                     u1940:	
  8085  06D5                     l2959:	
  8086                           
  8087                           ;mcc_generated_files/mtouch/mtouch_sensor.c: 680:                 Sensor_setCalibratAcqT
      +                          ime(sensor);
  8088  06D5  087A               	movf	Sensor_autoCalibration@sensor,w
  8089  06D6  3188  209D  3186   	fcall	_Sensor_setCalibratAcqTime
  8090  06D9  2F2F               	goto	l425
  8091  06DA                     l2961:	
  8092                           
  8093                           ;mcc_generated_files/mtouch/mtouch_sensor.c: 683:         {;mcc_generated_files/mtouch/m
      +                          touch_sensor.c: 684:              Sensor_setCalibratAcqTime(sensor);
  8094  06DA  087A               	movf	Sensor_autoCalibration@sensor,w
  8095  06DB  3188  209D  3186   	fcall	_Sensor_setCalibratAcqTime
  8096  06DE  2F2F               	goto	l425
  8097  06DF                     l2963:	
  8098                           
  8099                           ;mcc_generated_files/mtouch/mtouch_sensor.c: 688:     {;mcc_generated_files/mtouch/mtouc
      +                          h_sensor.c: 689:         if((mtouch_sensor_packetsample_t)abs(packet_sample[adcIndex] - 
      +                          sensor->rawSample) < ((mtouch_sensor_packetsample_t)(sensor->oversampling)<<1))
  8100  06DF  087A               	movf	Sensor_autoCalibration@sensor,w
  8101  06E0  3E04               	addlw	4
  8102  06E1  0086               	movwf	6
  8103  06E2  0187               	clrf	7
  8104  06E3  0801               	movf	1,w
  8105  06E4  00F5               	movwf	??_Sensor_autoCalibration
  8106  06E5  01F6               	clrf	??_Sensor_autoCalibration+1
  8107  06E6  35F5               	lslf	??_Sensor_autoCalibration,f
  8108  06E7  0DF6               	rlf	??_Sensor_autoCalibration+1,f
  8109  06E8  087A               	movf	Sensor_autoCalibration@sensor,w
  8110  06E9  3E06               	addlw	6
  8111  06EA  0086               	movwf	6
  8112  06EB  0187               	clrf	7
  8113  06EC  3579               	lslf	Sensor_autoCalibration@adcIndex,w
  8114  06ED  3E49               	addlw	(low (_packet_sample| 0))& (0+255)
  8115  06EE  0084               	movwf	4
  8116  06EF  0185               	clrf	5
  8117  06F0  3F40               	moviw [0]fsr1
  8118  06F1  0200               	subwf	0,w
  8119  06F2  00F1               	movwf	abs@a
  8120  06F3  3101               	addfsr 0,1
  8121  06F4  3F41               	moviw [1]fsr1
  8122  06F5  3B00               	subwfb	0,w
  8123  06F6  00F2               	movwf	abs@a+1
  8124  06F7  318A  2267  3186   	fcall	_abs
  8125  06FA  0876               	movf	??_Sensor_autoCalibration+1,w
  8126  06FB  0272               	subwf	?_abs+1,w
  8127  06FC  1D03               	skipz
  8128  06FD  2F00               	goto	u1955
  8129  06FE  0875               	movf	??_Sensor_autoCalibration,w
  8130  06FF  0271               	subwf	?_abs,w
  8131  0700                     u1955:	
  8132  0700  1803               	skipnc
  8133  0701  2F03               	goto	u1951
  8134  0702  2F04               	goto	u1950
  8135  0703                     u1951:	
  8136  0703  2F11               	goto	l2969
  8137  0704                     u1950:	
  8138  0704                     l2965:	
  8139                           
  8140                           ;mcc_generated_files/mtouch/mtouch_sensor.c: 690:         {;mcc_generated_files/mtouch/m
      +                          touch_sensor.c: 691:             sensor->precharge_time = (mtouch_sensor_time_t)32;
  8141  0704  3020               	movlw	32
  8142  0705  00F5               	movwf	??_Sensor_autoCalibration
  8143  0706  087A               	movf	Sensor_autoCalibration@sensor,w
  8144  0707  3E02               	addlw	2
  8145  0708  0086               	movwf	6
  8146  0709  0187               	clrf	7
  8147  070A  0875               	movf	??_Sensor_autoCalibration,w
  8148  070B  0081               	movwf	1
  8149  070C                     l2967:	
  8150                           
  8151                           ;mcc_generated_files/mtouch/mtouch_sensor.c: 692:             Sensor_setCalibrated(senso
      +                          r);
  8152  070C  087A               	movf	Sensor_autoCalibration@sensor,w
  8153  070D  3188  2091  3186   	fcall	_Sensor_setCalibrated
  8154                           
  8155                           ;mcc_generated_files/mtouch/mtouch_sensor.c: 693:         }
  8156  0710  2F2F               	goto	l425
  8157  0711                     l2969:	
  8158                           
  8159                           ;mcc_generated_files/mtouch/mtouch_sensor.c: 695:         {;mcc_generated_files/mtouch/m
      +                          touch_sensor.c: 699:             sensor->acquisition_time += (uint8_t)2;
  8160  0711  3002               	movlw	2
  8161  0712  00F5               	movwf	??_Sensor_autoCalibration
  8162  0713  087A               	movf	Sensor_autoCalibration@sensor,w
  8163  0714  3E03               	addlw	3
  8164  0715  0086               	movwf	6
  8165  0716  0187               	clrf	7
  8166  0717  0875               	movf	??_Sensor_autoCalibration,w
  8167  0718  0781               	addwf	1,f
  8168                           
  8169                           ;mcc_generated_files/mtouch/mtouch_sensor.c: 700:             if((sensor->acquisition_ti
      +                          me)>=(mtouch_sensor_time_t)32)
  8170  0719  087A               	movf	Sensor_autoCalibration@sensor,w
  8171  071A  3E03               	addlw	3
  8172  071B  0086               	movwf	6
  8173  071C  0187               	clrf	7
  8174  071D  3020               	movlw	32
  8175  071E  0201               	subwf	1,w
  8176  071F  1C03               	skipc
  8177  0720  2F22               	goto	u1961
  8178  0721  2F23               	goto	u1960
  8179  0722                     u1961:	
  8180  0722  2F2F               	goto	l425
  8181  0723                     u1960:	
  8182  0723                     l2971:	
  8183                           
  8184                           ;mcc_generated_files/mtouch/mtouch_sensor.c: 701:             {;mcc_generated_files/mtou
      +                          ch/mtouch_sensor.c: 702:                 sensor->precharge_time = (mtouch_sensor_time_t)
      +                          32;
  8185  0723  3020               	movlw	32
  8186  0724  00F5               	movwf	??_Sensor_autoCalibration
  8187  0725  087A               	movf	Sensor_autoCalibration@sensor,w
  8188  0726  3E02               	addlw	2
  8189  0727  0086               	movwf	6
  8190  0728  0187               	clrf	7
  8191  0729  0875               	movf	??_Sensor_autoCalibration,w
  8192  072A  0081               	movwf	1
  8193  072B                     l2973:	
  8194                           
  8195                           ;mcc_generated_files/mtouch/mtouch_sensor.c: 703:                 Sensor_setCalibrated(s
      +                          ensor);
  8196  072B  087A               	movf	Sensor_autoCalibration@sensor,w
  8197  072C  3188  2091  3186   	fcall	_Sensor_setCalibrated
  8198  072F                     l425:	
  8199  072F  0008               	return
  8200  0730                     __end_of_Sensor_autoCalibration:	
  8201                           
  8202                           	psect	text46
  8203  0A67                     __ptext46:	
  8204 ;; *************** function _abs *****************
  8205 ;; Defined at:
  8206 ;;		line 1 in file "C:\Program Files (x86)\Microchip\xc8\v2.10\pic\sources\c99\common\abs.c"
  8207 ;; Parameters:    Size  Location     Type
  8208 ;;  a               2    1[COMMON] int 
  8209 ;; Auto vars:     Size  Location     Type
  8210 ;;		None
  8211 ;; Return value:  Size  Location     Type
  8212 ;;                  2    1[COMMON] int 
  8213 ;; Registers used:
  8214 ;;		wreg, status,2, status,0
  8215 ;; Tracked objects:
  8216 ;;		On entry : 0/0
  8217 ;;		On exit  : 0/0
  8218 ;;		Unchanged: 0/0
  8219 ;; Data sizes:     COMMON   BANK0   BANK1   BANK2   BANK3   BANK4   BANK5   BANK6
  8220 ;;      Params:         2       0       0       0       0       0       0       0
  8221 ;;      Locals:         0       0       0       0       0       0       0       0
  8222 ;;      Temps:          2       0       0       0       0       0       0       0
  8223 ;;      Totals:         4       0       0       0       0       0       0       0
  8224 ;;Total ram usage:        4 bytes
  8225 ;; Hardware stack levels used:    1
  8226 ;; Hardware stack levels required when called:    4
  8227 ;; This function calls:
  8228 ;;		Nothing
  8229 ;; This function is called by:
  8230 ;;		_Sensor_postAcquisitionProcess
  8231 ;;		_Sensor_Acq_ExecutePacket
  8232 ;;		_Sensor_autoCalibration
  8233 ;; This function uses a non-reentrant model
  8234 ;;
  8235                           
  8236                           
  8237                           ;psect for function _abs
  8238  0A67                     _abs:	
  8239  0A67                     l2869:	
  8240                           ;incstack = 0
  8241                           ; Regs used in _abs: [wreg+status,2+status,0]
  8242                           
  8243  0A67  0872               	movf	abs@a+1,w
  8244  0A68  3A80               	xorlw	128
  8245  0A69  00F3               	movwf	??_abs
  8246  0A6A  3080               	movlw	128
  8247  0A6B  0273               	subwf	??_abs,w
  8248  0A6C  1D03               	skipz
  8249  0A6D  2A70               	goto	u1835
  8250  0A6E  3001               	movlw	1
  8251  0A6F  0271               	subwf	abs@a,w
  8252  0A70                     u1835:	
  8253  0A70  1803               	skipnc
  8254  0A71  2A73               	goto	u1831
  8255  0A72  2A74               	goto	u1830
  8256  0A73                     u1831:	
  8257  0A73  2A80               	goto	l1482
  8258  0A74                     u1830:	
  8259  0A74                     l2871:	
  8260  0A74  0971               	comf	abs@a,w
  8261  0A75  00F3               	movwf	??_abs
  8262  0A76  0972               	comf	abs@a+1,w
  8263  0A77  00F4               	movwf	??_abs+1
  8264  0A78  0AF3               	incf	??_abs,f
  8265  0A79  1903               	skipnz
  8266  0A7A  0AF4               	incf	??_abs+1,f
  8267  0A7B  0873               	movf	??_abs,w
  8268  0A7C  00F1               	movwf	?_abs
  8269  0A7D  0874               	movf	??_abs+1,w
  8270  0A7E  00F2               	movwf	?_abs+1
  8271  0A7F  2A80               	goto	l1485
  8272  0A80                     l1482:	
  8273  0A80                     l1485:	
  8274  0A80  0008               	return
  8275  0A81                     __end_of_abs:	
  8276                           
  8277                           	psect	text47
  8278  0891                     __ptext47:	
  8279 ;; *************** function _Sensor_setCalibrated *****************
  8280 ;; Defined at:
  8281 ;;		line 908 in file "mcc_generated_files/mtouch/mtouch_sensor.c"
  8282 ;; Parameters:    Size  Location     Type
  8283 ;;  sensor          1    wreg     PTR struct .
  8284 ;;		 -> NULL(0), mtouch_sensor(9), 
  8285 ;; Auto vars:     Size  Location     Type
  8286 ;;  sensor          1    1[COMMON] PTR struct .
  8287 ;;		 -> NULL(0), mtouch_sensor(9), 
  8288 ;; Return value:  Size  Location     Type
  8289 ;;                  1    wreg      void 
  8290 ;; Registers used:
  8291 ;;		wreg, fsr1l, fsr1h, status,2, status,0
  8292 ;; Tracked objects:
  8293 ;;		On entry : 0/0
  8294 ;;		On exit  : 0/0
  8295 ;;		Unchanged: 0/0
  8296 ;; Data sizes:     COMMON   BANK0   BANK1   BANK2   BANK3   BANK4   BANK5   BANK6
  8297 ;;      Params:         0       0       0       0       0       0       0       0
  8298 ;;      Locals:         1       0       0       0       0       0       0       0
  8299 ;;      Temps:          0       0       0       0       0       0       0       0
  8300 ;;      Totals:         1       0       0       0       0       0       0       0
  8301 ;;Total ram usage:        1 bytes
  8302 ;; Hardware stack levels used:    1
  8303 ;; Hardware stack levels required when called:    4
  8304 ;; This function calls:
  8305 ;;		Nothing
  8306 ;; This function is called by:
  8307 ;;		_Sensor_autoCalibration
  8308 ;; This function uses a non-reentrant model
  8309 ;;
  8310                           
  8311                           
  8312                           ;psect for function _Sensor_setCalibrated
  8313  0891                     _Sensor_setCalibrated:	
  8314                           
  8315                           ;incstack = 0
  8316                           ; Regs used in _Sensor_setCalibrated: [wreg+fsr1l+fsr1h+status,2+status,0]
  8317                           ;Sensor_setCalibrated@sensor stored from wreg
  8318  0891  00F1               	movwf	Sensor_setCalibrated@sensor
  8319  0892                     l2879:	
  8320                           
  8321                           ;mcc_generated_files/mtouch/mtouch_sensor.c: 908: static __attribute__((inline)) void Se
      +                          nsor_setCalibrated(mtouch_sensor_t* sensor);mcc_generated_files/mtouch/mtouch_sensor.c: 
      +                          909: {;mcc_generated_files/mtouch/mtouch_sensor.c: 910:     sensor->calibrated = 1;
  8322  0892  0871               	movf	Sensor_setCalibrated@sensor,w
  8323  0893  3E08               	addlw	8
  8324  0894  0086               	movwf	6
  8325  0895  0187               	clrf	7
  8326  0896  1501               	bsf	1,2
  8327                           
  8328                           ;mcc_generated_files/mtouch/mtouch_sensor.c: 911:     sensor->acqTime_cal = 0;
  8329  0897  0871               	movf	Sensor_setCalibrated@sensor,w
  8330  0898  3E08               	addlw	8
  8331  0899  0086               	movwf	6
  8332  089A  0187               	clrf	7
  8333  089B  1201               	bcf	1,4
  8334  089C                     l503:	
  8335  089C  0008               	return
  8336  089D                     __end_of_Sensor_setCalibrated:	
  8337                           
  8338                           	psect	text48
  8339  089D                     __ptext48:	
  8340 ;; *************** function _Sensor_setCalibratAcqTime *****************
  8341 ;; Defined at:
  8342 ;;		line 914 in file "mcc_generated_files/mtouch/mtouch_sensor.c"
  8343 ;; Parameters:    Size  Location     Type
  8344 ;;  sensor          1    wreg     PTR struct .
  8345 ;;		 -> NULL(0), mtouch_sensor(9), 
  8346 ;; Auto vars:     Size  Location     Type
  8347 ;;  sensor          1    1[COMMON] PTR struct .
  8348 ;;		 -> NULL(0), mtouch_sensor(9), 
  8349 ;; Return value:  Size  Location     Type
  8350 ;;                  1    wreg      void 
  8351 ;; Registers used:
  8352 ;;		wreg, fsr1l, fsr1h, status,2, status,0
  8353 ;; Tracked objects:
  8354 ;;		On entry : 0/0
  8355 ;;		On exit  : 0/0
  8356 ;;		Unchanged: 0/0
  8357 ;; Data sizes:     COMMON   BANK0   BANK1   BANK2   BANK3   BANK4   BANK5   BANK6
  8358 ;;      Params:         0       0       0       0       0       0       0       0
  8359 ;;      Locals:         1       0       0       0       0       0       0       0
  8360 ;;      Temps:          0       0       0       0       0       0       0       0
  8361 ;;      Totals:         1       0       0       0       0       0       0       0
  8362 ;;Total ram usage:        1 bytes
  8363 ;; Hardware stack levels used:    1
  8364 ;; Hardware stack levels required when called:    4
  8365 ;; This function calls:
  8366 ;;		Nothing
  8367 ;; This function is called by:
  8368 ;;		_Sensor_autoCalibration
  8369 ;; This function uses a non-reentrant model
  8370 ;;
  8371                           
  8372                           
  8373                           ;psect for function _Sensor_setCalibratAcqTime
  8374  089D                     _Sensor_setCalibratAcqTime:	
  8375                           
  8376                           ;incstack = 0
  8377                           ; Regs used in _Sensor_setCalibratAcqTime: [wreg+fsr1l+fsr1h+status,2+status,0]
  8378                           ;Sensor_setCalibratAcqTime@sensor stored from wreg
  8379  089D  00F1               	movwf	Sensor_setCalibratAcqTime@sensor
  8380  089E                     l2877:	
  8381                           
  8382                           ;mcc_generated_files/mtouch/mtouch_sensor.c: 914: static __attribute__((inline)) void Se
      +                          nsor_setCalibratAcqTime(mtouch_sensor_t* sensor);mcc_generated_files/mtouch/mtouch_senso
      +                          r.c: 915: {;mcc_generated_files/mtouch/mtouch_sensor.c: 916:     sensor->acqTime_cal = 1
      +                          ;
  8383  089E  0871               	movf	Sensor_setCalibratAcqTime@sensor,w
  8384  089F  3E08               	addlw	8
  8385  08A0  0086               	movwf	6
  8386  08A1  0187               	clrf	7
  8387  08A2  1601               	bsf	1,4
  8388                           
  8389                           ;mcc_generated_files/mtouch/mtouch_sensor.c: 917:     sensor->acquisition_time = (mtouch
      +                          _sensor_time_t)1;
  8390  08A3  0871               	movf	Sensor_setCalibratAcqTime@sensor,w
  8391  08A4  3E03               	addlw	3
  8392  08A5  0086               	movwf	6
  8393  08A6  0187               	clrf	7
  8394  08A7  0181               	clrf	1
  8395  08A8  0A81               	incf	1,f
  8396  08A9                     l506:	
  8397  08A9  0008               	return
  8398  08AA                     __end_of_Sensor_setCalibratAcqTime:	
  8399                           
  8400                           	psect	text49
  8401  0878                     __ptext49:	
  8402 ;; *************** function _Sensor_isCalibratingAcqTime *****************
  8403 ;; Defined at:
  8404 ;;		line 920 in file "mcc_generated_files/mtouch/mtouch_sensor.c"
  8405 ;; Parameters:    Size  Location     Type
  8406 ;;  sensor          1    wreg     PTR struct .
  8407 ;;		 -> NULL(0), mtouch_sensor(9), 
  8408 ;; Auto vars:     Size  Location     Type
  8409 ;;  sensor          1    1[COMMON] PTR struct .
  8410 ;;		 -> NULL(0), mtouch_sensor(9), 
  8411 ;; Return value:  Size  Location     Type
  8412 ;;                  1    wreg      _Bool 
  8413 ;; Registers used:
  8414 ;;		wreg, fsr1l, fsr1h, status,2, status,0
  8415 ;; Tracked objects:
  8416 ;;		On entry : 0/0
  8417 ;;		On exit  : 0/0
  8418 ;;		Unchanged: 0/0
  8419 ;; Data sizes:     COMMON   BANK0   BANK1   BANK2   BANK3   BANK4   BANK5   BANK6
  8420 ;;      Params:         0       0       0       0       0       0       0       0
  8421 ;;      Locals:         1       0       0       0       0       0       0       0
  8422 ;;      Temps:          0       0       0       0       0       0       0       0
  8423 ;;      Totals:         1       0       0       0       0       0       0       0
  8424 ;;Total ram usage:        1 bytes
  8425 ;; Hardware stack levels used:    1
  8426 ;; Hardware stack levels required when called:    4
  8427 ;; This function calls:
  8428 ;;		Nothing
  8429 ;; This function is called by:
  8430 ;;		_Sensor_loadADCSettings
  8431 ;;		_Sensor_autoCalibration
  8432 ;; This function uses a non-reentrant model
  8433 ;;
  8434                           
  8435                           
  8436                           ;psect for function _Sensor_isCalibratingAcqTime
  8437  0878                     _Sensor_isCalibratingAcqTime:	
  8438                           
  8439                           ;incstack = 0
  8440                           ; Regs used in _Sensor_isCalibratingAcqTime: [wreg+fsr1l+fsr1h+status,2+status,0]
  8441                           ;Sensor_isCalibratingAcqTime@sensor stored from wreg
  8442  0878  00F1               	movwf	Sensor_isCalibratingAcqTime@sensor
  8443  0879                     l2873:	
  8444                           
  8445                           ;mcc_generated_files/mtouch/mtouch_sensor.c: 920: static __attribute__((inline)) _Bool S
      +                          ensor_isCalibratingAcqTime(mtouch_sensor_t* sensor);mcc_generated_files/mtouch/mtouch_se
      +                          nsor.c: 921: {;mcc_generated_files/mtouch/mtouch_sensor.c: 922:     return (_Bool)sensor
      +                          ->acqTime_cal;
  8446  0879  0871               	movf	Sensor_isCalibratingAcqTime@sensor,w
  8447  087A  3E08               	addlw	8
  8448  087B  0086               	movwf	6
  8449  087C  0187               	clrf	7
  8450  087D  0E01               	swapf	1,w
  8451  087E  3901               	andlw	1
  8452  087F                     l509:	
  8453  087F  0008               	return
  8454  0880                     __end_of_Sensor_isCalibratingAcqTime:	
  8455                           
  8456                           	psect	text50
  8457  0C98                     __ptext50:	
  8458 ;; *************** function _Sensor_getScanGroupIndex *****************
  8459 ;; Defined at:
  8460 ;;		line 337 in file "mcc_generated_files/mtouch/mtouch_sensor.c"
  8461 ;; Parameters:    Size  Location     Type
  8462 ;;  sensor          1    wreg     PTR struct .
  8463 ;;		 -> NULL(0), mtouch_sensor(9), 
  8464 ;; Auto vars:     Size  Location     Type
  8465 ;;  sensor          1    3[COMMON] PTR struct .
  8466 ;;		 -> NULL(0), mtouch_sensor(9), 
  8467 ;;  sensorGroup     1    4[COMMON] unsigned char 
  8468 ;; Return value:  Size  Location     Type
  8469 ;;                  1    wreg      unsigned char 
  8470 ;; Registers used:
  8471 ;;		wreg, fsr0l, fsr0h, status,2, status,0, pclath
  8472 ;; Tracked objects:
  8473 ;;		On entry : 0/0
  8474 ;;		On exit  : 0/0
  8475 ;;		Unchanged: 0/0
  8476 ;; Data sizes:     COMMON   BANK0   BANK1   BANK2   BANK3   BANK4   BANK5   BANK6
  8477 ;;      Params:         0       0       0       0       0       0       0       0
  8478 ;;      Locals:         2       0       0       0       0       0       0       0
  8479 ;;      Temps:          2       0       0       0       0       0       0       0
  8480 ;;      Totals:         4       0       0       0       0       0       0       0
  8481 ;;Total ram usage:        4 bytes
  8482 ;; Hardware stack levels used:    1
  8483 ;; Hardware stack levels required when called:    4
  8484 ;; This function calls:
  8485 ;;		Nothing
  8486 ;; This function is called by:
  8487 ;;		_Sensor_postAcquisitionProcess
  8488 ;;		_Sensor_autoCalibration
  8489 ;;		_Sensor_RawSample_Update
  8490 ;; This function uses a non-reentrant model
  8491 ;;
  8492                           
  8493                           
  8494                           ;psect for function _Sensor_getScanGroupIndex
  8495  0C98                     _Sensor_getScanGroupIndex:	
  8496                           
  8497                           ;incstack = 0
  8498                           ; Regs used in _Sensor_getScanGroupIndex: [wreg-fsr0h+status,2+status,0+pclath]
  8499                           ;Sensor_getScanGroupIndex@sensor stored from wreg
  8500  0C98  00F3               	movwf	Sensor_getScanGroupIndex@sensor
  8501  0C99                     l2841:	
  8502                           
  8503                           ;mcc_generated_files/mtouch/mtouch_sensor.c: 337: static uint8_t Sensor_getScanGroupInde
      +                          x(mtouch_sensor_t* sensor);mcc_generated_files/mtouch/mtouch_sensor.c: 338: {;mcc_genera
      +                          ted_files/mtouch/mtouch_sensor.c: 339:     uint8_t sensorGroup;;mcc_generated_files/mtou
      +                          ch/mtouch_sensor.c: 340:     for(sensorGroup = 0; sensorGroup < 1u; sensorGroup++)
  8504  0C99  01F4               	clrf	Sensor_getScanGroupIndex@sensorGroup
  8505  0C9A                     l2847:	
  8506                           
  8507                           ;mcc_generated_files/mtouch/mtouch_sensor.c: 341:     {;mcc_generated_files/mtouch/mtouc
      +                          h_sensor.c: 342:         if(sensor_scan_group[sensorGroup].sensor_adc1 == sensor)
  8508  0C9A  0874               	movf	Sensor_getScanGroupIndex@sensorGroup,w
  8509  0C9B  00F1               	movwf	??_Sensor_getScanGroupIndex
  8510  0C9C  01F2               	clrf	??_Sensor_getScanGroupIndex+1
  8511  0C9D  35F1               	lslf	??_Sensor_getScanGroupIndex,f
  8512  0C9E  0DF2               	rlf	??_Sensor_getScanGroupIndex+1,f
  8513  0C9F  3017               	movlw	low (_sensor_scan_group| (0+32768))
  8514  0CA0  0771               	addwf	??_Sensor_getScanGroupIndex,w
  8515  0CA1  0084               	movwf	4
  8516  0CA2  3090               	movlw	high (_sensor_scan_group| (0+32768))
  8517  0CA3  3D72               	addwfc	??_Sensor_getScanGroupIndex+1,w
  8518  0CA4  0085               	movwf	5
  8519  0CA5  0800               	movf	0,w	;code access
  8520  0CA6  0673               	xorwf	Sensor_getScanGroupIndex@sensor,w
  8521  0CA7  1D03               	skipz
  8522  0CA8  2CAA               	goto	u1801
  8523  0CA9  2CAB               	goto	u1800
  8524  0CAA                     u1801:	
  8525  0CAA  2CAD               	goto	l2853
  8526  0CAB                     u1800:	
  8527  0CAB                     l2849:	
  8528                           
  8529                           ;mcc_generated_files/mtouch/mtouch_sensor.c: 343:             return 0;
  8530  0CAB  3000               	movlw	0
  8531  0CAC  2CCA               	goto	l327
  8532  0CAD                     l2853:	
  8533                           
  8534                           ;mcc_generated_files/mtouch/mtouch_sensor.c: 344:         if(sensor_scan_group[sensorGro
      +                          up].sensor_adc2 == sensor)
  8535  0CAD  0874               	movf	Sensor_getScanGroupIndex@sensorGroup,w
  8536  0CAE  00F1               	movwf	??_Sensor_getScanGroupIndex
  8537  0CAF  01F2               	clrf	??_Sensor_getScanGroupIndex+1
  8538  0CB0  35F1               	lslf	??_Sensor_getScanGroupIndex,f
  8539  0CB1  0DF2               	rlf	??_Sensor_getScanGroupIndex+1,f
  8540  0CB2  3018               	movlw	low ((_sensor_scan_group+1)| (0+32768))
  8541  0CB3  0771               	addwf	??_Sensor_getScanGroupIndex,w
  8542  0CB4  0084               	movwf	4
  8543  0CB5  3090               	movlw	high ((_sensor_scan_group+1)| (0+32768))
  8544  0CB6  3D72               	addwfc	??_Sensor_getScanGroupIndex+1,w
  8545  0CB7  0085               	movwf	5
  8546  0CB8  0800               	movf	0,w	;code access
  8547  0CB9  0673               	xorwf	Sensor_getScanGroupIndex@sensor,w
  8548  0CBA  1D03               	skipz
  8549  0CBB  2CBD               	goto	u1811
  8550  0CBC  2CBE               	goto	u1810
  8551  0CBD                     u1811:	
  8552  0CBD  2CC0               	goto	l2859
  8553  0CBE                     u1810:	
  8554  0CBE                     l2855:	
  8555                           
  8556                           ;mcc_generated_files/mtouch/mtouch_sensor.c: 345:             return 1;
  8557  0CBE  3001               	movlw	1
  8558  0CBF  2CCA               	goto	l327
  8559  0CC0                     l2859:	
  8560                           
  8561                           ;mcc_generated_files/mtouch/mtouch_sensor.c: 346:     }
  8562  0CC0  3001               	movlw	1
  8563  0CC1  00F1               	movwf	??_Sensor_getScanGroupIndex
  8564  0CC2  0871               	movf	??_Sensor_getScanGroupIndex,w
  8565  0CC3  07F4               	addwf	Sensor_getScanGroupIndex@sensorGroup,f
  8566  0CC4  0874               	movf	Sensor_getScanGroupIndex@sensorGroup,w
  8567  0CC5  1903               	btfsc	3,2
  8568  0CC6  2CC8               	goto	u1821
  8569  0CC7  2CC9               	goto	u1820
  8570  0CC8                     u1821:	
  8571  0CC8  2C9A               	goto	l2847
  8572  0CC9                     u1820:	
  8573  0CC9  2CAB               	goto	l2849
  8574  0CCA                     l327:	
  8575  0CCA  0008               	return
  8576  0CCB                     __end_of_Sensor_getScanGroupIndex:	
  8577                           
  8578                           	psect	text51
  8579  08D7                     __ptext51:	
  8580 ;; *************** function _MTOUCH_Sensor_Scan_Initialize *****************
  8581 ;; Defined at:
  8582 ;;		line 222 in file "mcc_generated_files/mtouch/mtouch_sensor.c"
  8583 ;; Parameters:    Size  Location     Type
  8584 ;;		None
  8585 ;; Auto vars:     Size  Location     Type
  8586 ;;		None
  8587 ;; Return value:  Size  Location     Type
  8588 ;;                  1    wreg      void 
  8589 ;; Registers used:
  8590 ;;		wreg, status,2, status,0
  8591 ;; Tracked objects:
  8592 ;;		On entry : 0/0
  8593 ;;		On exit  : 0/0
  8594 ;;		Unchanged: 0/0
  8595 ;; Data sizes:     COMMON   BANK0   BANK1   BANK2   BANK3   BANK4   BANK5   BANK6
  8596 ;;      Params:         0       0       0       0       0       0       0       0
  8597 ;;      Locals:         0       0       0       0       0       0       0       0
  8598 ;;      Temps:          0       0       0       0       0       0       0       0
  8599 ;;      Totals:         0       0       0       0       0       0       0       0
  8600 ;;Total ram usage:        0 bytes
  8601 ;; Hardware stack levels used:    1
  8602 ;; Hardware stack levels required when called:    4
  8603 ;; This function calls:
  8604 ;;		Nothing
  8605 ;; This function is called by:
  8606 ;;		_Sensor_Acq_ExecutePacket
  8607 ;;		_MTOUCH_Initialize
  8608 ;; This function uses a non-reentrant model
  8609 ;;
  8610                           
  8611                           
  8612                           ;psect for function _MTOUCH_Sensor_Scan_Initialize
  8613  08D7                     _MTOUCH_Sensor_Scan_Initialize:	
  8614  08D7                     l2881:	
  8615                           ;incstack = 0
  8616                           ; Regs used in _MTOUCH_Sensor_Scan_Initialize: [wreg+status,2+status,0]
  8617                           
  8618                           
  8619                           ;mcc_generated_files/mtouch/mtouch_sensor.c: 224:     T2CONbits.T2CKPS = 0x0;
  8620  08D7  30FC               	movlw	-4
  8621  08D8  0020               	movlb	0	; select bank0
  8622  08D9  059C               	andwf	28,f	;volatile
  8623  08DA                     l2883:	
  8624                           
  8625                           ;mcc_generated_files/mtouch/mtouch_sensor.c: 226:     AD1CON0 = (uint8_t)0;
  8626  08DA  002E               	movlb	14	; select bank14
  8627  08DB  0191               	clrf	17	;volatile
  8628  08DC                     l2885:	
  8629                           
  8630                           ;mcc_generated_files/mtouch/mtouch_sensor.c: 227:     AD2CON0 = (uint8_t)0;
  8631  08DC  002F               	movlb	15	; select bank15
  8632  08DD  0191               	clrf	17	;volatile
  8633  08DE                     l2887:	
  8634                           
  8635                           ;mcc_generated_files/mtouch/mtouch_sensor.c: 228:     ADCOMCON = (uint8_t)( 0x1<<7 | 0x0
      +                          <<4 | 0x0 );
  8636  08DE  3080               	movlw	128
  8637  08DF  002E               	movlb	14	; select bank14
  8638  08E0  0092               	movwf	18	;volatile
  8639  08E1                     l2889:	
  8640                           
  8641                           ;mcc_generated_files/mtouch/mtouch_sensor.c: 229:     AD1CON3 = (uint8_t)0b01000000;
  8642  08E1  3040               	movlw	64
  8643  08E2  0094               	movwf	20	;volatile
  8644  08E3                     l2891:	
  8645                           
  8646                           ;mcc_generated_files/mtouch/mtouch_sensor.c: 230:     AD2CON3 = (uint8_t)0b01000000;
  8647  08E3  3040               	movlw	64
  8648  08E4  002F               	movlb	15	; select bank15
  8649  08E5  0094               	movwf	20	;volatile
  8650  08E6                     l287:	
  8651  08E6  0008               	return
  8652  08E7                     __end_of_MTOUCH_Sensor_Scan_Initialize:	
  8653                           
  8654                           	psect	text52
  8655  0819                     __ptext52:	
  8656 ;; *************** function _MTOUCH_Proximity_ServiceAll *****************
  8657 ;; Defined at:
  8658 ;;		line 168 in file "mcc_generated_files/mtouch/mtouch_proximity.c"
  8659 ;; Parameters:    Size  Location     Type
  8660 ;;		None
  8661 ;; Auto vars:     Size  Location     Type
  8662 ;;		None
  8663 ;; Return value:  Size  Location     Type
  8664 ;;                  1    wreg      void 
  8665 ;; Registers used:
  8666 ;;		wreg, fsr1l, fsr1h, status,2, status,0, pclath, cstack
  8667 ;; Tracked objects:
  8668 ;;		On entry : 0/0
  8669 ;;		On exit  : 0/0
  8670 ;;		Unchanged: 0/0
  8671 ;; Data sizes:     COMMON   BANK0   BANK1   BANK2   BANK3   BANK4   BANK5   BANK6
  8672 ;;      Params:         0       0       0       0       0       0       0       0
  8673 ;;      Locals:         0       0       0       0       0       0       0       0
  8674 ;;      Temps:          0       0       0       0       0       0       0       0
  8675 ;;      Totals:         0       0       0       0       0       0       0       0
  8676 ;;Total ram usage:        0 bytes
  8677 ;; Hardware stack levels used:    1
  8678 ;; Hardware stack levels required when called:    9
  8679 ;; This function calls:
  8680 ;;		_Proximity_Service
  8681 ;; This function is called by:
  8682 ;;		_MTOUCH_Service_Mainloop
  8683 ;; This function uses a non-reentrant model
  8684 ;;
  8685                           
  8686                           
  8687                           ;psect for function _MTOUCH_Proximity_ServiceAll
  8688  0819                     _MTOUCH_Proximity_ServiceAll:	
  8689  0819                     l4587:	
  8690                           ;incstack = 0
  8691                           ; Regs used in _MTOUCH_Proximity_ServiceAll: [wreg+fsr1l+fsr1h+status,2+status,0+pclath+
      +                          cstack]
  8692                           
  8693                           
  8694                           ;mcc_generated_files/mtouch/mtouch_proximity.c: 171:     Proximity_Service(Proximity0);
  8695  0819  3000               	movlw	0
  8696  081A  318D  2580  3188   	fcall	_Proximity_Service
  8697  081D                     l609:	
  8698  081D  0008               	return
  8699  081E                     __end_of_MTOUCH_Proximity_ServiceAll:	
  8700                           
  8701                           	psect	text53
  8702  0D80                     __ptext53:	
  8703 ;; *************** function _Proximity_Service *****************
  8704 ;; Defined at:
  8705 ;;		line 179 in file "mcc_generated_files/mtouch/mtouch_proximity.c"
  8706 ;; Parameters:    Size  Location     Type
  8707 ;;  name            1    wreg     enum E3067
  8708 ;; Auto vars:     Size  Location     Type
  8709 ;;  name            1   20[BANK0 ] enum E3067
  8710 ;;  prox            1   21[BANK0 ] PTR struct .
  8711 ;;		 -> mtouch_proximity(18), 
  8712 ;; Return value:  Size  Location     Type
  8713 ;;                  1    wreg      void 
  8714 ;; Registers used:
  8715 ;;		wreg, fsr1l, fsr1h, status,2, status,0, pclath, cstack
  8716 ;; Tracked objects:
  8717 ;;		On entry : 0/0
  8718 ;;		On exit  : 0/0
  8719 ;;		Unchanged: 0/0
  8720 ;; Data sizes:     COMMON   BANK0   BANK1   BANK2   BANK3   BANK4   BANK5   BANK6
  8721 ;;      Params:         0       0       0       0       0       0       0       0
  8722 ;;      Locals:         0       2       0       0       0       0       0       0
  8723 ;;      Temps:          1       0       0       0       0       0       0       0
  8724 ;;      Totals:         1       2       0       0       0       0       0       0
  8725 ;;Total ram usage:        3 bytes
  8726 ;; Hardware stack levels used:    1
  8727 ;; Hardware stack levels required when called:    8
  8728 ;; This function calls:
  8729 ;;		_MTOUCH_Proximity_Initialize
  8730 ;;		_MTOUCH_Sensor_isCalibrated
  8731 ;;		_MTOUCH_Sensor_wasSampled
  8732 ;;		_Proximity_Deviation_Update
  8733 ;;		_Proximity_Reading_Update
  8734 ;;		_Proximity_State_Activated
  8735 ;;		_Proximity_State_Initializing
  8736 ;;		_Proximity_State_NotActivated
  8737 ;; This function is called by:
  8738 ;;		_MTOUCH_Proximity_ServiceAll
  8739 ;; This function uses a non-reentrant model
  8740 ;;
  8741                           
  8742                           
  8743                           ;psect for function _Proximity_Service
  8744  0D80                     _Proximity_Service:	
  8745                           
  8746                           ;incstack = 0
  8747                           ; Regs used in _Proximity_Service: [wreg+fsr1l+fsr1h+status,2+status,0+pclath+cstack]
  8748                           ;Proximity_Service@name stored from wreg
  8749  0D80  0020               	movlb	0	; select bank0
  8750  0D81  00B4               	movwf	Proximity_Service@name
  8751  0D82                     l4557:	
  8752                           
  8753                           ;mcc_generated_files/mtouch/mtouch_proximity.c: 179: static void Proximity_Service(enum 
      +                          mtouch_proximity_names name);mcc_generated_files/mtouch/mtouch_proximity.c: 180: {;mcc_g
      +                          enerated_files/mtouch/mtouch_proximity.c: 181:     mtouch_proximity_t* prox = &mtouch_pr
      +                          oximity[name];
  8754  0D82  0E34               	swapf	Proximity_Service@name,w
  8755  0D83  39F0               	andlw	240
  8756  0D84  0734               	addwf	Proximity_Service@name,w
  8757  0D85  0734               	addwf	Proximity_Service@name,w
  8758  0D86  3E58               	addlw	(low (_mtouch_proximity| 0))& (0+255)
  8759  0D87  00FB               	movwf	??_Proximity_Service
  8760  0D88  087B               	movf	??_Proximity_Service,w
  8761  0D89  00B5               	movwf	Proximity_Service@prox
  8762  0D8A                     l4559:	
  8763                           
  8764                           ;mcc_generated_files/mtouch/mtouch_proximity.c: 183:     if (MTOUCH_Sensor_wasSampled(pr
      +                          ox->sensor) && MTOUCH_Sensor_isCalibrated(prox->sensor))
  8765  0D8A  0A35               	incf	Proximity_Service@prox,w
  8766  0D8B  0086               	movwf	6
  8767  0D8C  0187               	clrf	7
  8768  0D8D  0801               	movf	1,w
  8769  0D8E  3188  20AA  318D   	fcall	_MTOUCH_Sensor_wasSampled
  8770  0D91  3A00               	xorlw	0
  8771  0D92  1903               	skipnz
  8772  0D93  2D95               	goto	u4221
  8773  0D94  2D96               	goto	u4220
  8774  0D95                     u4221:	
  8775  0D95  2DD1               	goto	l614
  8776  0D96                     u4220:	
  8777  0D96                     l4561:	
  8778  0D96  0020               	movlb	0	; select bank0
  8779  0D97  0A35               	incf	Proximity_Service@prox,w
  8780  0D98  0086               	movwf	6
  8781  0D99  0187               	clrf	7
  8782  0D9A  0801               	movf	1,w
  8783  0D9B  3189  21EC  318D   	fcall	_MTOUCH_Sensor_isCalibrated
  8784  0D9E  3A00               	xorlw	0
  8785  0D9F  1903               	skipnz
  8786  0DA0  2DA2               	goto	u4231
  8787  0DA1  2DA3               	goto	u4230
  8788  0DA2                     u4231:	
  8789  0DA2  2DD1               	goto	l614
  8790  0DA3                     u4230:	
  8791  0DA3                     l4563:	
  8792                           
  8793                           ;mcc_generated_files/mtouch/mtouch_proximity.c: 184:     {;mcc_generated_files/mtouch/mt
      +                          ouch_proximity.c: 185:         Proximity_Reading_Update(prox);
  8794  0DA3  0020               	movlb	0	; select bank0
  8795  0DA4  0835               	movf	Proximity_Service@prox,w
  8796  0DA5  3189  212A  318D   	fcall	_Proximity_Reading_Update
  8797                           
  8798                           ;mcc_generated_files/mtouch/mtouch_proximity.c: 186:         Proximity_Deviation_Update(
      +                          name);
  8799  0DA8  0020               	movlb	0	; select bank0
  8800  0DA9  0834               	movf	Proximity_Service@name,w
  8801  0DAA  3182  2281  318D   	fcall	_Proximity_Deviation_Update
  8802  0DAD                     l4565:	
  8803                           
  8804                           ;mcc_generated_files/mtouch/mtouch_proximity.c: 188:         if (prox->state >= (uint8_t
      +                          )(sizeof(Proximity_StateMachine)/sizeof(proximity_statemachine_state_t)))
  8805  0DAD  0020               	movlb	0	; select bank0
  8806  0DAE  0835               	movf	Proximity_Service@prox,w
  8807  0DAF  3E02               	addlw	2
  8808  0DB0  0086               	movwf	6
  8809  0DB1  0187               	clrf	7
  8810  0DB2  3003               	movlw	3
  8811  0DB3  0201               	subwf	1,w
  8812  0DB4  1C03               	skipc
  8813  0DB5  2DB7               	goto	u4241
  8814  0DB6  2DB8               	goto	u4240
  8815  0DB7                     u4241:	
  8816  0DB7  2DBF               	goto	l613
  8817  0DB8                     u4240:	
  8818  0DB8                     l4567:	
  8819                           
  8820                           ;mcc_generated_files/mtouch/mtouch_proximity.c: 189:         {;mcc_generated_files/mtouc
      +                          h/mtouch_proximity.c: 190:             MTOUCH_Proximity_Initialize(prox->name);
  8821  0DB8  0835               	movf	Proximity_Service@prox,w
  8822  0DB9  0086               	movwf	6
  8823  0DBA  0187               	clrf	7
  8824  0DBB  0801               	movf	1,w
  8825  0DBC  318B  239F  318D   	fcall	_MTOUCH_Proximity_Initialize
  8826  0DBF                     l613:	
  8827                           ;mcc_generated_files/mtouch/mtouch_proximity.c: 191:         }
  8828                           
  8829                           
  8830                           ;mcc_generated_files/mtouch/mtouch_proximity.c: 192:         Proximity_StateMachine[prox
      +                          ->state](prox);
  8831  0DBF  0020               	movlb	0	; select bank0
  8832  0DC0  0835               	movf	Proximity_Service@prox,w
  8833  0DC1  00FB               	movwf	??_Proximity_Service
  8834  0DC2  087B               	movf	??_Proximity_Service,w
  8835  0DC3  00A5               	movwf	Proximity_State_Activated@prox
  8836  0DC4  0835               	movf	Proximity_Service@prox,w
  8837  0DC5  3E02               	addlw	2
  8838  0DC6  0086               	movwf	6
  8839  0DC7  0187               	clrf	7
  8840  0DC8  3501               	lslf	1,w
  8841  0DC9  3EB3               	addlw	(low (_Proximity_StateMachine| 0))& (0+255)
  8842  0DCA  0086               	movwf	6
  8843  0DCB  0187               	clrf	7
  8844  0DCC  3F41               	moviw [1]fsr1
  8845  0DCD  008A               	movwf	10
  8846  0DCE  3F40               	moviw [0]fsr1
  8847  0DCF  000A               	callw
  8848  0DD0  318D               	pagesel	$
  8849  0DD1                     l614:	
  8850  0DD1  0008               	return
  8851  0DD2                     __end_of_Proximity_Service:	
  8852                           
  8853                           	psect	text54
  8854  0F03                     __ptext54:	
  8855 ;; *************** function _Proximity_State_Activated *****************
  8856 ;; Defined at:
  8857 ;;		line 250 in file "mcc_generated_files/mtouch/mtouch_proximity.c"
  8858 ;; Parameters:    Size  Location     Type
  8859 ;;  prox            1    5[BANK0 ] PTR struct .
  8860 ;;		 -> mtouch_proximity(18), 
  8861 ;; Auto vars:     Size  Location     Type
  8862 ;;		None
  8863 ;; Return value:  Size  Location     Type
  8864 ;;                  1    wreg      void 
  8865 ;; Registers used:
  8866 ;;		wreg, fsr1l, fsr1h, status,2, status,0, pclath, cstack
  8867 ;; Tracked objects:
  8868 ;;		On entry : 0/0
  8869 ;;		On exit  : 0/0
  8870 ;;		Unchanged: 0/0
  8871 ;; Data sizes:     COMMON   BANK0   BANK1   BANK2   BANK3   BANK4   BANK5   BANK6
  8872 ;;      Params:         0       1       0       0       0       0       0       0
  8873 ;;      Locals:         0       0       0       0       0       0       0       0
  8874 ;;      Temps:          0       6       0       0       0       0       0       0
  8875 ;;      Totals:         0       7       0       0       0       0       0       0
  8876 ;;Total ram usage:        7 bytes
  8877 ;; Hardware stack levels used:    1
  8878 ;; Hardware stack levels required when called:    5
  8879 ;; This function calls:
  8880 ;;		_MTOUCH_Proximity_Initialize
  8881 ;;		_Proximity_DefaultCallback
  8882 ;; This function is called by:
  8883 ;;		_Proximity_Service
  8884 ;; This function uses a non-reentrant model
  8885 ;;
  8886                           
  8887                           
  8888                           ;psect for function _Proximity_State_Activated
  8889  0F03                     _Proximity_State_Activated:	
  8890  0F03                     l3513:	
  8891                           ;incstack = 0
  8892                           ; Regs used in _Proximity_State_Activated: [wreg+fsr1l+fsr1h+status,2+status,0+pclath+cs
      +                          tack]
  8893                           
  8894                           
  8895                           ;mcc_generated_files/mtouch/mtouch_proximity.c: 250: static void Proximity_State_Activat
      +                          ed(mtouch_proximity_t* prox);mcc_generated_files/mtouch/mtouch_proximity.c: 251: {;mcc_g
      +                          enerated_files/mtouch/mtouch_proximity.c: 253:     if ((prox->counter) >= ((mtouch_prox_
      +                          statecounter_t)1000u))
  8896  0F03  0020               	movlb	0	; select bank0
  8897  0F04  0825               	movf	Proximity_State_Activated@prox,w
  8898  0F05  3E0C               	addlw	12
  8899  0F06  0086               	movwf	6
  8900  0F07  0187               	clrf	7
  8901  0F08  3F40               	moviw [0]fsr1
  8902  0F09  00A6               	movwf	??_Proximity_State_Activated
  8903  0F0A  3F41               	moviw [1]fsr1
  8904  0F0B  00A7               	movwf	??_Proximity_State_Activated+1
  8905  0F0C  3003               	movlw	3
  8906  0F0D  0227               	subwf	??_Proximity_State_Activated+1,w
  8907  0F0E  30E8               	movlw	232
  8908  0F0F  1903               	skipnz
  8909  0F10  0226               	subwf	??_Proximity_State_Activated,w
  8910  0F11  1C03               	skipc
  8911  0F12  2F14               	goto	u2851
  8912  0F13  2F15               	goto	u2850
  8913  0F14                     u2851:	
  8914  0F14  2F28               	goto	l3517
  8915  0F15                     u2850:	
  8916  0F15                     l3515:	
  8917                           
  8918                           ;mcc_generated_files/mtouch/mtouch_proximity.c: 254:     {;mcc_generated_files/mtouch/mt
      +                          ouch_proximity.c: 255:         MTOUCH_Proximity_Initialize(prox->name);
  8919  0F15  0825               	movf	Proximity_State_Activated@prox,w
  8920  0F16  0086               	movwf	6
  8921  0F17  0187               	clrf	7
  8922  0F18  0801               	movf	1,w
  8923  0F19  318B  239F  318F   	fcall	_MTOUCH_Proximity_Initialize
  8924                           
  8925                           ;mcc_generated_files/mtouch/mtouch_proximity.c: 256:         callback_notActivated(prox-
      +                          >name);
  8926  0F1C  0020               	movlb	0	; select bank0
  8927  0F1D  0825               	movf	Proximity_State_Activated@prox,w
  8928  0F1E  0086               	movwf	6
  8929  0F1F  0187               	clrf	7
  8930  0F20  0801               	movf	1,w
  8931  0F21  00A6               	movwf	??_Proximity_State_Activated
  8932  0F22  0826               	movf	??_Proximity_State_Activated,w
  8933  0F23  00F1               	movwf	Proximity_DefaultCallback@name
  8934  0F24  3188  2000  318F   	fcall	_Proximity_DefaultCallback
  8935                           
  8936                           ;mcc_generated_files/mtouch/mtouch_proximity.c: 257:     }
  8937  0F27  2F7E               	goto	l635
  8938  0F28                     l3517:	
  8939  0F28  0825               	movf	Proximity_State_Activated@prox,w
  8940  0F29  3E10               	addlw	16
  8941  0F2A  0086               	movwf	6
  8942  0F2B  0187               	clrf	7
  8943  0F2C  0801               	movf	1,w
  8944  0F2D  00A6               	movwf	??_Proximity_State_Activated
  8945  0F2E  3001               	movlw	1
  8946  0F2F                     u2865:	
  8947  0F2F  1003               	clrc
  8948  0F30  1BA6               	btfsc	??_Proximity_State_Activated,7
  8949  0F31  1403               	setc
  8950  0F32  0CA6               	rrf	??_Proximity_State_Activated,f
  8951  0F33  0B89               	decfsz	9,f
  8952  0F34  2F2F               	goto	u2865
  8953  0F35  0825               	movf	Proximity_State_Activated@prox,w
  8954  0F36  3E10               	addlw	16
  8955  0F37  0086               	movwf	6
  8956  0F38  0187               	clrf	7
  8957  0F39  0826               	movf	??_Proximity_State_Activated,w
  8958  0F3A  0201               	subwf	1,w
  8959  0F3B  00A7               	movwf	??_Proximity_State_Activated+1
  8960  0F3C  01A8               	clrf	??_Proximity_State_Activated+2
  8961  0F3D  1C03               	skipc
  8962  0F3E  03A8               	decf	??_Proximity_State_Activated+2,f
  8963  0F3F  1F81               	btfss	1,7
  8964  0F40  2F42               	goto	u2875n
  8965  0F41  03A8               	decf	??_Proximity_State_Activated+2,f
  8966  0F42                     u2875n:	
  8967  0F42  0020               	movlb	0	; select bank0
  8968  0F43  1FA6               	btfss	??_Proximity_State_Activated,7
  8969  0F44  2F46               	goto	u2875o
  8970  0F45  0AA8               	incf	??_Proximity_State_Activated+2,f
  8971  0F46                     u2875o:	
  8972  0F46  0020               	movlb	0	; select bank0
  8973  0F47  0825               	movf	Proximity_State_Activated@prox,w
  8974  0F48  3E0B               	addlw	11
  8975  0F49  0086               	movwf	6
  8976  0F4A  0187               	clrf	7
  8977  0F4B  0801               	movf	1,w
  8978  0F4C  00A9               	movwf	??_Proximity_State_Activated+3
  8979  0F4D  01AA               	clrf	??_Proximity_State_Activated+4
  8980  0F4E  1BA9               	btfsc	??_Proximity_State_Activated+3,7
  8981  0F4F  03AA               	decf	??_Proximity_State_Activated+4,f
  8982  0F50  082A               	movf	??_Proximity_State_Activated+4,w
  8983  0F51  3A80               	xorlw	128
  8984  0F52  00AB               	movwf	??_Proximity_State_Activated+5
  8985  0F53  0828               	movf	??_Proximity_State_Activated+2,w
  8986  0F54  3A80               	xorlw	128
  8987  0F55  022B               	subwf	??_Proximity_State_Activated+5,w
  8988  0F56  1D03               	skipz
  8989  0F57  2F5A               	goto	u2885
  8990  0F58  0827               	movf	??_Proximity_State_Activated+1,w
  8991  0F59  0229               	subwf	??_Proximity_State_Activated+3,w
  8992  0F5A                     u2885:	
  8993  0F5A  1803               	skipnc
  8994  0F5B  2F5D               	goto	u2881
  8995  0F5C  2F5E               	goto	u2880
  8996  0F5D                     u2881:	
  8997  0F5D  2F7E               	goto	l635
  8998  0F5E                     u2880:	
  8999  0F5E                     l3519:	
  9000                           
  9001                           ;mcc_generated_files/mtouch/mtouch_proximity.c: 261:     {;mcc_generated_files/mtouch/mt
      +                          ouch_proximity.c: 262:         prox->state = MTOUCH_PROXIMITY_STATE_notActivated;
  9002  0F5E  0020               	movlb	0	; select bank0
  9003  0F5F  0825               	movf	Proximity_State_Activated@prox,w
  9004  0F60  3E02               	addlw	2
  9005  0F61  0086               	movwf	6
  9006  0F62  0187               	clrf	7
  9007  0F63  0181               	clrf	1
  9008  0F64  0A81               	incf	1,f
  9009                           
  9010                           ;mcc_generated_files/mtouch/mtouch_proximity.c: 263:         prox->counter = (mtouch_pro
      +                          x_statecounter_t)0;
  9011  0F65  0825               	movf	Proximity_State_Activated@prox,w
  9012  0F66  3E0C               	addlw	12
  9013  0F67  0086               	movwf	6
  9014  0F68  0187               	clrf	7
  9015  0F69  3000               	movlw	0
  9016  0F6A  3FC0               	movwi [0]fsr1
  9017  0F6B  3FC1               	movwi [1]fsr1
  9018                           
  9019                           ;mcc_generated_files/mtouch/mtouch_proximity.c: 264:         prox->baseline_count = (mto
      +                          uch_prox_baselinecounter_t)((0xffff))-((mtouch_prox_baselinecounter_t)1024u);
  9020  0F6C  0825               	movf	Proximity_State_Activated@prox,w
  9021  0F6D  3E0E               	addlw	14
  9022  0F6E  0086               	movwf	6
  9023  0F6F  0187               	clrf	7
  9024  0F70  30FF               	movlw	255
  9025  0F71  3FC0               	movwi [0]fsr1
  9026  0F72  30FB               	movlw	251
  9027  0F73  3FC1               	movwi [1]fsr1
  9028  0F74                     l3521:	
  9029                           
  9030                           ;mcc_generated_files/mtouch/mtouch_proximity.c: 265:         callback_notActivated(prox-
      +                          >name);
  9031  0F74  0825               	movf	Proximity_State_Activated@prox,w
  9032  0F75  0086               	movwf	6
  9033  0F76  0187               	clrf	7
  9034  0F77  0801               	movf	1,w
  9035  0F78  00A6               	movwf	??_Proximity_State_Activated
  9036  0F79  0826               	movf	??_Proximity_State_Activated,w
  9037  0F7A  00F1               	movwf	Proximity_DefaultCallback@name
  9038  0F7B  3188  2000  318F   	fcall	_Proximity_DefaultCallback
  9039  0F7E                     l635:	
  9040  0F7E  0008               	return
  9041  0F7F                     __end_of_Proximity_State_Activated:	
  9042                           
  9043                           	psect	text55
  9044  07B5                     __ptext55:	
  9045 ;; *************** function _Proximity_State_Initializing *****************
  9046 ;; Defined at:
  9047 ;;		line 195 in file "mcc_generated_files/mtouch/mtouch_proximity.c"
  9048 ;; Parameters:    Size  Location     Type
  9049 ;;  prox            1    5[BANK0 ] PTR struct .
  9050 ;;		 -> mtouch_proximity(18), 
  9051 ;; Auto vars:     Size  Location     Type
  9052 ;;		None
  9053 ;; Return value:  Size  Location     Type
  9054 ;;                  1    wreg      void 
  9055 ;; Registers used:
  9056 ;;		wreg, fsr1l, fsr1h, status,2, status,0, pclath, cstack
  9057 ;; Tracked objects:
  9058 ;;		On entry : 0/0
  9059 ;;		On exit  : 0/0
  9060 ;;		Unchanged: 0/0
  9061 ;; Data sizes:     COMMON   BANK0   BANK1   BANK2   BANK3   BANK4   BANK5   BANK6
  9062 ;;      Params:         0       1       0       0       0       0       0       0
  9063 ;;      Locals:         0       0       0       0       0       0       0       0
  9064 ;;      Temps:          0       2       0       0       0       0       0       0
  9065 ;;      Totals:         0       3       0       0       0       0       0       0
  9066 ;;Total ram usage:        3 bytes
  9067 ;; Hardware stack levels used:    1
  9068 ;; Hardware stack levels required when called:    7
  9069 ;; This function calls:
  9070 ;;		_Proximity_Baseline_Initialize
  9071 ;;		_Proximity_Baseline_Update
  9072 ;; This function is called by:
  9073 ;;		_Proximity_Service
  9074 ;; This function uses a non-reentrant model
  9075 ;;
  9076                           
  9077                           
  9078                           ;psect for function _Proximity_State_Initializing
  9079  07B5                     _Proximity_State_Initializing:	
  9080  07B5                     l4469:	
  9081                           ;incstack = 0
  9082                           ; Regs used in _Proximity_State_Initializing: [wreg+fsr1l+fsr1h+status,2+status,0+pclath
      +                          +cstack]
  9083                           
  9084                           
  9085                           ;mcc_generated_files/mtouch/mtouch_proximity.c: 195: static void Proximity_State_Initial
      +                          izing(mtouch_proximity_t* prox);mcc_generated_files/mtouch/mtouch_proximity.c: 196: {;mc
      +                          c_generated_files/mtouch/mtouch_proximity.c: 198:     if ((prox->counter) <= (mtouch_pro
      +                          x_statecounter_t)((mtouch_prox_baselinecounter_t)16u)/2)
  9086  07B5  0020               	movlb	0	; select bank0
  9087  07B6  0825               	movf	Proximity_State_Initializing@prox,w
  9088  07B7  3E0C               	addlw	12
  9089  07B8  0086               	movwf	6
  9090  07B9  0187               	clrf	7
  9091  07BA  3F40               	moviw [0]fsr1
  9092  07BB  00A6               	movwf	??_Proximity_State_Initializing
  9093  07BC  3F41               	moviw [1]fsr1
  9094  07BD  00A7               	movwf	??_Proximity_State_Initializing+1
  9095  07BE  3000               	movlw	0
  9096  07BF  0227               	subwf	??_Proximity_State_Initializing+1,w
  9097  07C0  3009               	movlw	9
  9098  07C1  1903               	skipnz
  9099  07C2  0226               	subwf	??_Proximity_State_Initializing,w
  9100  07C3  1803               	skipnc
  9101  07C4  2FC6               	goto	u4131
  9102  07C5  2FC7               	goto	u4130
  9103  07C6                     u4131:	
  9104  07C6  2FCC               	goto	l4473
  9105  07C7                     u4130:	
  9106  07C7                     l4471:	
  9107                           
  9108                           ;mcc_generated_files/mtouch/mtouch_proximity.c: 199:     {;mcc_generated_files/mtouch/mt
      +                          ouch_proximity.c: 200:         Proximity_Baseline_Initialize(prox);
  9109  07C7  0825               	movf	Proximity_State_Initializing@prox,w
  9110  07C8  318C  243F  3187   	fcall	_Proximity_Baseline_Initialize
  9111                           
  9112                           ;mcc_generated_files/mtouch/mtouch_proximity.c: 201:     } else {
  9113  07CB  2FD0               	goto	l4475
  9114  07CC                     l4473:	
  9115                           
  9116                           ;mcc_generated_files/mtouch/mtouch_proximity.c: 202:         Proximity_Baseline_Update(p
      +                          rox);
  9117  07CC  0825               	movf	Proximity_State_Initializing@prox,w
  9118  07CD  3187  2730  3187   	fcall	_Proximity_Baseline_Update
  9119  07D0                     l4475:	
  9120                           
  9121                           ;mcc_generated_files/mtouch/mtouch_proximity.c: 206:     (prox->counter)++;
  9122  07D0  0020               	movlb	0	; select bank0
  9123  07D1  0825               	movf	Proximity_State_Initializing@prox,w
  9124  07D2  3E0C               	addlw	12
  9125  07D3  0086               	movwf	6
  9126  07D4  0187               	clrf	7
  9127  07D5  3001               	movlw	1
  9128  07D6  0781               	addwf	1,f
  9129  07D7  3141               	addfsr 1,1
  9130  07D8  1803               	skipnc
  9131  07D9  0A81               	incf	1,f
  9132  07DA                     l4477:	
  9133                           
  9134                           ;mcc_generated_files/mtouch/mtouch_proximity.c: 207:     if ((prox->counter) >= (mtouch_
      +                          prox_statecounter_t)((mtouch_prox_baselinecounter_t)16u))
  9135  07DA  0825               	movf	Proximity_State_Initializing@prox,w
  9136  07DB  3E0C               	addlw	12
  9137  07DC  0086               	movwf	6
  9138  07DD  0187               	clrf	7
  9139  07DE  3F40               	moviw [0]fsr1
  9140  07DF  00A6               	movwf	??_Proximity_State_Initializing
  9141  07E0  3F41               	moviw [1]fsr1
  9142  07E1  00A7               	movwf	??_Proximity_State_Initializing+1
  9143  07E2  3000               	movlw	0
  9144  07E3  0227               	subwf	??_Proximity_State_Initializing+1,w
  9145  07E4  3010               	movlw	16
  9146  07E5  1903               	skipnz
  9147  07E6  0226               	subwf	??_Proximity_State_Initializing,w
  9148  07E7  1C03               	skipc
  9149  07E8  2FEA               	goto	u4141
  9150  07E9  2FEB               	goto	u4140
  9151  07EA                     u4141:	
  9152  07EA  2FF8               	goto	l620
  9153  07EB                     u4140:	
  9154  07EB                     l4479:	
  9155                           
  9156                           ;mcc_generated_files/mtouch/mtouch_proximity.c: 208:     {;mcc_generated_files/mtouch/mt
      +                          ouch_proximity.c: 209:         prox->state = MTOUCH_PROXIMITY_STATE_notActivated;
  9157  07EB  0825               	movf	Proximity_State_Initializing@prox,w
  9158  07EC  3E02               	addlw	2
  9159  07ED  0086               	movwf	6
  9160  07EE  0187               	clrf	7
  9161  07EF  0181               	clrf	1
  9162  07F0  0A81               	incf	1,f
  9163                           
  9164                           ;mcc_generated_files/mtouch/mtouch_proximity.c: 210:         prox->counter = (mtouch_pro
      +                          x_statecounter_t)0;
  9165  07F1  0825               	movf	Proximity_State_Initializing@prox,w
  9166  07F2  3E0C               	addlw	12
  9167  07F3  0086               	movwf	6
  9168  07F4  0187               	clrf	7
  9169  07F5  3000               	movlw	0
  9170  07F6  3FC0               	movwi [0]fsr1
  9171  07F7  3FC1               	movwi [1]fsr1
  9172  07F8                     l620:	
  9173  07F8  0008               	return
  9174  07F9                     __end_of_Proximity_State_Initializing:	
  9175                           
  9176                           	psect	text56
  9177  0399                     __ptext56:	
  9178 ;; *************** function _Proximity_State_NotActivated *****************
  9179 ;; Defined at:
  9180 ;;		line 214 in file "mcc_generated_files/mtouch/mtouch_proximity.c"
  9181 ;; Parameters:    Size  Location     Type
  9182 ;;  prox            1    5[BANK0 ] PTR struct .
  9183 ;;		 -> mtouch_proximity(18), 
  9184 ;; Auto vars:     Size  Location     Type
  9185 ;;  deviation       4   13[BANK0 ] long 
  9186 ;; Return value:  Size  Location     Type
  9187 ;;                  1    wreg      void 
  9188 ;; Registers used:
  9189 ;;		wreg, fsr1l, fsr1h, status,2, status,0, pclath, cstack
  9190 ;; Tracked objects:
  9191 ;;		On entry : 0/0
  9192 ;;		On exit  : 0/0
  9193 ;;		Unchanged: 0/0
  9194 ;; Data sizes:     COMMON   BANK0   BANK1   BANK2   BANK3   BANK4   BANK5   BANK6
  9195 ;;      Params:         0       1       0       0       0       0       0       0
  9196 ;;      Locals:         0       4       0       0       0       0       0       0
  9197 ;;      Temps:          0       7       0       0       0       0       0       0
  9198 ;;      Totals:         0      12       0       0       0       0       0       0
  9199 ;;Total ram usage:       12 bytes
  9200 ;; Hardware stack levels used:    1
  9201 ;; Hardware stack levels required when called:    6
  9202 ;; This function calls:
  9203 ;;		_MTOUCH_Proximity_Baseline_Get
  9204 ;;		_MTOUCH_Proximity_Initialize
  9205 ;;		_MTOUCH_Proximity_Reading_Get
  9206 ;;		_Proximity_Baseline_Update
  9207 ;;		_Proximity_DefaultCallback
  9208 ;; This function is called by:
  9209 ;;		_Proximity_Service
  9210 ;; This function uses a non-reentrant model
  9211 ;;
  9212                           
  9213                           
  9214                           ;psect for function _Proximity_State_NotActivated
  9215  0399                     _Proximity_State_NotActivated:	
  9216  0399                     l3491:	
  9217                           ;incstack = 0
  9218                           ; Regs used in _Proximity_State_NotActivated: [wreg+fsr1l+fsr1h+status,2+status,0+pclath
      +                          +cstack]
  9219                           
  9220                           
  9221                           ;mcc_generated_files/mtouch/mtouch_proximity.c: 214: static void Proximity_State_NotActi
      +                          vated(mtouch_proximity_t* prox);mcc_generated_files/mtouch/mtouch_proximity.c: 215: {;mc
      +                          c_generated_files/mtouch/mtouch_proximity.c: 217:     int32_t deviation = (int32_t)((uin
      +                          t32_t)(MTOUCH_Proximity_Reading_Get(prox->name)) - (uint32_t)(MTOUCH_Proximity_Baseline_
      +                          Get(prox->name)));
  9222  0399  0020               	movlb	0	; select bank0
  9223  039A  0825               	movf	Proximity_State_NotActivated@prox,w
  9224  039B  0086               	movwf	6
  9225  039C  0187               	clrf	7
  9226  039D  0801               	movf	1,w
  9227  039E  318A  22D8  3183   	fcall	_MTOUCH_Proximity_Reading_Get
  9228  03A1  0871               	movf	?_MTOUCH_Proximity_Reading_Get,w
  9229  03A2  0020               	movlb	0	; select bank0
  9230  03A3  00A6               	movwf	??_Proximity_State_NotActivated
  9231  03A4  0872               	movf	?_MTOUCH_Proximity_Reading_Get+1,w
  9232  03A5  00A7               	movwf	??_Proximity_State_NotActivated+1
  9233  03A6  0873               	movf	?_MTOUCH_Proximity_Reading_Get+2,w
  9234  03A7  00A8               	movwf	??_Proximity_State_NotActivated+2
  9235  03A8  0874               	movf	?_MTOUCH_Proximity_Reading_Get+3,w
  9236  03A9  00A9               	movwf	??_Proximity_State_NotActivated+3
  9237  03AA  0825               	movf	Proximity_State_NotActivated@prox,w
  9238  03AB  0086               	movwf	6
  9239  03AC  0187               	clrf	7
  9240  03AD  0801               	movf	1,w
  9241  03AE  318A  229C  3183   	fcall	_MTOUCH_Proximity_Baseline_Get
  9242  03B1  0020               	movlb	0	; select bank0
  9243  03B2  0820               	movf	?_MTOUCH_Proximity_Baseline_Get,w
  9244  03B3  02A6               	subwf	??_Proximity_State_NotActivated,f
  9245  03B4  0821               	movf	?_MTOUCH_Proximity_Baseline_Get+1,w
  9246  03B5  3BA7               	subwfb	??_Proximity_State_NotActivated+1,f
  9247  03B6  0822               	movf	?_MTOUCH_Proximity_Baseline_Get+2,w
  9248  03B7  3BA8               	subwfb	??_Proximity_State_NotActivated+2,f
  9249  03B8  0823               	movf	?_MTOUCH_Proximity_Baseline_Get+3,w
  9250  03B9  3BA9               	subwfb	??_Proximity_State_NotActivated+3,f
  9251  03BA  0829               	movf	??_Proximity_State_NotActivated+3,w
  9252  03BB  00B0               	movwf	Proximity_State_NotActivated@deviation+3
  9253  03BC  0828               	movf	??_Proximity_State_NotActivated+2,w
  9254  03BD  00AF               	movwf	Proximity_State_NotActivated@deviation+2
  9255  03BE  0827               	movf	??_Proximity_State_NotActivated+1,w
  9256  03BF  00AE               	movwf	Proximity_State_NotActivated@deviation+1
  9257  03C0  0826               	movf	??_Proximity_State_NotActivated,w
  9258  03C1  00AD               	movwf	Proximity_State_NotActivated@deviation
  9259  03C2                     l3493:	
  9260                           
  9261                           ;mcc_generated_files/mtouch/mtouch_proximity.c: 218:     if (deviation < (int32_t)(-prox
      +                          ->threshold))
  9262  03C2  0825               	movf	Proximity_State_NotActivated@prox,w
  9263  03C3  3E10               	addlw	16
  9264  03C4  0086               	movwf	6
  9265  03C5  0187               	clrf	7
  9266  03C6  0801               	movf	1,w
  9267  03C7  00A6               	movwf	??_Proximity_State_NotActivated
  9268  03C8  01A7               	clrf	??_Proximity_State_NotActivated+1
  9269  03C9  1BA6               	btfsc	??_Proximity_State_NotActivated,7
  9270  03CA  03A7               	decf	??_Proximity_State_NotActivated+1,f
  9271  03CB  09A6               	comf	??_Proximity_State_NotActivated,f
  9272  03CC  09A7               	comf	??_Proximity_State_NotActivated+1,f
  9273  03CD  0AA6               	incf	??_Proximity_State_NotActivated,f
  9274  03CE  1903               	skipnz
  9275  03CF  0AA7               	incf	??_Proximity_State_NotActivated+1,f
  9276  03D0  0826               	movf	??_Proximity_State_NotActivated,w
  9277  03D1  00A8               	movwf	??_Proximity_State_NotActivated+2
  9278  03D2  0827               	movf	??_Proximity_State_NotActivated+1,w
  9279  03D3  00A9               	movwf	??_Proximity_State_NotActivated+3
  9280  03D4  3000               	movlw	0
  9281  03D5  1BA9               	btfsc	??_Proximity_State_NotActivated+3,7
  9282  03D6  30FF               	movlw	255
  9283  03D7  00AA               	movwf	??_Proximity_State_NotActivated+4
  9284  03D8  00AB               	movwf	??_Proximity_State_NotActivated+5
  9285  03D9  0830               	movf	Proximity_State_NotActivated@deviation+3,w
  9286  03DA  3A80               	xorlw	128
  9287  03DB  00AC               	movwf	??_Proximity_State_NotActivated+6
  9288  03DC  082B               	movf	??_Proximity_State_NotActivated+5,w
  9289  03DD  3A80               	xorlw	128
  9290  03DE  022C               	subwf	??_Proximity_State_NotActivated+6,w
  9291  03DF  1D03               	skipz
  9292  03E0  2BEB               	goto	u2813
  9293  03E1  082A               	movf	??_Proximity_State_NotActivated+4,w
  9294  03E2  022F               	subwf	Proximity_State_NotActivated@deviation+2,w
  9295  03E3  1D03               	skipz
  9296  03E4  2BEB               	goto	u2813
  9297  03E5  0829               	movf	??_Proximity_State_NotActivated+3,w
  9298  03E6  022E               	subwf	Proximity_State_NotActivated@deviation+1,w
  9299  03E7  1D03               	skipz
  9300  03E8  2BEB               	goto	u2813
  9301  03E9  0828               	movf	??_Proximity_State_NotActivated+2,w
  9302  03EA  022D               	subwf	Proximity_State_NotActivated@deviation,w
  9303  03EB                     u2813:	
  9304  03EB  1803               	skipnc
  9305  03EC  2BEE               	goto	u2811
  9306  03ED  2BEF               	goto	u2810
  9307  03EE                     u2811:	
  9308  03EE  2C18               	goto	l3501
  9309  03EF                     u2810:	
  9310  03EF                     l3495:	
  9311                           
  9312                           ;mcc_generated_files/mtouch/mtouch_proximity.c: 219:     {;mcc_generated_files/mtouch/mt
      +                          ouch_proximity.c: 220:         (prox->counter)++;
  9313  03EF  0825               	movf	Proximity_State_NotActivated@prox,w
  9314  03F0  3E0C               	addlw	12
  9315  03F1  0086               	movwf	6
  9316  03F2  0187               	clrf	7
  9317  03F3  3001               	movlw	1
  9318  03F4  0781               	addwf	1,f
  9319  03F5  3141               	addfsr 1,1
  9320  03F6  1803               	skipnc
  9321  03F7  0A81               	incf	1,f
  9322                           
  9323                           ;mcc_generated_files/mtouch/mtouch_proximity.c: 221:         if ((prox->counter) > (mtou
      +                          ch_prox_statecounter_t)((mtouch_prox_statecounter_t)32u))
  9324  03F8  0825               	movf	Proximity_State_NotActivated@prox,w
  9325  03F9  3E0C               	addlw	12
  9326  03FA  0086               	movwf	6
  9327  03FB  0187               	clrf	7
  9328  03FC  3F40               	moviw [0]fsr1
  9329  03FD  00A6               	movwf	??_Proximity_State_NotActivated
  9330  03FE  3F41               	moviw [1]fsr1
  9331  03FF  00A7               	movwf	??_Proximity_State_NotActivated+1
  9332  0400  3000               	movlw	0
  9333  0401  0227               	subwf	??_Proximity_State_NotActivated+1,w
  9334  0402  3021               	movlw	33
  9335  0403  1903               	skipnz
  9336  0404  0226               	subwf	??_Proximity_State_NotActivated,w
  9337  0405  1C03               	skipc
  9338  0406  2C08               	goto	u2821
  9339  0407  2C09               	goto	u2820
  9340  0408                     u2821:	
  9341  0408  2C4B               	goto	l625
  9342  0409                     u2820:	
  9343  0409                     l3497:	
  9344                           
  9345                           ;mcc_generated_files/mtouch/mtouch_proximity.c: 222:         {;mcc_generated_files/mtouc
      +                          h/mtouch_proximity.c: 223:             prox->counter = (mtouch_prox_statecounter_t)0;
  9346  0409  0825               	movf	Proximity_State_NotActivated@prox,w
  9347  040A  3E0C               	addlw	12
  9348  040B  0086               	movwf	6
  9349  040C  0187               	clrf	7
  9350  040D  3000               	movlw	0
  9351  040E  3FC0               	movwi [0]fsr1
  9352  040F  3FC1               	movwi [1]fsr1
  9353  0410                     l3499:	
  9354                           
  9355                           ;mcc_generated_files/mtouch/mtouch_proximity.c: 224:             MTOUCH_Proximity_Initia
      +                          lize(prox->name);
  9356  0410  0825               	movf	Proximity_State_NotActivated@prox,w
  9357  0411  0086               	movwf	6
  9358  0412  0187               	clrf	7
  9359  0413  0801               	movf	1,w
  9360  0414  318B  239F  3183   	fcall	_MTOUCH_Proximity_Initialize
  9361  0417  2C4B               	goto	l625
  9362  0418                     l3501:	
  9363  0418  0825               	movf	Proximity_State_NotActivated@prox,w
  9364  0419  3E10               	addlw	16
  9365  041A  0086               	movwf	6
  9366  041B  0187               	clrf	7
  9367  041C  0801               	movf	1,w
  9368  041D  3A80               	xorlw	128
  9369  041E  00A6               	movwf	??_Proximity_State_NotActivated
  9370  041F  0825               	movf	Proximity_State_NotActivated@prox,w
  9371  0420  3E0B               	addlw	11
  9372  0421  0086               	movwf	6
  9373  0422  0187               	clrf	7
  9374  0423  0801               	movf	1,w
  9375  0424  3A80               	xorlw	128
  9376  0425  02A6               	subwf	??_Proximity_State_NotActivated,f
  9377  0426  1803               	skipnc
  9378  0427  2C29               	goto	u2831
  9379  0428  2C2A               	goto	u2830
  9380  0429                     u2831:	
  9381  0429  2C44               	goto	l3507
  9382  042A                     u2830:	
  9383  042A                     l3503:	
  9384                           
  9385                           ;mcc_generated_files/mtouch/mtouch_proximity.c: 229:     {;mcc_generated_files/mtouch/mt
      +                          ouch_proximity.c: 230:         prox->state = MTOUCH_PROXIMITY_STATE_activated;
  9386  042A  3002               	movlw	2
  9387  042B  00A6               	movwf	??_Proximity_State_NotActivated
  9388  042C  0825               	movf	Proximity_State_NotActivated@prox,w
  9389  042D  3E02               	addlw	2
  9390  042E  0086               	movwf	6
  9391  042F  0187               	clrf	7
  9392  0430  0826               	movf	??_Proximity_State_NotActivated,w
  9393  0431  0081               	movwf	1
  9394                           
  9395                           ;mcc_generated_files/mtouch/mtouch_proximity.c: 231:         prox->counter = (mtouch_pro
      +                          x_statecounter_t)0;
  9396  0432  0825               	movf	Proximity_State_NotActivated@prox,w
  9397  0433  3E0C               	addlw	12
  9398  0434  0086               	movwf	6
  9399  0435  0187               	clrf	7
  9400  0436  3000               	movlw	0
  9401  0437  3FC0               	movwi [0]fsr1
  9402  0438  3FC1               	movwi [1]fsr1
  9403  0439                     l3505:	
  9404                           
  9405                           ;mcc_generated_files/mtouch/mtouch_proximity.c: 232:         callback_activated(prox->na
      +                          me);
  9406  0439  0825               	movf	Proximity_State_NotActivated@prox,w
  9407  043A  0086               	movwf	6
  9408  043B  0187               	clrf	7
  9409  043C  0801               	movf	1,w
  9410  043D  00A6               	movwf	??_Proximity_State_NotActivated
  9411  043E  0826               	movf	??_Proximity_State_NotActivated,w
  9412  043F  00F1               	movwf	Proximity_DefaultCallback@name
  9413  0440  3188  2000  3183   	fcall	_Proximity_DefaultCallback
  9414                           
  9415                           ;mcc_generated_files/mtouch/mtouch_proximity.c: 233:     }
  9416  0443  2C4B               	goto	l625
  9417  0444                     l3507:	
  9418                           
  9419                           ;mcc_generated_files/mtouch/mtouch_proximity.c: 235:     {;mcc_generated_files/mtouch/mt
      +                          ouch_proximity.c: 237:         prox->counter = (mtouch_prox_statecounter_t)0;
  9420  0444  0825               	movf	Proximity_State_NotActivated@prox,w
  9421  0445  3E0C               	addlw	12
  9422  0446  0086               	movwf	6
  9423  0447  0187               	clrf	7
  9424  0448  3000               	movlw	0
  9425  0449  3FC0               	movwi [0]fsr1
  9426  044A  3FC1               	movwi [1]fsr1
  9427  044B                     l625:	
  9428                           
  9429                           ;mcc_generated_files/mtouch/mtouch_proximity.c: 242:     (prox->baseline_count)++;
  9430  044B  0020               	movlb	0	; select bank0
  9431  044C  0825               	movf	Proximity_State_NotActivated@prox,w
  9432  044D  3E0E               	addlw	14
  9433  044E  0086               	movwf	6
  9434  044F  0187               	clrf	7
  9435  0450  3001               	movlw	1
  9436  0451  0781               	addwf	1,f
  9437  0452  3141               	addfsr 1,1
  9438  0453  1803               	skipnc
  9439  0454  0A81               	incf	1,f
  9440                           
  9441                           ;mcc_generated_files/mtouch/mtouch_proximity.c: 243:     if ((prox->baseline_count) == (
      +                          (mtouch_prox_baselinecounter_t)128u))
  9442  0455  0825               	movf	Proximity_State_NotActivated@prox,w
  9443  0456  3E0E               	addlw	14
  9444  0457  0086               	movwf	6
  9445  0458  0187               	clrf	7
  9446  0459  0016               	moviw fsr1++
  9447  045A  3A80               	xorlw	128
  9448  045B  00A6               	movwf	??_Proximity_State_NotActivated
  9449  045C  0016               	moviw fsr1++
  9450  045D  04A6               	iorwf	??_Proximity_State_NotActivated,f
  9451  045E  1D03               	btfss	3,2
  9452  045F  2C61               	goto	u2841
  9453  0460  2C62               	goto	u2840
  9454  0461                     u2841:	
  9455  0461  2C6D               	goto	l629
  9456  0462                     u2840:	
  9457  0462                     l3509:	
  9458                           
  9459                           ;mcc_generated_files/mtouch/mtouch_proximity.c: 244:     {;mcc_generated_files/mtouch/mt
      +                          ouch_proximity.c: 245:         prox->baseline_count = (mtouch_prox_baselinecounter_t)0;
  9460  0462  0825               	movf	Proximity_State_NotActivated@prox,w
  9461  0463  3E0E               	addlw	14
  9462  0464  0086               	movwf	6
  9463  0465  0187               	clrf	7
  9464  0466  3000               	movlw	0
  9465  0467  3FC0               	movwi [0]fsr1
  9466  0468  3FC1               	movwi [1]fsr1
  9467  0469                     l3511:	
  9468                           
  9469                           ;mcc_generated_files/mtouch/mtouch_proximity.c: 246:         Proximity_Baseline_Update(p
      +                          rox);
  9470  0469  0825               	movf	Proximity_State_NotActivated@prox,w
  9471  046A  3187  2730  3183   	fcall	_Proximity_Baseline_Update
  9472  046D                     l629:	
  9473  046D  0008               	return
  9474  046E                     __end_of_Proximity_State_NotActivated:	
  9475                           
  9476                           	psect	text57
  9477  0730                     __ptext57:	
  9478 ;; *************** function _Proximity_Baseline_Update *****************
  9479 ;; Defined at:
  9480 ;;		line 436 in file "mcc_generated_files/mtouch/mtouch_proximity.c"
  9481 ;; Parameters:    Size  Location     Type
  9482 ;;  prox            1    wreg     PTR struct .
  9483 ;;		 -> mtouch_proximity(18), 
  9484 ;; Auto vars:     Size  Location     Type
  9485 ;;  prox            1    5[COMMON] PTR struct .
  9486 ;;		 -> mtouch_proximity(18), 
  9487 ;; Return value:  Size  Location     Type
  9488 ;;                  1    wreg      void 
  9489 ;; Registers used:
  9490 ;;		wreg, fsr1l, fsr1h, status,2, status,0
  9491 ;; Tracked objects:
  9492 ;;		On entry : 0/0
  9493 ;;		On exit  : 0/0
  9494 ;;		Unchanged: 0/0
  9495 ;; Data sizes:     COMMON   BANK0   BANK1   BANK2   BANK3   BANK4   BANK5   BANK6
  9496 ;;      Params:         0       0       0       0       0       0       0       0
  9497 ;;      Locals:         1       0       0       0       0       0       0       0
  9498 ;;      Temps:          4       0       0       0       0       0       0       0
  9499 ;;      Totals:         5       0       0       0       0       0       0       0
  9500 ;;Total ram usage:        5 bytes
  9501 ;; Hardware stack levels used:    1
  9502 ;; Hardware stack levels required when called:    4
  9503 ;; This function calls:
  9504 ;;		Nothing
  9505 ;; This function is called by:
  9506 ;;		_Proximity_State_Initializing
  9507 ;;		_Proximity_State_NotActivated
  9508 ;; This function uses a non-reentrant model
  9509 ;;
  9510                           
  9511                           
  9512                           ;psect for function _Proximity_Baseline_Update
  9513  0730                     _Proximity_Baseline_Update:	
  9514                           
  9515                           ;incstack = 0
  9516                           ; Regs used in _Proximity_Baseline_Update: [wreg+fsr1l+fsr1h+status,2+status,0]
  9517                           ;Proximity_Baseline_Update@prox stored from wreg
  9518  0730  00F5               	movwf	Proximity_Baseline_Update@prox
  9519  0731                     l3293:	
  9520                           
  9521                           ;mcc_generated_files/mtouch/mtouch_proximity.c: 436: static void Proximity_Baseline_Upda
      +                          te(mtouch_proximity_t* prox);mcc_generated_files/mtouch/mtouch_proximity.c: 437: {;mcc_g
      +                          enerated_files/mtouch/mtouch_proximity.c: 438:     if (GIE == (uint8_t)1)
  9522  0731  1F8B               	btfss	11,7	;volatile
  9523  0732  2F34               	goto	u2461
  9524  0733  2F35               	goto	u2460
  9525  0734                     u2461:	
  9526  0734  2F76               	goto	l3301
  9527  0735                     u2460:	
  9528  0735                     l3295:	
  9529                           
  9530                           ;mcc_generated_files/mtouch/mtouch_proximity.c: 439:     {;mcc_generated_files/mtouch/mt
      +                          ouch_proximity.c: 440:         GIE = (uint8_t)0;
  9531  0735  138B               	bcf	11,7	;volatile
  9532  0736                     l3297:	
  9533                           
  9534                           ;mcc_generated_files/mtouch/mtouch_proximity.c: 441:         prox->baseline -= (prox->ba
      +                          seline) >> ((uint8_t)4u);
  9535  0736  0875               	movf	Proximity_Baseline_Update@prox,w
  9536  0737  3E07               	addlw	7
  9537  0738  0086               	movwf	6
  9538  0739  0187               	clrf	7
  9539  073A  3F40               	moviw [0]fsr1
  9540  073B  00F1               	movwf	??_Proximity_Baseline_Update
  9541  073C  3F41               	moviw [1]fsr1
  9542  073D  00F2               	movwf	??_Proximity_Baseline_Update+1
  9543  073E  3F42               	moviw [2]fsr1
  9544  073F  00F3               	movwf	??_Proximity_Baseline_Update+2
  9545  0740  3F43               	moviw [3]fsr1
  9546  0741  00F4               	movwf	??_Proximity_Baseline_Update+3
  9547  0742  3004               	movlw	4
  9548  0743                     u2475:	
  9549  0743  36F4               	lsrf	??_Proximity_Baseline_Update+3,f
  9550  0744  0CF3               	rrf	??_Proximity_Baseline_Update+2,f
  9551  0745  0CF2               	rrf	??_Proximity_Baseline_Update+1,f
  9552  0746  0CF1               	rrf	??_Proximity_Baseline_Update,f
  9553  0747                     u2470:	
  9554  0747  0B89               	decfsz	9,f
  9555  0748  2F43               	goto	u2475
  9556  0749  0875               	movf	Proximity_Baseline_Update@prox,w
  9557  074A  3E07               	addlw	7
  9558  074B  0086               	movwf	6
  9559  074C  0187               	clrf	7
  9560  074D  0871               	movf	??_Proximity_Baseline_Update,w
  9561  074E  0281               	subwf	1,f
  9562  074F  3141               	addfsr 1,1
  9563  0750  0872               	movf	??_Proximity_Baseline_Update+1,w
  9564  0751  3B81               	subwfb	1,f
  9565  0752  3141               	addfsr 1,1
  9566  0753  0873               	movf	??_Proximity_Baseline_Update+2,w
  9567  0754  3B81               	subwfb	1,f
  9568  0755  3141               	addfsr 1,1
  9569  0756  0874               	movf	??_Proximity_Baseline_Update+3,w
  9570  0757  3B81               	subwfb	1,f
  9571  0758  317D               	addfsr 1,-3
  9572                           
  9573                           ;mcc_generated_files/mtouch/mtouch_proximity.c: 442:         prox->baseline += prox->rea
      +                          ding;
  9574  0759  0875               	movf	Proximity_Baseline_Update@prox,w
  9575  075A  3E03               	addlw	3
  9576  075B  0086               	movwf	6
  9577  075C  0187               	clrf	7
  9578  075D  3F40               	moviw [0]fsr1
  9579  075E  00F1               	movwf	??_Proximity_Baseline_Update
  9580  075F  3F41               	moviw [1]fsr1
  9581  0760  00F2               	movwf	??_Proximity_Baseline_Update+1
  9582  0761  3F42               	moviw [2]fsr1
  9583  0762  00F3               	movwf	??_Proximity_Baseline_Update+2
  9584  0763  3F43               	moviw [3]fsr1
  9585  0764  00F4               	movwf	??_Proximity_Baseline_Update+3
  9586  0765  0875               	movf	Proximity_Baseline_Update@prox,w
  9587  0766  3E07               	addlw	7
  9588  0767  0086               	movwf	6
  9589  0768  0187               	clrf	7
  9590  0769  0871               	movf	??_Proximity_Baseline_Update,w
  9591  076A  0781               	addwf	1,f
  9592  076B  3141               	addfsr 1,1
  9593  076C  0872               	movf	??_Proximity_Baseline_Update+1,w
  9594  076D  3D81               	addwfc	1,f
  9595  076E  3141               	addfsr 1,1
  9596  076F  0873               	movf	??_Proximity_Baseline_Update+2,w
  9597  0770  3D81               	addwfc	1,f
  9598  0771  3141               	addfsr 1,1
  9599  0772  0874               	movf	??_Proximity_Baseline_Update+3,w
  9600  0773  3D81               	addwfc	1,f
  9601  0774                     l3299:	
  9602                           
  9603                           ;mcc_generated_files/mtouch/mtouch_proximity.c: 443:         GIE = (uint8_t)1;
  9604  0774  178B               	bsf	11,7	;volatile
  9605                           
  9606                           ;mcc_generated_files/mtouch/mtouch_proximity.c: 444:     }
  9607  0775  2FB4               	goto	l713
  9608  0776                     l3301:	
  9609                           
  9610                           ;mcc_generated_files/mtouch/mtouch_proximity.c: 446:     {;mcc_generated_files/mtouch/mt
      +                          ouch_proximity.c: 447:         prox->baseline -= (prox->baseline) >> ((uint8_t)4u);
  9611  0776  0875               	movf	Proximity_Baseline_Update@prox,w
  9612  0777  3E07               	addlw	7
  9613  0778  0086               	movwf	6
  9614  0779  0187               	clrf	7
  9615  077A  3F40               	moviw [0]fsr1
  9616  077B  00F1               	movwf	??_Proximity_Baseline_Update
  9617  077C  3F41               	moviw [1]fsr1
  9618  077D  00F2               	movwf	??_Proximity_Baseline_Update+1
  9619  077E  3F42               	moviw [2]fsr1
  9620  077F  00F3               	movwf	??_Proximity_Baseline_Update+2
  9621  0780  3F43               	moviw [3]fsr1
  9622  0781  00F4               	movwf	??_Proximity_Baseline_Update+3
  9623  0782  3004               	movlw	4
  9624  0783                     u2485:	
  9625  0783  36F4               	lsrf	??_Proximity_Baseline_Update+3,f
  9626  0784  0CF3               	rrf	??_Proximity_Baseline_Update+2,f
  9627  0785  0CF2               	rrf	??_Proximity_Baseline_Update+1,f
  9628  0786  0CF1               	rrf	??_Proximity_Baseline_Update,f
  9629  0787                     u2480:	
  9630  0787  0B89               	decfsz	9,f
  9631  0788  2F83               	goto	u2485
  9632  0789  0875               	movf	Proximity_Baseline_Update@prox,w
  9633  078A  3E07               	addlw	7
  9634  078B  0086               	movwf	6
  9635  078C  0187               	clrf	7
  9636  078D  0871               	movf	??_Proximity_Baseline_Update,w
  9637  078E  0281               	subwf	1,f
  9638  078F  3141               	addfsr 1,1
  9639  0790  0872               	movf	??_Proximity_Baseline_Update+1,w
  9640  0791  3B81               	subwfb	1,f
  9641  0792  3141               	addfsr 1,1
  9642  0793  0873               	movf	??_Proximity_Baseline_Update+2,w
  9643  0794  3B81               	subwfb	1,f
  9644  0795  3141               	addfsr 1,1
  9645  0796  0874               	movf	??_Proximity_Baseline_Update+3,w
  9646  0797  3B81               	subwfb	1,f
  9647  0798  317D               	addfsr 1,-3
  9648                           
  9649                           ;mcc_generated_files/mtouch/mtouch_proximity.c: 448:         prox->baseline += prox->rea
      +                          ding;
  9650  0799  0875               	movf	Proximity_Baseline_Update@prox,w
  9651  079A  3E03               	addlw	3
  9652  079B  0086               	movwf	6
  9653  079C  0187               	clrf	7
  9654  079D  3F40               	moviw [0]fsr1
  9655  079E  00F1               	movwf	??_Proximity_Baseline_Update
  9656  079F  3F41               	moviw [1]fsr1
  9657  07A0  00F2               	movwf	??_Proximity_Baseline_Update+1
  9658  07A1  3F42               	moviw [2]fsr1
  9659  07A2  00F3               	movwf	??_Proximity_Baseline_Update+2
  9660  07A3  3F43               	moviw [3]fsr1
  9661  07A4  00F4               	movwf	??_Proximity_Baseline_Update+3
  9662  07A5  0875               	movf	Proximity_Baseline_Update@prox,w
  9663  07A6  3E07               	addlw	7
  9664  07A7  0086               	movwf	6
  9665  07A8  0187               	clrf	7
  9666  07A9  0871               	movf	??_Proximity_Baseline_Update,w
  9667  07AA  0781               	addwf	1,f
  9668  07AB  3141               	addfsr 1,1
  9669  07AC  0872               	movf	??_Proximity_Baseline_Update+1,w
  9670  07AD  3D81               	addwfc	1,f
  9671  07AE  3141               	addfsr 1,1
  9672  07AF  0873               	movf	??_Proximity_Baseline_Update+2,w
  9673  07B0  3D81               	addwfc	1,f
  9674  07B1  3141               	addfsr 1,1
  9675  07B2  0874               	movf	??_Proximity_Baseline_Update+3,w
  9676  07B3  3D81               	addwfc	1,f
  9677  07B4                     l713:	
  9678  07B4  0008               	return
  9679  07B5                     __end_of_Proximity_Baseline_Update:	
  9680                           
  9681                           	psect	text58
  9682  0C3F                     __ptext58:	
  9683 ;; *************** function _Proximity_Baseline_Initialize *****************
  9684 ;; Defined at:
  9685 ;;		line 430 in file "mcc_generated_files/mtouch/mtouch_proximity.c"
  9686 ;; Parameters:    Size  Location     Type
  9687 ;;  prox            1    wreg     PTR struct .
  9688 ;;		 -> mtouch_proximity(18), 
  9689 ;; Auto vars:     Size  Location     Type
  9690 ;;  prox            1    9[COMMON] PTR struct .
  9691 ;;		 -> mtouch_proximity(18), 
  9692 ;; Return value:  Size  Location     Type
  9693 ;;                  1    wreg      void 
  9694 ;; Registers used:
  9695 ;;		wreg, fsr1l, fsr1h, status,2, status,0, pclath, cstack
  9696 ;; Tracked objects:
  9697 ;;		On entry : 0/0
  9698 ;;		On exit  : 0/0
  9699 ;;		Unchanged: 0/0
  9700 ;; Data sizes:     COMMON   BANK0   BANK1   BANK2   BANK3   BANK4   BANK5   BANK6
  9701 ;;      Params:         0       0       0       0       0       0       0       0
  9702 ;;      Locals:         1       0       0       0       0       0       0       0
  9703 ;;      Temps:          0       4       0       0       0       0       0       0
  9704 ;;      Totals:         1       4       0       0       0       0       0       0
  9705 ;;Total ram usage:        5 bytes
  9706 ;; Hardware stack levels used:    1
  9707 ;; Hardware stack levels required when called:    6
  9708 ;; This function calls:
  9709 ;;		_MTOUCH_Sensor_RawSample_Get
  9710 ;; This function is called by:
  9711 ;;		_Proximity_State_Initializing
  9712 ;; This function uses a non-reentrant model
  9713 ;;
  9714                           
  9715                           
  9716                           ;psect for function _Proximity_Baseline_Initialize
  9717  0C3F                     _Proximity_Baseline_Initialize:	
  9718                           
  9719                           ;incstack = 0
  9720                           ; Regs used in _Proximity_Baseline_Initialize: [wreg+fsr1l+fsr1h+status,2+status,0+pclat
      +                          h+cstack]
  9721                           ;Proximity_Baseline_Initialize@prox stored from wreg
  9722  0C3F  00F9               	movwf	Proximity_Baseline_Initialize@prox
  9723  0C40                     l4385:	
  9724                           
  9725                           ;mcc_generated_files/mtouch/mtouch_proximity.c: 430: static void Proximity_Baseline_Init
      +                          ialize(mtouch_proximity_t* prox);mcc_generated_files/mtouch/mtouch_proximity.c: 431: {;m
      +                          cc_generated_files/mtouch/mtouch_proximity.c: 432:     prox->baseline = MTOUCH_Sensor_Ra
      +                          wSample_Get(prox->sensor);
  9726  0C40  0A79               	incf	Proximity_Baseline_Initialize@prox,w
  9727  0C41  0086               	movwf	6
  9728  0C42  0187               	clrf	7
  9729  0C43  0801               	movf	1,w
  9730  0C44  318A  221B  318C   	fcall	_MTOUCH_Sensor_RawSample_Get
  9731  0C47  0875               	movf	?_MTOUCH_Sensor_RawSample_Get,w
  9732  0C48  0020               	movlb	0	; select bank0
  9733  0C49  00A0               	movwf	??_Proximity_Baseline_Initialize
  9734  0C4A  0876               	movf	?_MTOUCH_Sensor_RawSample_Get+1,w
  9735  0C4B  00A1               	movwf	??_Proximity_Baseline_Initialize+1
  9736  0C4C  01A2               	clrf	??_Proximity_Baseline_Initialize+2
  9737  0C4D  01A3               	clrf	??_Proximity_Baseline_Initialize+3
  9738  0C4E  0879               	movf	Proximity_Baseline_Initialize@prox,w
  9739  0C4F  3E07               	addlw	7
  9740  0C50  0086               	movwf	6
  9741  0C51  0187               	clrf	7
  9742  0C52  0820               	movf	??_Proximity_Baseline_Initialize,w
  9743  0C53  3FC0               	movwi [0]fsr1
  9744  0C54  0821               	movf	??_Proximity_Baseline_Initialize+1,w
  9745  0C55  3FC1               	movwi [1]fsr1
  9746  0C56  0822               	movf	??_Proximity_Baseline_Initialize+2,w
  9747  0C57  3FC2               	movwi [2]fsr1
  9748  0C58  0823               	movf	??_Proximity_Baseline_Initialize+3,w
  9749  0C59  3FC3               	movwi [3]fsr1
  9750  0C5A                     l4387:	
  9751                           
  9752                           ;mcc_generated_files/mtouch/mtouch_proximity.c: 433:     prox->baseline <<= (((uint8_t)4
      +                          u) + ((uint8_t)1u));
  9753  0C5A  0879               	movf	Proximity_Baseline_Initialize@prox,w
  9754  0C5B  3E07               	addlw	7
  9755  0C5C  0086               	movwf	6
  9756  0C5D  0187               	clrf	7
  9757  0C5E  3005               	movlw	5
  9758  0C5F                     u3985:	
  9759  0C5F  3581               	lslf	1,f
  9760  0C60  3141               	addfsr 1,1
  9761  0C61  0D81               	rlf	1,f
  9762  0C62  3141               	addfsr 1,1
  9763  0C63  0D81               	rlf	1,f
  9764  0C64  3141               	addfsr 1,1
  9765  0C65  0D81               	rlf	1,f
  9766  0C66  317D               	addfsr 1,-3
  9767  0C67  0B89               	decfsz	9,f
  9768  0C68  2C5F               	goto	u3985
  9769  0C69                     l708:	
  9770  0C69  0008               	return
  9771  0C6A                     __end_of_Proximity_Baseline_Initialize:	
  9772                           
  9773                           	psect	text59
  9774  0800                     __ptext59:	
  9775 ;; *************** function _Proximity_DefaultCallback *****************
  9776 ;; Defined at:
  9777 ;;		line 472 in file "mcc_generated_files/mtouch/mtouch_proximity.c"
  9778 ;; Parameters:    Size  Location     Type
  9779 ;;  name            1    1[COMMON] enum E3067
  9780 ;; Auto vars:     Size  Location     Type
  9781 ;;		None
  9782 ;; Return value:  Size  Location     Type
  9783 ;;                  1    wreg      void 
  9784 ;; Registers used:
  9785 ;;		None
  9786 ;; Tracked objects:
  9787 ;;		On entry : 0/0
  9788 ;;		On exit  : 0/0
  9789 ;;		Unchanged: 0/0
  9790 ;; Data sizes:     COMMON   BANK0   BANK1   BANK2   BANK3   BANK4   BANK5   BANK6
  9791 ;;      Params:         1       0       0       0       0       0       0       0
  9792 ;;      Locals:         0       0       0       0       0       0       0       0
  9793 ;;      Temps:          0       0       0       0       0       0       0       0
  9794 ;;      Totals:         1       0       0       0       0       0       0       0
  9795 ;;Total ram usage:        1 bytes
  9796 ;; Hardware stack levels used:    1
  9797 ;; Hardware stack levels required when called:    4
  9798 ;; This function calls:
  9799 ;;		Nothing
  9800 ;; This function is called by:
  9801 ;;		_Proximity_State_NotActivated
  9802 ;;		_Proximity_State_Activated
  9803 ;; This function uses a non-reentrant model
  9804 ;;
  9805                           
  9806                           
  9807                           ;psect for function _Proximity_DefaultCallback
  9808  0800                     _Proximity_DefaultCallback:	
  9809  0800                     l724:	
  9810                           ;incstack = 0
  9811                           ; Regs used in _Proximity_DefaultCallback: []
  9812                           
  9813  0800  0008               	return
  9814  0801                     __end_of_Proximity_DefaultCallback:	
  9815                           
  9816                           	psect	text60
  9817  0B9F                     __ptext60:	
  9818 ;; *************** function _MTOUCH_Proximity_Initialize *****************
  9819 ;; Defined at:
  9820 ;;		line 141 in file "mcc_generated_files/mtouch/mtouch_proximity.c"
  9821 ;; Parameters:    Size  Location     Type
  9822 ;;  name            1    wreg     enum E3067
  9823 ;; Auto vars:     Size  Location     Type
  9824 ;;  name            1    2[COMMON] enum E3067
  9825 ;;  prox            1    3[COMMON] PTR struct .
  9826 ;;		 -> mtouch_proximity(18), 
  9827 ;; Return value:  Size  Location     Type
  9828 ;;                  1    wreg      void 
  9829 ;; Registers used:
  9830 ;;		wreg, fsr1l, fsr1h, status,2, status,0
  9831 ;; Tracked objects:
  9832 ;;		On entry : 0/0
  9833 ;;		On exit  : 0/0
  9834 ;;		Unchanged: 0/0
  9835 ;; Data sizes:     COMMON   BANK0   BANK1   BANK2   BANK3   BANK4   BANK5   BANK6
  9836 ;;      Params:         0       0       0       0       0       0       0       0
  9837 ;;      Locals:         2       0       0       0       0       0       0       0
  9838 ;;      Temps:          1       0       0       0       0       0       0       0
  9839 ;;      Totals:         3       0       0       0       0       0       0       0
  9840 ;;Total ram usage:        3 bytes
  9841 ;; Hardware stack levels used:    1
  9842 ;; Hardware stack levels required when called:    4
  9843 ;; This function calls:
  9844 ;;		Nothing
  9845 ;; This function is called by:
  9846 ;;		_MTOUCH_Proximity_InitializeAll
  9847 ;;		_Proximity_Service
  9848 ;;		_Proximity_State_NotActivated
  9849 ;;		_Proximity_State_Activated
  9850 ;;		_MTOUCH_Proximity_Recalibrate
  9851 ;; This function uses a non-reentrant model
  9852 ;;
  9853                           
  9854                           
  9855                           ;psect for function _MTOUCH_Proximity_Initialize
  9856  0B9F                     _MTOUCH_Proximity_Initialize:	
  9857                           
  9858                           ;incstack = 0
  9859                           ; Regs used in _MTOUCH_Proximity_Initialize: [wreg+fsr1l+fsr1h+status,2+status,0]
  9860                           ;MTOUCH_Proximity_Initialize@name stored from wreg
  9861  0B9F  00F2               	movwf	MTOUCH_Proximity_Initialize@name
  9862  0BA0                     l3279:	
  9863                           
  9864                           ;mcc_generated_files/mtouch/mtouch_proximity.c: 141: void MTOUCH_Proximity_Initialize(en
      +                          um mtouch_proximity_names name);mcc_generated_files/mtouch/mtouch_proximity.c: 142: {;mc
      +                          c_generated_files/mtouch/mtouch_proximity.c: 143:     mtouch_proximity_t* prox = &mtouch
      +                          _proximity[name];
  9865  0BA0  0E72               	swapf	MTOUCH_Proximity_Initialize@name,w
  9866  0BA1  39F0               	andlw	240
  9867  0BA2  0772               	addwf	MTOUCH_Proximity_Initialize@name,w
  9868  0BA3  0772               	addwf	MTOUCH_Proximity_Initialize@name,w
  9869  0BA4  3E58               	addlw	(low (_mtouch_proximity| 0))& (0+255)
  9870  0BA5  00F1               	movwf	??_MTOUCH_Proximity_Initialize
  9871  0BA6  0871               	movf	??_MTOUCH_Proximity_Initialize,w
  9872  0BA7  00F3               	movwf	MTOUCH_Proximity_Initialize@prox
  9873  0BA8                     l3281:	
  9874                           
  9875                           ;mcc_generated_files/mtouch/mtouch_proximity.c: 145:     prox->state = MTOUCH_PROXIMITY_
      +                          STATE_initializing;
  9876  0BA8  0873               	movf	MTOUCH_Proximity_Initialize@prox,w
  9877  0BA9  3E02               	addlw	2
  9878  0BAA  0086               	movwf	6
  9879  0BAB  0187               	clrf	7
  9880  0BAC  0181               	clrf	1
  9881  0BAD                     l3283:	
  9882                           
  9883                           ;mcc_generated_files/mtouch/mtouch_proximity.c: 146:     prox->baseline = (mtouch_prox_b
      +                          aseline_t)0;
  9884  0BAD  0873               	movf	MTOUCH_Proximity_Initialize@prox,w
  9885  0BAE  3E07               	addlw	7
  9886  0BAF  0086               	movwf	6
  9887  0BB0  0187               	clrf	7
  9888  0BB1  3000               	movlw	0
  9889  0BB2  3FC0               	movwi [0]fsr1
  9890  0BB3  3000               	movlw	0
  9891  0BB4  3FC1               	movwi [1]fsr1
  9892  0BB5  3FC2               	movwi [2]fsr1
  9893  0BB6  3FC3               	movwi [3]fsr1
  9894  0BB7                     l3285:	
  9895                           
  9896                           ;mcc_generated_files/mtouch/mtouch_proximity.c: 147:     prox->counter = (mtouch_prox_st
      +                          atecounter_t)0;
  9897  0BB7  0873               	movf	MTOUCH_Proximity_Initialize@prox,w
  9898  0BB8  3E0C               	addlw	12
  9899  0BB9  0086               	movwf	6
  9900  0BBA  0187               	clrf	7
  9901  0BBB  3000               	movlw	0
  9902  0BBC  3FC0               	movwi [0]fsr1
  9903  0BBD  3FC1               	movwi [1]fsr1
  9904  0BBE                     l3287:	
  9905                           
  9906                           ;mcc_generated_files/mtouch/mtouch_proximity.c: 148:     prox->baseline_count = (mtouch_
      +                          prox_baselinecounter_t)0;
  9907  0BBE  0873               	movf	MTOUCH_Proximity_Initialize@prox,w
  9908  0BBF  3E0E               	addlw	14
  9909  0BC0  0086               	movwf	6
  9910  0BC1  0187               	clrf	7
  9911  0BC2  3000               	movlw	0
  9912  0BC3  3FC0               	movwi [0]fsr1
  9913  0BC4  3FC1               	movwi [1]fsr1
  9914  0BC5                     l598:	
  9915  0BC5  0008               	return
  9916  0BC6                     __end_of_MTOUCH_Proximity_Initialize:	
  9917                           
  9918                           	psect	text61
  9919  092A                     __ptext61:	
  9920 ;; *************** function _Proximity_Reading_Update *****************
  9921 ;; Defined at:
  9922 ;;		line 404 in file "mcc_generated_files/mtouch/mtouch_proximity.c"
  9923 ;; Parameters:    Size  Location     Type
  9924 ;;  prox            1    wreg     PTR struct .
  9925 ;;		 -> mtouch_proximity(18), 
  9926 ;; Auto vars:     Size  Location     Type
  9927 ;;  prox            1   10[COMMON] PTR struct .
  9928 ;;		 -> mtouch_proximity(18), 
  9929 ;; Return value:  Size  Location     Type
  9930 ;;                  1    wreg      void 
  9931 ;; Registers used:
  9932 ;;		wreg, fsr1l, fsr1h, status,2, status,0, pclath, cstack
  9933 ;; Tracked objects:
  9934 ;;		On entry : 0/0
  9935 ;;		On exit  : 0/0
  9936 ;;		Unchanged: 0/0
  9937 ;; Data sizes:     COMMON   BANK0   BANK1   BANK2   BANK3   BANK4   BANK5   BANK6
  9938 ;;      Params:         0       0       0       0       0       0       0       0
  9939 ;;      Locals:         1       0       0       0       0       0       0       0
  9940 ;;      Temps:          0       0       0       0       0       0       0       0
  9941 ;;      Totals:         1       0       0       0       0       0       0       0
  9942 ;;Total ram usage:        1 bytes
  9943 ;; Hardware stack levels used:    1
  9944 ;; Hardware stack levels required when called:    7
  9945 ;; This function calls:
  9946 ;;		_Proximity_Reading_Update_Helper
  9947 ;; This function is called by:
  9948 ;;		_Proximity_Service
  9949 ;; This function uses a non-reentrant model
  9950 ;;
  9951                           
  9952                           
  9953                           ;psect for function _Proximity_Reading_Update
  9954  092A                     _Proximity_Reading_Update:	
  9955                           
  9956                           ;incstack = 0
  9957                           ; Regs used in _Proximity_Reading_Update: [wreg+fsr1l+fsr1h+status,2+status,0+pclath+cst
      +                          ack]
  9958                           ;Proximity_Reading_Update@prox stored from wreg
  9959  092A  00FA               	movwf	Proximity_Reading_Update@prox
  9960  092B                     l4459:	
  9961                           
  9962                           ;mcc_generated_files/mtouch/mtouch_proximity.c: 404: static void Proximity_Reading_Updat
      +                          e(mtouch_proximity_t* prox);mcc_generated_files/mtouch/mtouch_proximity.c: 405: {;mcc_ge
      +                          nerated_files/mtouch/mtouch_proximity.c: 406:     if (GIE == (uint8_t)1)
  9963  092B  1F8B               	btfss	11,7	;volatile
  9964  092C  292E               	goto	u4121
  9965  092D  292F               	goto	u4120
  9966  092E                     u4121:	
  9967  092E  2936               	goto	l4467
  9968  092F                     u4120:	
  9969  092F                     l4461:	
  9970                           
  9971                           ;mcc_generated_files/mtouch/mtouch_proximity.c: 407:     {;mcc_generated_files/mtouch/mt
      +                          ouch_proximity.c: 408:         GIE = (uint8_t)0;
  9972  092F  138B               	bcf	11,7	;volatile
  9973  0930                     l4463:	
  9974                           
  9975                           ;mcc_generated_files/mtouch/mtouch_proximity.c: 409:         Proximity_Reading_Update_He
      +                          lper(prox);
  9976  0930  087A               	movf	Proximity_Reading_Update@prox,w
  9977  0931  318E  2625  3189   	fcall	_Proximity_Reading_Update_Helper
  9978  0934                     l4465:	
  9979                           
  9980                           ;mcc_generated_files/mtouch/mtouch_proximity.c: 410:         GIE = (uint8_t)1;
  9981  0934  178B               	bsf	11,7	;volatile
  9982                           
  9983                           ;mcc_generated_files/mtouch/mtouch_proximity.c: 411:     }
  9984  0935  293A               	goto	l700
  9985  0936                     l4467:	
  9986                           
  9987                           ;mcc_generated_files/mtouch/mtouch_proximity.c: 413:     {;mcc_generated_files/mtouch/mt
      +                          ouch_proximity.c: 414:         Proximity_Reading_Update_Helper(prox);
  9988  0936  087A               	movf	Proximity_Reading_Update@prox,w
  9989  0937  318E  2625  3189   	fcall	_Proximity_Reading_Update_Helper
  9990  093A                     l700:	
  9991  093A  0008               	return
  9992  093B                     __end_of_Proximity_Reading_Update:	
  9993                           
  9994                           	psect	text62
  9995  0E25                     __ptext62:	
  9996 ;; *************** function _Proximity_Reading_Update_Helper *****************
  9997 ;; Defined at:
  9998 ;;		line 417 in file "mcc_generated_files/mtouch/mtouch_proximity.c"
  9999 ;; Parameters:    Size  Location     Type
 10000 ;;  prox            1    wreg     PTR struct .
 10001 ;;		 -> mtouch_proximity(18), 
 10002 ;; Auto vars:     Size  Location     Type
 10003 ;;  prox            1    9[COMMON] PTR struct .
 10004 ;;		 -> mtouch_proximity(18), 
 10005 ;; Return value:  Size  Location     Type
 10006 ;;                  1    wreg      void 
 10007 ;; Registers used:
 10008 ;;		wreg, fsr1l, fsr1h, status,2, status,0, pclath, cstack
 10009 ;; Tracked objects:
 10010 ;;		On entry : 0/0
 10011 ;;		On exit  : 0/0
 10012 ;;		Unchanged: 0/0
 10013 ;; Data sizes:     COMMON   BANK0   BANK1   BANK2   BANK3   BANK4   BANK5   BANK6
 10014 ;;      Params:         0       0       0       0       0       0       0       0
 10015 ;;      Locals:         1       0       0       0       0       0       0       0
 10016 ;;      Temps:          0       6       0       0       0       0       0       0
 10017 ;;      Totals:         1       6       0       0       0       0       0       0
 10018 ;;Total ram usage:        7 bytes
 10019 ;; Hardware stack levels used:    1
 10020 ;; Hardware stack levels required when called:    6
 10021 ;; This function calls:
 10022 ;;		_MTOUCH_Sensor_RawSample_Get
 10023 ;; This function is called by:
 10024 ;;		_Proximity_Reading_Update
 10025 ;; This function uses a non-reentrant model
 10026 ;;
 10027                           
 10028                           
 10029                           ;psect for function _Proximity_Reading_Update_Helper
 10030  0E25                     _Proximity_Reading_Update_Helper:	
 10031                           
 10032                           ;incstack = 0
 10033                           ; Regs used in _Proximity_Reading_Update_Helper: [wreg+fsr1l+fsr1h+status,2+status,0+pcl
      +                          ath+cstack]
 10034                           ;Proximity_Reading_Update_Helper@prox stored from wreg
 10035  0E25  00F9               	movwf	Proximity_Reading_Update_Helper@prox
 10036  0E26                     l4389:	
 10037                           
 10038                           ;mcc_generated_files/mtouch/mtouch_proximity.c: 417: static void Proximity_Reading_Updat
      +                          e_Helper (mtouch_proximity_t* prox);mcc_generated_files/mtouch/mtouch_proximity.c: 418: 
      +                          {;mcc_generated_files/mtouch/mtouch_proximity.c: 419:     if(prox->state != MTOUCH_PROXI
      +                          MITY_STATE_initializing)
 10039  0E26  0879               	movf	Proximity_Reading_Update_Helper@prox,w
 10040  0E27  3E02               	addlw	2
 10041  0E28  0086               	movwf	6
 10042  0E29  0187               	clrf	7
 10043  0E2A  0801               	movf	1,w
 10044  0E2B  1903               	btfsc	3,2
 10045  0E2C  2E2E               	goto	u3991
 10046  0E2D  2E2F               	goto	u3990
 10047  0E2E                     u3991:	
 10048  0E2E  2E71               	goto	l4395
 10049  0E2F                     u3990:	
 10050  0E2F                     l4391:	
 10051                           
 10052                           ;mcc_generated_files/mtouch/mtouch_proximity.c: 420:     {;mcc_generated_files/mtouch/mt
      +                          ouch_proximity.c: 421:         prox->reading -= prox->reading>>((uint8_t)1u);
 10053  0E2F  0879               	movf	Proximity_Reading_Update_Helper@prox,w
 10054  0E30  3E03               	addlw	3
 10055  0E31  0086               	movwf	6
 10056  0E32  0187               	clrf	7
 10057  0E33  3F40               	moviw [0]fsr1
 10058  0E34  0020               	movlb	0	; select bank0
 10059  0E35  00A0               	movwf	??_Proximity_Reading_Update_Helper
 10060  0E36  3F41               	moviw [1]fsr1
 10061  0E37  00A1               	movwf	??_Proximity_Reading_Update_Helper+1
 10062  0E38  3F42               	moviw [2]fsr1
 10063  0E39  00A2               	movwf	??_Proximity_Reading_Update_Helper+2
 10064  0E3A  3F43               	moviw [3]fsr1
 10065  0E3B  00A3               	movwf	??_Proximity_Reading_Update_Helper+3
 10066  0E3C  3001               	movlw	1
 10067  0E3D                     u4005:	
 10068  0E3D  36A3               	lsrf	??_Proximity_Reading_Update_Helper+3,f
 10069  0E3E  0CA2               	rrf	??_Proximity_Reading_Update_Helper+2,f
 10070  0E3F  0CA1               	rrf	??_Proximity_Reading_Update_Helper+1,f
 10071  0E40  0CA0               	rrf	??_Proximity_Reading_Update_Helper,f
 10072  0E41                     u4000:	
 10073  0E41  0B89               	decfsz	9,f
 10074  0E42  2E3D               	goto	u4005
 10075  0E43  0879               	movf	Proximity_Reading_Update_Helper@prox,w
 10076  0E44  3E03               	addlw	3
 10077  0E45  0086               	movwf	6
 10078  0E46  0187               	clrf	7
 10079  0E47  0820               	movf	??_Proximity_Reading_Update_Helper,w
 10080  0E48  0281               	subwf	1,f
 10081  0E49  3141               	addfsr 1,1
 10082  0E4A  0821               	movf	??_Proximity_Reading_Update_Helper+1,w
 10083  0E4B  3B81               	subwfb	1,f
 10084  0E4C  3141               	addfsr 1,1
 10085  0E4D  0822               	movf	??_Proximity_Reading_Update_Helper+2,w
 10086  0E4E  3B81               	subwfb	1,f
 10087  0E4F  3141               	addfsr 1,1
 10088  0E50  0823               	movf	??_Proximity_Reading_Update_Helper+3,w
 10089  0E51  3B81               	subwfb	1,f
 10090  0E52  317D               	addfsr 1,-3
 10091  0E53                     l4393:	
 10092                           
 10093                           ;mcc_generated_files/mtouch/mtouch_proximity.c: 422:         prox->reading += MTOUCH_Sen
      +                          sor_RawSample_Get(prox->sensor);
 10094  0E53  0A79               	incf	Proximity_Reading_Update_Helper@prox,w
 10095  0E54  0086               	movwf	6
 10096  0E55  0187               	clrf	7
 10097  0E56  0801               	movf	1,w
 10098  0E57  318A  221B  318E   	fcall	_MTOUCH_Sensor_RawSample_Get
 10099  0E5A  0875               	movf	?_MTOUCH_Sensor_RawSample_Get,w
 10100  0E5B  0020               	movlb	0	; select bank0
 10101  0E5C  00A0               	movwf	??_Proximity_Reading_Update_Helper
 10102  0E5D  0876               	movf	?_MTOUCH_Sensor_RawSample_Get+1,w
 10103  0E5E  00A1               	movwf	??_Proximity_Reading_Update_Helper+1
 10104  0E5F  01A2               	clrf	??_Proximity_Reading_Update_Helper+2
 10105  0E60  01A3               	clrf	??_Proximity_Reading_Update_Helper+3
 10106  0E61  0879               	movf	Proximity_Reading_Update_Helper@prox,w
 10107  0E62  3E03               	addlw	3
 10108  0E63  0086               	movwf	6
 10109  0E64  0187               	clrf	7
 10110  0E65  0820               	movf	??_Proximity_Reading_Update_Helper,w
 10111  0E66  0781               	addwf	1,f
 10112  0E67  3141               	addfsr 1,1
 10113  0E68  0821               	movf	??_Proximity_Reading_Update_Helper+1,w
 10114  0E69  3D81               	addwfc	1,f
 10115  0E6A  3141               	addfsr 1,1
 10116  0E6B  0822               	movf	??_Proximity_Reading_Update_Helper+2,w
 10117  0E6C  3D81               	addwfc	1,f
 10118  0E6D  3141               	addfsr 1,1
 10119  0E6E  0823               	movf	??_Proximity_Reading_Update_Helper+3,w
 10120  0E6F  3D81               	addwfc	1,f
 10121                           
 10122                           ;mcc_generated_files/mtouch/mtouch_proximity.c: 423:     }
 10123  0E70  2E91               	goto	l705
 10124  0E71                     l4395:	
 10125                           
 10126                           ;mcc_generated_files/mtouch/mtouch_proximity.c: 425:     {;mcc_generated_files/mtouch/mt
      +                          ouch_proximity.c: 426:         prox->reading = MTOUCH_Sensor_RawSample_Get(prox->sensor)
      +                           << ((uint8_t)1u);
 10127  0E71  0A79               	incf	Proximity_Reading_Update_Helper@prox,w
 10128  0E72  0086               	movwf	6
 10129  0E73  0187               	clrf	7
 10130  0E74  0801               	movf	1,w
 10131  0E75  318A  221B  318E   	fcall	_MTOUCH_Sensor_RawSample_Get
 10132  0E78  0875               	movf	?_MTOUCH_Sensor_RawSample_Get,w
 10133  0E79  0020               	movlb	0	; select bank0
 10134  0E7A  00A0               	movwf	??_Proximity_Reading_Update_Helper
 10135  0E7B  0876               	movf	?_MTOUCH_Sensor_RawSample_Get+1,w
 10136  0E7C  00A1               	movwf	??_Proximity_Reading_Update_Helper+1
 10137  0E7D  35A0               	lslf	??_Proximity_Reading_Update_Helper,f
 10138  0E7E  0DA1               	rlf	??_Proximity_Reading_Update_Helper+1,f
 10139  0E7F  0820               	movf	??_Proximity_Reading_Update_Helper,w
 10140  0E80  00A2               	movwf	??_Proximity_Reading_Update_Helper+2
 10141  0E81  0821               	movf	??_Proximity_Reading_Update_Helper+1,w
 10142  0E82  00A3               	movwf	??_Proximity_Reading_Update_Helper+3
 10143  0E83  01A4               	clrf	??_Proximity_Reading_Update_Helper+4
 10144  0E84  01A5               	clrf	??_Proximity_Reading_Update_Helper+5
 10145  0E85  0879               	movf	Proximity_Reading_Update_Helper@prox,w
 10146  0E86  3E03               	addlw	3
 10147  0E87  0086               	movwf	6
 10148  0E88  0187               	clrf	7
 10149  0E89  0822               	movf	??_Proximity_Reading_Update_Helper+2,w
 10150  0E8A  3FC0               	movwi [0]fsr1
 10151  0E8B  0823               	movf	??_Proximity_Reading_Update_Helper+3,w
 10152  0E8C  3FC1               	movwi [1]fsr1
 10153  0E8D  0824               	movf	??_Proximity_Reading_Update_Helper+4,w
 10154  0E8E  3FC2               	movwi [2]fsr1
 10155  0E8F  0825               	movf	??_Proximity_Reading_Update_Helper+5,w
 10156  0E90  3FC3               	movwi [3]fsr1
 10157  0E91                     l705:	
 10158  0E91  0008               	return
 10159  0E92                     __end_of_Proximity_Reading_Update_Helper:	
 10160                           
 10161                           	psect	text63
 10162  0A1B                     __ptext63:	
 10163 ;; *************** function _MTOUCH_Sensor_RawSample_Get *****************
 10164 ;; Defined at:
 10165 ;;		line 775 in file "mcc_generated_files/mtouch/mtouch_sensor.c"
 10166 ;; Parameters:    Size  Location     Type
 10167 ;;  name            1    wreg     enum E2854
 10168 ;; Auto vars:     Size  Location     Type
 10169 ;;  name            1    8[COMMON] enum E2854
 10170 ;; Return value:  Size  Location     Type
 10171 ;;                  2    5[COMMON] unsigned short 
 10172 ;; Registers used:
 10173 ;;		wreg, fsr1l, fsr1h, status,2, status,0, pclath, cstack
 10174 ;; Tracked objects:
 10175 ;;		On entry : 0/0
 10176 ;;		On exit  : 0/0
 10177 ;;		Unchanged: 0/0
 10178 ;; Data sizes:     COMMON   BANK0   BANK1   BANK2   BANK3   BANK4   BANK5   BANK6
 10179 ;;      Params:         2       0       0       0       0       0       0       0
 10180 ;;      Locals:         1       0       0       0       0       0       0       0
 10181 ;;      Temps:          1       0       0       0       0       0       0       0
 10182 ;;      Totals:         4       0       0       0       0       0       0       0
 10183 ;;Total ram usage:        4 bytes
 10184 ;; Hardware stack levels used:    1
 10185 ;; Hardware stack levels required when called:    5
 10186 ;; This function calls:
 10187 ;;		___bmul
 10188 ;; This function is called by:
 10189 ;;		_Proximity_Reading_Update_Helper
 10190 ;;		_Proximity_Baseline_Initialize
 10191 ;; This function uses a non-reentrant model
 10192 ;;
 10193                           
 10194                           
 10195                           ;psect for function _MTOUCH_Sensor_RawSample_Get
 10196  0A1B                     _MTOUCH_Sensor_RawSample_Get:	
 10197                           
 10198                           ;incstack = 0
 10199                           ; Regs used in _MTOUCH_Sensor_RawSample_Get: [wreg+fsr1l+fsr1h+status,2+status,0+pclath+
      +                          cstack]
 10200                           ;MTOUCH_Sensor_RawSample_Get@name stored from wreg
 10201  0A1B  00F8               	movwf	MTOUCH_Sensor_RawSample_Get@name
 10202  0A1C                     l4321:	
 10203                           
 10204                           ;mcc_generated_files/mtouch/mtouch_sensor.c: 775: mtouch_sensor_sample_t MTOUCH_Sensor_R
      +                          awSample_Get(enum mtouch_sensor_names name);mcc_generated_files/mtouch/mtouch_sensor.c: 
      +                          776: {;mcc_generated_files/mtouch/mtouch_sensor.c: 777:     if (name < 1u)
 10205  0A1C  0878               	movf	MTOUCH_Sensor_RawSample_Get@name,w
 10206  0A1D  1D03               	btfss	3,2
 10207  0A1E  2A20               	goto	u3901
 10208  0A1F  2A21               	goto	u3900
 10209  0A20                     u3901:	
 10210  0A20  2A31               	goto	l4329
 10211  0A21                     u3900:	
 10212  0A21                     l4323:	
 10213                           
 10214                           ;mcc_generated_files/mtouch/mtouch_sensor.c: 778:     {;mcc_generated_files/mtouch/mtouc
      +                          h_sensor.c: 779:         return mtouch_sensor[name].rawSample;
 10215  0A21  3009               	movlw	9
 10216  0A22  00F7               	movwf	??_MTOUCH_Sensor_RawSample_Get
 10217  0A23  0877               	movf	??_MTOUCH_Sensor_RawSample_Get,w
 10218  0A24  00F1               	movwf	___bmul@multiplicand
 10219  0A25  0878               	movf	MTOUCH_Sensor_RawSample_Get@name,w
 10220  0A26  3189  2197  318A   	fcall	___bmul
 10221  0A29  3EC1               	addlw	(low ((_mtouch_sensor| 0+6)))& (0+255)
 10222  0A2A  0086               	movwf	6
 10223  0A2B  0187               	clrf	7
 10224  0A2C  3F40               	moviw [0]fsr1
 10225  0A2D  00F5               	movwf	?_MTOUCH_Sensor_RawSample_Get
 10226  0A2E  3F41               	moviw [1]fsr1
 10227  0A2F  00F6               	movwf	?_MTOUCH_Sensor_RawSample_Get+1
 10228  0A30  2A33               	goto	l444
 10229  0A31                     l4329:	
 10230                           
 10231                           ;mcc_generated_files/mtouch/mtouch_sensor.c: 782:         return (mtouch_sensor_sample_t
      +                          )0;
 10232  0A31  01F5               	clrf	?_MTOUCH_Sensor_RawSample_Get
 10233  0A32  01F6               	clrf	?_MTOUCH_Sensor_RawSample_Get+1
 10234  0A33                     l444:	
 10235  0A33  0008               	return
 10236  0A34                     __end_of_MTOUCH_Sensor_RawSample_Get:	
 10237                           
 10238                           	psect	text64
 10239  0281                     __ptext64:	
 10240 ;; *************** function _Proximity_Deviation_Update *****************
 10241 ;; Defined at:
 10242 ;;		line 353 in file "mcc_generated_files/mtouch/mtouch_proximity.c"
 10243 ;; Parameters:    Size  Location     Type
 10244 ;;  name            1    wreg     enum E3067
 10245 ;; Auto vars:     Size  Location     Type
 10246 ;;  name            1   19[BANK0 ] enum E3067
 10247 ;;  deviation       4   15[BANK0 ] long 
 10248 ;; Return value:  Size  Location     Type
 10249 ;;                  1    wreg      void 
 10250 ;; Registers used:
 10251 ;;		wreg, fsr1l, fsr1h, status,2, status,0, pclath, cstack
 10252 ;; Tracked objects:
 10253 ;;		On entry : 0/0
 10254 ;;		On exit  : 0/0
 10255 ;;		Unchanged: 0/0
 10256 ;; Data sizes:     COMMON   BANK0   BANK1   BANK2   BANK3   BANK4   BANK5   BANK6
 10257 ;;      Params:         0       0       0       0       0       0       0       0
 10258 ;;      Locals:         0       5       0       0       0       0       0       0
 10259 ;;      Temps:          0      10       0       0       0       0       0       0
 10260 ;;      Totals:         0      15       0       0       0       0       0       0
 10261 ;;Total ram usage:       15 bytes
 10262 ;; Hardware stack levels used:    1
 10263 ;; Hardware stack levels required when called:    6
 10264 ;; This function calls:
 10265 ;;		_MTOUCH_Proximity_Baseline_Get
 10266 ;;		_MTOUCH_Proximity_Reading_Get
 10267 ;; This function is called by:
 10268 ;;		_Proximity_Service
 10269 ;; This function uses a non-reentrant model
 10270 ;;
 10271                           
 10272                           
 10273                           ;psect for function _Proximity_Deviation_Update
 10274  0281                     _Proximity_Deviation_Update:	
 10275                           
 10276                           ;incstack = 0
 10277                           ; Regs used in _Proximity_Deviation_Update: [wreg+fsr1l+fsr1h+status,2+status,0+pclath+c
      +                          stack]
 10278                           ;Proximity_Deviation_Update@name stored from wreg
 10279  0281  0020               	movlb	0	; select bank0
 10280  0282  00B3               	movwf	Proximity_Deviation_Update@name
 10281  0283                     l3451:	
 10282                           
 10283                           ;mcc_generated_files/mtouch/mtouch_proximity.c: 353: static void Proximity_Deviation_Upd
      +                          ate(enum mtouch_proximity_names name);mcc_generated_files/mtouch/mtouch_proximity.c: 354
      +                          : {;mcc_generated_files/mtouch/mtouch_proximity.c: 355:     int32_t deviation;;mcc_gener
      +                          ated_files/mtouch/mtouch_proximity.c: 356:     deviation = (int32_t)((uint32_t)(MTOUCH_P
      +                          roximity_Reading_Get(name)) - (uint32_t)(MTOUCH_Proximity_Baseline_Get(name)));
 10284  0283  0833               	movf	Proximity_Deviation_Update@name,w
 10285  0284  318A  22D8  3182   	fcall	_MTOUCH_Proximity_Reading_Get
 10286  0287  0871               	movf	?_MTOUCH_Proximity_Reading_Get,w
 10287  0288  0020               	movlb	0	; select bank0
 10288  0289  00A5               	movwf	??_Proximity_Deviation_Update
 10289  028A  0872               	movf	?_MTOUCH_Proximity_Reading_Get+1,w
 10290  028B  00A6               	movwf	??_Proximity_Deviation_Update+1
 10291  028C  0873               	movf	?_MTOUCH_Proximity_Reading_Get+2,w
 10292  028D  00A7               	movwf	??_Proximity_Deviation_Update+2
 10293  028E  0874               	movf	?_MTOUCH_Proximity_Reading_Get+3,w
 10294  028F  00A8               	movwf	??_Proximity_Deviation_Update+3
 10295  0290  0833               	movf	Proximity_Deviation_Update@name,w
 10296  0291  318A  229C  3182   	fcall	_MTOUCH_Proximity_Baseline_Get
 10297  0294  0020               	movlb	0	; select bank0
 10298  0295  0820               	movf	?_MTOUCH_Proximity_Baseline_Get,w
 10299  0296  02A5               	subwf	??_Proximity_Deviation_Update,f
 10300  0297  0821               	movf	?_MTOUCH_Proximity_Baseline_Get+1,w
 10301  0298  3BA6               	subwfb	??_Proximity_Deviation_Update+1,f
 10302  0299  0822               	movf	?_MTOUCH_Proximity_Baseline_Get+2,w
 10303  029A  3BA7               	subwfb	??_Proximity_Deviation_Update+2,f
 10304  029B  0823               	movf	?_MTOUCH_Proximity_Baseline_Get+3,w
 10305  029C  3BA8               	subwfb	??_Proximity_Deviation_Update+3,f
 10306  029D  0828               	movf	??_Proximity_Deviation_Update+3,w
 10307  029E  00B2               	movwf	Proximity_Deviation_Update@deviation+3
 10308  029F  0827               	movf	??_Proximity_Deviation_Update+2,w
 10309  02A0  00B1               	movwf	Proximity_Deviation_Update@deviation+2
 10310  02A1  0826               	movf	??_Proximity_Deviation_Update+1,w
 10311  02A2  00B0               	movwf	Proximity_Deviation_Update@deviation+1
 10312  02A3  0825               	movf	??_Proximity_Deviation_Update,w
 10313  02A4  00AF               	movwf	Proximity_Deviation_Update@deviation
 10314  02A5                     l3453:	
 10315                           
 10316                           ;mcc_generated_files/mtouch/mtouch_proximity.c: 358:     deviation = deviation >> (mtouc
      +                          h_proximity[name].scaling);
 10317  02A5  082F               	movf	Proximity_Deviation_Update@deviation,w
 10318  02A6  00A5               	movwf	??_Proximity_Deviation_Update
 10319  02A7  0830               	movf	Proximity_Deviation_Update@deviation+1,w
 10320  02A8  00A6               	movwf	??_Proximity_Deviation_Update+1
 10321  02A9  0831               	movf	Proximity_Deviation_Update@deviation+2,w
 10322  02AA  00A7               	movwf	??_Proximity_Deviation_Update+2
 10323  02AB  0832               	movf	Proximity_Deviation_Update@deviation+3,w
 10324  02AC  00A8               	movwf	??_Proximity_Deviation_Update+3
 10325  02AD  0E33               	swapf	Proximity_Deviation_Update@name,w
 10326  02AE  39F0               	andlw	240
 10327  02AF  0733               	addwf	Proximity_Deviation_Update@name,w
 10328  02B0  0733               	addwf	Proximity_Deviation_Update@name,w
 10329  02B1  3E69               	addlw	(low ((_mtouch_proximity| 0+17)))& (0+255)
 10330  02B2  0086               	movwf	6
 10331  02B3  0187               	clrf	7
 10332  02B4  0A01               	incf	1,w
 10333  02B5  2ABA               	goto	u2700
 10334  02B6                     u2705:	
 10335  02B6  37A8               	asrf	??_Proximity_Deviation_Update+3,f
 10336  02B7  0CA7               	rrf	??_Proximity_Deviation_Update+2,f
 10337  02B8  0CA6               	rrf	??_Proximity_Deviation_Update+1,f
 10338  02B9  0CA5               	rrf	??_Proximity_Deviation_Update,f
 10339  02BA                     u2700:	
 10340  02BA  0B89               	decfsz	9,f
 10341  02BB  2AB6               	goto	u2705
 10342  02BC  0828               	movf	??_Proximity_Deviation_Update+3,w
 10343  02BD  00B2               	movwf	Proximity_Deviation_Update@deviation+3
 10344  02BE  0827               	movf	??_Proximity_Deviation_Update+2,w
 10345  02BF  00B1               	movwf	Proximity_Deviation_Update@deviation+2
 10346  02C0  0826               	movf	??_Proximity_Deviation_Update+1,w
 10347  02C1  00B0               	movwf	Proximity_Deviation_Update@deviation+1
 10348  02C2  0825               	movf	??_Proximity_Deviation_Update,w
 10349  02C3  00AF               	movwf	Proximity_Deviation_Update@deviation
 10350  02C4                     l3455:	
 10351                           
 10352                           ;mcc_generated_files/mtouch/mtouch_proximity.c: 361:     if (deviation > ((0x7f)))
 10353  02C4  1BB2               	btfsc	Proximity_Deviation_Update@deviation+3,7
 10354  02C5  2AD4               	goto	u2711
 10355  02C6  0832               	movf	Proximity_Deviation_Update@deviation+3,w
 10356  02C7  1D03               	btfss	3,2
 10357  02C8  2AD5               	goto	u2710
 10358  02C9  0831               	movf	Proximity_Deviation_Update@deviation+2,w
 10359  02CA  1D03               	btfss	3,2
 10360  02CB  2AD5               	goto	u2710
 10361  02CC  0830               	movf	Proximity_Deviation_Update@deviation+1,w
 10362  02CD  1D03               	btfss	3,2
 10363  02CE  2AD5               	goto	u2710
 10364  02CF  3080               	movlw	128
 10365  02D0  022F               	subwf	Proximity_Deviation_Update@deviation,w
 10366  02D1  1C03               	btfss	3,0
 10367  02D2  2AD4               	goto	u2711
 10368  02D3  2AD5               	goto	u2710
 10369  02D4                     u2711:	
 10370  02D4  2ADD               	goto	l3459
 10371  02D5                     u2710:	
 10372  02D5                     l3457:	
 10373                           
 10374                           ;mcc_generated_files/mtouch/mtouch_proximity.c: 362:     {;mcc_generated_files/mtouch/mt
      +                          ouch_proximity.c: 363:         deviation = ((0x7f));
 10375  02D5  3000               	movlw	0
 10376  02D6  00B2               	movwf	Proximity_Deviation_Update@deviation+3
 10377  02D7  3000               	movlw	0
 10378  02D8  00B1               	movwf	Proximity_Deviation_Update@deviation+2
 10379  02D9  3000               	movlw	0
 10380  02DA  00B0               	movwf	Proximity_Deviation_Update@deviation+1
 10381  02DB  307F               	movlw	127
 10382  02DC  00AF               	movwf	Proximity_Deviation_Update@deviation
 10383  02DD                     l3459:	
 10384                           
 10385                           ;mcc_generated_files/mtouch/mtouch_proximity.c: 365:     if (deviation < ((-1-0x7f)))
 10386  02DD  1FB2               	btfss	Proximity_Deviation_Update@deviation+3,7
 10387  02DE  2AEA               	goto	u2721
 10388  02DF  3080               	movlw	128
 10389  02E0  022F               	subwf	Proximity_Deviation_Update@deviation,w
 10390  02E1  30FF               	movlw	255
 10391  02E2  3B30               	subwfb	Proximity_Deviation_Update@deviation+1,w
 10392  02E3  30FF               	movlw	255
 10393  02E4  3B31               	subwfb	Proximity_Deviation_Update@deviation+2,w
 10394  02E5  30FF               	movlw	255
 10395  02E6  3B32               	subwfb	Proximity_Deviation_Update@deviation+3,w
 10396  02E7  1803               	btfsc	3,0
 10397  02E8  2AEA               	goto	u2721
 10398  02E9  2AEB               	goto	u2720
 10399  02EA                     u2721:	
 10400  02EA  2AF3               	goto	l3463
 10401  02EB                     u2720:	
 10402  02EB                     l3461:	
 10403                           
 10404                           ;mcc_generated_files/mtouch/mtouch_proximity.c: 366:     {;mcc_generated_files/mtouch/mt
      +                          ouch_proximity.c: 367:         deviation = ((-1-0x7f));
 10405  02EB  30FF               	movlw	255
 10406  02EC  00B2               	movwf	Proximity_Deviation_Update@deviation+3
 10407  02ED  30FF               	movlw	255
 10408  02EE  00B1               	movwf	Proximity_Deviation_Update@deviation+2
 10409  02EF  30FF               	movlw	255
 10410  02F0  00B0               	movwf	Proximity_Deviation_Update@deviation+1
 10411  02F1  3080               	movlw	128
 10412  02F2  00AF               	movwf	Proximity_Deviation_Update@deviation
 10413  02F3                     l3463:	
 10414                           
 10415                           ;mcc_generated_files/mtouch/mtouch_proximity.c: 370:     if(deviation < 0)
 10416  02F3  1FB2               	btfss	Proximity_Deviation_Update@deviation+3,7
 10417  02F4  2AF6               	goto	u2731
 10418  02F5  2AF7               	goto	u2730
 10419  02F6                     u2731:	
 10420  02F6  2B00               	goto	l3467
 10421  02F7                     u2730:	
 10422  02F7                     l3465:	
 10423                           
 10424                           ;mcc_generated_files/mtouch/mtouch_proximity.c: 371:     {;mcc_generated_files/mtouch/mt
      +                          ouch_proximity.c: 372:         mtouch_proximity[name].integratedDeviation = 0;
 10425  02F7  0E33               	swapf	Proximity_Deviation_Update@name,w
 10426  02F8  39F0               	andlw	240
 10427  02F9  0733               	addwf	Proximity_Deviation_Update@name,w
 10428  02FA  0733               	addwf	Proximity_Deviation_Update@name,w
 10429  02FB  3E63               	addlw	(low ((_mtouch_proximity| 0+11)))& (0+255)
 10430  02FC  0086               	movwf	6
 10431  02FD  0187               	clrf	7
 10432  02FE  0181               	clrf	1
 10433                           
 10434                           ;mcc_generated_files/mtouch/mtouch_proximity.c: 373:     }
 10435  02FF  2B98               	goto	l690
 10436  0300                     l3467:	
 10437  0300  082F               	movf	Proximity_Deviation_Update@deviation,w
 10438  0301  3A80               	xorlw	128
 10439  0302  00A5               	movwf	??_Proximity_Deviation_Update
 10440  0303  0E33               	swapf	Proximity_Deviation_Update@name,w
 10441  0304  39F0               	andlw	240
 10442  0305  0733               	addwf	Proximity_Deviation_Update@name,w
 10443  0306  0733               	addwf	Proximity_Deviation_Update@name,w
 10444  0307  3E68               	addlw	(low ((_mtouch_proximity| 0+16)))& (0+255)
 10445  0308  0086               	movwf	6
 10446  0309  0187               	clrf	7
 10447  030A  0801               	movf	1,w
 10448  030B  00A6               	movwf	??_Proximity_Deviation_Update+1
 10449  030C  3003               	movlw	3
 10450  030D                     u2745:	
 10451  030D  1003               	clrc
 10452  030E  1BA6               	btfsc	??_Proximity_Deviation_Update+1,7
 10453  030F  1403               	setc
 10454  0310  0CA6               	rrf	??_Proximity_Deviation_Update+1,f
 10455  0311  0B89               	decfsz	9,f
 10456  0312  2B0D               	goto	u2745
 10457  0313  0826               	movf	??_Proximity_Deviation_Update+1,w
 10458  0314  3A80               	xorlw	128
 10459  0315  02A5               	subwf	??_Proximity_Deviation_Update,f
 10460  0316  1803               	skipnc
 10461  0317  2B19               	goto	u2751
 10462  0318  2B1A               	goto	u2750
 10463  0319                     u2751:	
 10464  0319  2B34               	goto	l3473
 10465  031A                     u2750:	
 10466  031A                     l3469:	
 10467                           
 10468                           ;mcc_generated_files/mtouch/mtouch_proximity.c: 375:     {;mcc_generated_files/mtouch/mt
      +                          ouch_proximity.c: 377:         if(mtouch_proximity[name].integratedDeviation >0 )
 10469  031A  0E33               	swapf	Proximity_Deviation_Update@name,w
 10470  031B  39F0               	andlw	240
 10471  031C  0733               	addwf	Proximity_Deviation_Update@name,w
 10472  031D  0733               	addwf	Proximity_Deviation_Update@name,w
 10473  031E  3E63               	addlw	(low ((_mtouch_proximity| 0+11)))& (0+255)
 10474  031F  0086               	movwf	6
 10475  0320  0187               	clrf	7
 10476  0321  0801               	movf	1,w
 10477  0322  3A80               	xorlw	128
 10478  0323  3E7F               	addlw	-129
 10479  0324  1C03               	skipc
 10480  0325  2B27               	goto	u2761
 10481  0326  2B28               	goto	u2760
 10482  0327                     u2761:	
 10483  0327  2B98               	goto	l690
 10484  0328                     u2760:	
 10485  0328                     l3471:	
 10486                           
 10487                           ;mcc_generated_files/mtouch/mtouch_proximity.c: 378:             mtouch_proximity[name].
      +                          integratedDeviation--;
 10488  0328  30FF               	movlw	255
 10489  0329  00A5               	movwf	??_Proximity_Deviation_Update
 10490  032A  0E33               	swapf	Proximity_Deviation_Update@name,w
 10491  032B  39F0               	andlw	240
 10492  032C  0733               	addwf	Proximity_Deviation_Update@name,w
 10493  032D  0733               	addwf	Proximity_Deviation_Update@name,w
 10494  032E  3E63               	addlw	(low ((_mtouch_proximity| 0+11)))& (0+255)
 10495  032F  0086               	movwf	6
 10496  0330  0187               	clrf	7
 10497  0331  0825               	movf	??_Proximity_Deviation_Update,w
 10498  0332  0781               	addwf	1,f
 10499  0333  2B98               	goto	l690
 10500  0334                     l3473:	
 10501                           
 10502                           ;mcc_generated_files/mtouch/mtouch_proximity.c: 381:     {;mcc_generated_files/mtouch/mt
      +                          ouch_proximity.c: 382:         mtouch_proximity[name].integratedDeviation -= mtouch_prox
      +                          imity[name].integratedDeviation >> ((uint8_t)2u);;
 10503  0334  0E33               	swapf	Proximity_Deviation_Update@name,w
 10504  0335  39F0               	andlw	240
 10505  0336  0733               	addwf	Proximity_Deviation_Update@name,w
 10506  0337  0733               	addwf	Proximity_Deviation_Update@name,w
 10507  0338  3E63               	addlw	(low ((_mtouch_proximity| 0+11)))& (0+255)
 10508  0339  0086               	movwf	6
 10509  033A  0187               	clrf	7
 10510  033B  0801               	movf	1,w
 10511  033C  00A5               	movwf	??_Proximity_Deviation_Update
 10512  033D  3002               	movlw	2
 10513  033E                     u2775:	
 10514  033E  1003               	clrc
 10515  033F  1BA5               	btfsc	??_Proximity_Deviation_Update,7
 10516  0340  1403               	setc
 10517  0341  0CA5               	rrf	??_Proximity_Deviation_Update,f
 10518  0342  0B89               	decfsz	9,f
 10519  0343  2B3E               	goto	u2775
 10520  0344  0E33               	swapf	Proximity_Deviation_Update@name,w
 10521  0345  39F0               	andlw	240
 10522  0346  0733               	addwf	Proximity_Deviation_Update@name,w
 10523  0347  0733               	addwf	Proximity_Deviation_Update@name,w
 10524  0348  3E63               	addlw	(low ((_mtouch_proximity| 0+11)))& (0+255)
 10525  0349  0086               	movwf	6
 10526  034A  0187               	clrf	7
 10527  034B  0825               	movf	??_Proximity_Deviation_Update,w
 10528  034C  0281               	subwf	1,f
 10529                           
 10530                           ;mcc_generated_files/mtouch/mtouch_proximity.c: 383:         if(((0x7f)) - mtouch_proxim
      +                          ity[name].integratedDeviation > deviation)
 10531  034D  0E33               	swapf	Proximity_Deviation_Update@name,w
 10532  034E  39F0               	andlw	240
 10533  034F  0733               	addwf	Proximity_Deviation_Update@name,w
 10534  0350  0733               	addwf	Proximity_Deviation_Update@name,w
 10535  0351  3E63               	addlw	(low ((_mtouch_proximity| 0+11)))& (0+255)
 10536  0352  0086               	movwf	6
 10537  0353  0187               	clrf	7
 10538  0354  0801               	movf	1,w
 10539  0355  00A5               	movwf	??_Proximity_Deviation_Update
 10540  0356  01A6               	clrf	??_Proximity_Deviation_Update+1
 10541  0357  1BA5               	btfsc	??_Proximity_Deviation_Update,7
 10542  0358  03A6               	decf	??_Proximity_Deviation_Update+1,f
 10543  0359  307F               	movlw	127
 10544  035A  00A7               	movwf	??_Proximity_Deviation_Update+2
 10545  035B  0825               	movf	??_Proximity_Deviation_Update,w
 10546  035C  0227               	subwf	??_Proximity_Deviation_Update+2,w
 10547  035D  00A8               	movwf	??_Proximity_Deviation_Update+3
 10548  035E  0926               	comf	??_Proximity_Deviation_Update+1,w
 10549  035F  1803               	skipnc
 10550  0360  0A89               	incf	9,f
 10551  0361  00A9               	movwf	??_Proximity_Deviation_Update+4
 10552  0362  0828               	movf	??_Proximity_Deviation_Update+3,w
 10553  0363  00AA               	movwf	??_Proximity_Deviation_Update+5
 10554  0364  0829               	movf	??_Proximity_Deviation_Update+4,w
 10555  0365  00AB               	movwf	??_Proximity_Deviation_Update+6
 10556  0366  3000               	movlw	0
 10557  0367  1BAB               	btfsc	??_Proximity_Deviation_Update+6,7
 10558  0368  30FF               	movlw	255
 10559  0369  00AC               	movwf	??_Proximity_Deviation_Update+7
 10560  036A  00AD               	movwf	??_Proximity_Deviation_Update+8
 10561  036B  0832               	movf	Proximity_Deviation_Update@deviation+3,w
 10562  036C  3A80               	xorlw	128
 10563  036D  00AE               	movwf	??_Proximity_Deviation_Update+9
 10564  036E  082D               	movf	??_Proximity_Deviation_Update+8,w
 10565  036F  3A80               	xorlw	128
 10566  0370  022E               	subwf	??_Proximity_Deviation_Update+9,w
 10567  0371  1D03               	skipz
 10568  0372  2B7D               	goto	u2783
 10569  0373  082C               	movf	??_Proximity_Deviation_Update+7,w
 10570  0374  0231               	subwf	Proximity_Deviation_Update@deviation+2,w
 10571  0375  1D03               	skipz
 10572  0376  2B7D               	goto	u2783
 10573  0377  082B               	movf	??_Proximity_Deviation_Update+6,w
 10574  0378  0230               	subwf	Proximity_Deviation_Update@deviation+1,w
 10575  0379  1D03               	skipz
 10576  037A  2B7D               	goto	u2783
 10577  037B  082A               	movf	??_Proximity_Deviation_Update+5,w
 10578  037C  022F               	subwf	Proximity_Deviation_Update@deviation,w
 10579  037D                     u2783:	
 10580  037D  1803               	skipnc
 10581  037E  2B80               	goto	u2781
 10582  037F  2B81               	goto	u2780
 10583  0380                     u2781:	
 10584  0380  2B8D               	goto	l3477
 10585  0381                     u2780:	
 10586  0381                     l3475:	
 10587                           
 10588                           ;mcc_generated_files/mtouch/mtouch_proximity.c: 384:             mtouch_proximity[name].
      +                          integratedDeviation += deviation;
 10589  0381  082F               	movf	Proximity_Deviation_Update@deviation,w
 10590  0382  00A5               	movwf	??_Proximity_Deviation_Update
 10591  0383  0E33               	swapf	Proximity_Deviation_Update@name,w
 10592  0384  39F0               	andlw	240
 10593  0385  0733               	addwf	Proximity_Deviation_Update@name,w
 10594  0386  0733               	addwf	Proximity_Deviation_Update@name,w
 10595  0387  3E63               	addlw	(low ((_mtouch_proximity| 0+11)))& (0+255)
 10596  0388  0086               	movwf	6
 10597  0389  0187               	clrf	7
 10598  038A  0825               	movf	??_Proximity_Deviation_Update,w
 10599  038B  0781               	addwf	1,f
 10600  038C  2B98               	goto	l690
 10601  038D                     l3477:	
 10602                           
 10603                           ;mcc_generated_files/mtouch/mtouch_proximity.c: 386:             mtouch_proximity[name].
      +                          integratedDeviation = ((0x7f));
 10604  038D  307F               	movlw	127
 10605  038E  00A5               	movwf	??_Proximity_Deviation_Update
 10606  038F  0E33               	swapf	Proximity_Deviation_Update@name,w
 10607  0390  39F0               	andlw	240
 10608  0391  0733               	addwf	Proximity_Deviation_Update@name,w
 10609  0392  0733               	addwf	Proximity_Deviation_Update@name,w
 10610  0393  3E63               	addlw	(low ((_mtouch_proximity| 0+11)))& (0+255)
 10611  0394  0086               	movwf	6
 10612  0395  0187               	clrf	7
 10613  0396  0825               	movf	??_Proximity_Deviation_Update,w
 10614  0397  0081               	movwf	1
 10615  0398                     l690:	
 10616  0398  0008               	return
 10617  0399                     __end_of_Proximity_Deviation_Update:	
 10618                           
 10619                           	psect	text65
 10620  08AA                     __ptext65:	
 10621 ;; *************** function _MTOUCH_Sensor_wasSampled *****************
 10622 ;; Defined at:
 10623 ;;		line 942 in file "mcc_generated_files/mtouch/mtouch_sensor.c"
 10624 ;; Parameters:    Size  Location     Type
 10625 ;;  sensor          1    wreg     enum E2854
 10626 ;; Auto vars:     Size  Location     Type
 10627 ;;  sensor          1    6[COMMON] enum E2854
 10628 ;; Return value:  Size  Location     Type
 10629 ;;                  1    wreg      _Bool 
 10630 ;; Registers used:
 10631 ;;		wreg, fsr1l, fsr1h, status,2, status,0, pclath, cstack
 10632 ;; Tracked objects:
 10633 ;;		On entry : 0/0
 10634 ;;		On exit  : 0/0
 10635 ;;		Unchanged: 0/0
 10636 ;; Data sizes:     COMMON   BANK0   BANK1   BANK2   BANK3   BANK4   BANK5   BANK6
 10637 ;;      Params:         0       0       0       0       0       0       0       0
 10638 ;;      Locals:         1       0       0       0       0       0       0       0
 10639 ;;      Temps:          1       0       0       0       0       0       0       0
 10640 ;;      Totals:         2       0       0       0       0       0       0       0
 10641 ;;Total ram usage:        2 bytes
 10642 ;; Hardware stack levels used:    1
 10643 ;; Hardware stack levels required when called:    5
 10644 ;; This function calls:
 10645 ;;		___bmul
 10646 ;; This function is called by:
 10647 ;;		_Proximity_Service
 10648 ;; This function uses a non-reentrant model
 10649 ;;
 10650                           
 10651                           
 10652                           ;psect for function _MTOUCH_Sensor_wasSampled
 10653  08AA                     _MTOUCH_Sensor_wasSampled:	
 10654                           
 10655                           ;incstack = 0
 10656                           ; Regs used in _MTOUCH_Sensor_wasSampled: [wreg+fsr1l+fsr1h+status,2+status,0+pclath+cst
      +                          ack]
 10657                           ;MTOUCH_Sensor_wasSampled@sensor stored from wreg
 10658  08AA  00F6               	movwf	MTOUCH_Sensor_wasSampled@sensor
 10659  08AB                     l4455:	
 10660                           
 10661                           ;mcc_generated_files/mtouch/mtouch_sensor.c: 942: _Bool MTOUCH_Sensor_wasSampled(enum mt
      +                          ouch_sensor_names sensor);mcc_generated_files/mtouch/mtouch_sensor.c: 943: {;mcc_generat
      +                          ed_files/mtouch/mtouch_sensor.c: 944:     return (_Bool)mtouch_sensor[sensor].sampled;
 10662  08AB  3009               	movlw	9
 10663  08AC  00F5               	movwf	??_MTOUCH_Sensor_wasSampled
 10664  08AD  0875               	movf	??_MTOUCH_Sensor_wasSampled,w
 10665  08AE  00F1               	movwf	___bmul@multiplicand
 10666  08AF  0876               	movf	MTOUCH_Sensor_wasSampled@sensor,w
 10667  08B0  3189  2197  3188   	fcall	___bmul
 10668  08B3  3EC3               	addlw	(low ((_mtouch_sensor| 0+8)))& (0+255)
 10669  08B4  0086               	movwf	6
 10670  08B5  0187               	clrf	7
 10671  08B6  0801               	movf	1,w
 10672  08B7  3901               	andlw	1
 10673  08B8                     l517:	
 10674  08B8  0008               	return
 10675  08B9                     __end_of_MTOUCH_Sensor_wasSampled:	
 10676                           
 10677                           	psect	text66
 10678  09EC                     __ptext66:	
 10679 ;; *************** function _MTOUCH_Sensor_isCalibrated *****************
 10680 ;; Defined at:
 10681 ;;		line 895 in file "mcc_generated_files/mtouch/mtouch_sensor.c"
 10682 ;; Parameters:    Size  Location     Type
 10683 ;;  sensor          1    wreg     enum E2854
 10684 ;; Auto vars:     Size  Location     Type
 10685 ;;  sensor          1    6[COMMON] enum E2854
 10686 ;; Return value:  Size  Location     Type
 10687 ;;                  1    wreg      _Bool 
 10688 ;; Registers used:
 10689 ;;		wreg, fsr1l, fsr1h, status,2, status,0, pclath, cstack
 10690 ;; Tracked objects:
 10691 ;;		On entry : 0/0
 10692 ;;		On exit  : 0/0
 10693 ;;		Unchanged: 0/0
 10694 ;; Data sizes:     COMMON   BANK0   BANK1   BANK2   BANK3   BANK4   BANK5   BANK6
 10695 ;;      Params:         0       0       0       0       0       0       0       0
 10696 ;;      Locals:         1       0       0       0       0       0       0       0
 10697 ;;      Temps:          1       0       0       0       0       0       0       0
 10698 ;;      Totals:         2       0       0       0       0       0       0       0
 10699 ;;Total ram usage:        2 bytes
 10700 ;; Hardware stack levels used:    1
 10701 ;; Hardware stack levels required when called:    5
 10702 ;; This function calls:
 10703 ;;		___bmul
 10704 ;; This function is called by:
 10705 ;;		_Proximity_Service
 10706 ;; This function uses a non-reentrant model
 10707 ;;
 10708                           
 10709                           
 10710                           ;psect for function _MTOUCH_Sensor_isCalibrated
 10711  09EC                     _MTOUCH_Sensor_isCalibrated:	
 10712                           
 10713                           ;incstack = 0
 10714                           ; Regs used in _MTOUCH_Sensor_isCalibrated: [wreg+fsr1l+fsr1h+status,2+status,0+pclath+c
      +                          stack]
 10715                           ;MTOUCH_Sensor_isCalibrated@sensor stored from wreg
 10716  09EC  00F6               	movwf	MTOUCH_Sensor_isCalibrated@sensor
 10717  09ED                     l4443:	
 10718                           
 10719                           ;mcc_generated_files/mtouch/mtouch_sensor.c: 895: _Bool MTOUCH_Sensor_isCalibrated(enum 
      +                          mtouch_sensor_names sensor);mcc_generated_files/mtouch/mtouch_sensor.c: 896: {;mcc_gener
      +                          ated_files/mtouch/mtouch_sensor.c: 897:     if(sensor < 1u)
 10720  09ED  0876               	movf	MTOUCH_Sensor_isCalibrated@sensor,w
 10721  09EE  1D03               	btfss	3,2
 10722  09EF  29F1               	goto	u4111
 10723  09F0  29F2               	goto	u4110
 10724  09F1                     u4111:	
 10725  09F1  2A01               	goto	l4451
 10726  09F2                     u4110:	
 10727  09F2                     l4445:	
 10728                           
 10729                           ;mcc_generated_files/mtouch/mtouch_sensor.c: 898:         return (_Bool)mtouch_sensor[se
      +                          nsor].calibrated;
 10730  09F2  3009               	movlw	9
 10731  09F3  00F5               	movwf	??_MTOUCH_Sensor_isCalibrated
 10732  09F4  0875               	movf	??_MTOUCH_Sensor_isCalibrated,w
 10733  09F5  00F1               	movwf	___bmul@multiplicand
 10734  09F6  0876               	movf	MTOUCH_Sensor_isCalibrated@sensor,w
 10735  09F7  3189  2197  3189   	fcall	___bmul
 10736  09FA  3EC3               	addlw	(low ((_mtouch_sensor| 0+8)))& (0+255)
 10737  09FB  0086               	movwf	6
 10738  09FC  0187               	clrf	7
 10739  09FD  0C01               	rrf	1,w
 10740  09FE  0C89               	rrf	9,f
 10741  09FF  3901               	andlw	1
 10742  0A00  2A02               	goto	l496
 10743  0A01                     l4451:	
 10744                           
 10745                           ;mcc_generated_files/mtouch/mtouch_sensor.c: 900:         return 0;
 10746  0A01  3000               	movlw	0
 10747  0A02                     l496:	
 10748  0A02  0008               	return
 10749  0A03                     __end_of_MTOUCH_Sensor_isCalibrated:	
 10750                           
 10751                           	psect	text67
 10752  046E                     __ptext67:	
 10753 ;; *************** function _MTOUCH_DataStreamer_Service *****************
 10754 ;; Defined at:
 10755 ;;		line 69 in file "mcc_generated_files/mtouch/mtouch_datastreamer.c"
 10756 ;; Parameters:    Size  Location     Type
 10757 ;;		None
 10758 ;; Auto vars:     Size  Location     Type
 10759 ;;  u16temp_outp    2    8[BANK0 ] unsigned short 
 10760 ;;  count_bytes_    1   10[BANK0 ] volatile unsigned char 
 10761 ;;  i               1    7[BANK0 ] unsigned char 
 10762 ;;  u8temp_outpu    1    0        unsigned char 
 10763 ;; Return value:  Size  Location     Type
 10764 ;;                  1    wreg      void 
 10765 ;; Registers used:
 10766 ;;		wreg, fsr1l, fsr1h, status,2, status,0, pclath, cstack
 10767 ;; Tracked objects:
 10768 ;;		On entry : 0/0
 10769 ;;		On exit  : 0/0
 10770 ;;		Unchanged: 0/0
 10771 ;; Data sizes:     COMMON   BANK0   BANK1   BANK2   BANK3   BANK4   BANK5   BANK6
 10772 ;;      Params:         0       0       0       0       0       0       0       0
 10773 ;;      Locals:         0       4       0       0       0       0       0       0
 10774 ;;      Temps:          0       2       0       0       0       0       0       0
 10775 ;;      Totals:         0       6       0       0       0       0       0       0
 10776 ;;Total ram usage:        6 bytes
 10777 ;; Hardware stack levels used:    1
 10778 ;; Hardware stack levels required when called:    6
 10779 ;; This function calls:
 10780 ;;		_MTOUCH_Proximity_Baseline_Get
 10781 ;;		_MTOUCH_Proximity_Deviation_Get
 10782 ;;		_MTOUCH_Proximity_Reading_Get
 10783 ;;		_MTOUCH_Proximity_Scaling_Get
 10784 ;;		_MTOUCH_Proximity_Threshold_Get
 10785 ;;		_MTOUCH_Proximity_isActivated
 10786 ;;		_MTOUCH_Sensor_AcquisitionTime_Get
 10787 ;;		_MTOUCH_Sensor_AdditionalCap_Get
 10788 ;;		___awmod
 10789 ;;		_datastreamer_output_byte
 10790 ;; This function is called by:
 10791 ;;		_MTOUCH_Service_Mainloop
 10792 ;; This function uses a non-reentrant model
 10793 ;;
 10794                           
 10795                           
 10796                           ;psect for function _MTOUCH_DataStreamer_Service
 10797  046E                     _MTOUCH_DataStreamer_Service:	
 10798  046E                     l4599:	
 10799                           ;incstack = 0
 10800                           ; Regs used in _MTOUCH_DataStreamer_Service: [wreg+fsr1l+fsr1h+status,2+status,0+pclath+
      +                          cstack]
 10801                           
 10802                           
 10803                           ;mcc_generated_files/mtouch/mtouch_datastreamer.c: 71:     uint8_t i;;mcc_generated_file
      +                          s/mtouch/mtouch_datastreamer.c: 72:     static uint8_t sequence = 0u;;mcc_generated_file
      +                          s/mtouch/mtouch_datastreamer.c: 73:     uint16_t u16temp_output;;mcc_generated_files/mto
      +                          uch/mtouch_datastreamer.c: 74:     uint8_t u8temp_output;;mcc_generated_files/mtouch/mto
      +                          uch_datastreamer.c: 75:     volatile uint8_t count_bytes_out;;mcc_generated_files/mtouch
      +                          /mtouch_datastreamer.c: 77:     if ((sequence % 10) == 0)
 10804  046E  300A               	movlw	10
 10805  046F  00F1               	movwf	___awmod@divisor
 10806  0470  3000               	movlw	0
 10807  0471  00F2               	movwf	___awmod@divisor+1
 10808  0472  0020               	movlb	0	; select bank0
 10809  0473  0850               	movf	MTOUCH_DataStreamer_Service@sequence,w
 10810  0474  00A5               	movwf	??_MTOUCH_DataStreamer_Service
 10811  0475  01A6               	clrf	??_MTOUCH_DataStreamer_Service+1
 10812  0476  0825               	movf	??_MTOUCH_DataStreamer_Service,w
 10813  0477  00F3               	movwf	___awmod@dividend
 10814  0478  0826               	movf	??_MTOUCH_DataStreamer_Service+1,w
 10815  0479  00F4               	movwf	___awmod@dividend+1
 10816  047A  318D  25D2  3184   	fcall	___awmod
 10817  047D  0871               	movf	?___awmod,w
 10818  047E  0472               	iorwf	?___awmod+1,w
 10819  047F  1D03               	btfss	3,2
 10820  0480  2C82               	goto	u4271
 10821  0481  2C83               	goto	u4270
 10822  0482                     u4271:	
 10823  0482  2C98               	goto	l4613
 10824  0483                     u4270:	
 10825  0483                     l4601:	
 10826                           
 10827                           ;mcc_generated_files/mtouch/mtouch_datastreamer.c: 78:     {;mcc_generated_files/mtouch/
      +                          mtouch_datastreamer.c: 79:         for (i = 0; i < sizeof (data); i++)
 10828  0483  0020               	movlb	0	; select bank0
 10829  0484  01A7               	clrf	MTOUCH_DataStreamer_Service@i
 10830  0485                     l4607:	
 10831                           
 10832                           ;mcc_generated_files/mtouch/mtouch_datastreamer.c: 80:             datastreamer_output_b
      +                          yte(data[i]);
 10833  0485  0827               	movf	MTOUCH_DataStreamer_Service@i,w
 10834  0486  3EA0               	addlw	(low (_data| 0))& (0+255)
 10835  0487  0086               	movwf	6
 10836  0488  0187               	clrf	7
 10837  0489  0801               	movf	1,w
 10838  048A  3188  202D  3184   	fcall	_datastreamer_output_byte
 10839  048D                     l4609:	
 10840  048D  3001               	movlw	1
 10841  048E  0020               	movlb	0	; select bank0
 10842  048F  00A5               	movwf	??_MTOUCH_DataStreamer_Service
 10843  0490  0825               	movf	??_MTOUCH_DataStreamer_Service,w
 10844  0491  07A7               	addwf	MTOUCH_DataStreamer_Service@i,f
 10845  0492                     l4611:	
 10846  0492  3013               	movlw	19
 10847  0493  0227               	subwf	MTOUCH_DataStreamer_Service@i,w
 10848  0494  1C03               	skipc
 10849  0495  2C97               	goto	u4281
 10850  0496  2C98               	goto	u4280
 10851  0497                     u4281:	
 10852  0497  2C85               	goto	l4607
 10853  0498                     u4280:	
 10854  0498                     l4613:	
 10855                           
 10856                           ;mcc_generated_files/mtouch/mtouch_datastreamer.c: 84:     datastreamer_output_byte(0x55
      +                          );
 10857  0498  3055               	movlw	85
 10858  0499  3188  202D  3184   	fcall	_datastreamer_output_byte
 10859                           
 10860                           ;mcc_generated_files/mtouch/mtouch_datastreamer.c: 86:     datastreamer_output_byte(sequ
      +                          ence);
 10861  049C  0020               	movlb	0	; select bank0
 10862  049D  0850               	movf	MTOUCH_DataStreamer_Service@sequence,w
 10863  049E  3188  202D  3184   	fcall	_datastreamer_output_byte
 10864  04A1                     l4615:	
 10865                           
 10866                           ;mcc_generated_files/mtouch/mtouch_datastreamer.c: 89:     for (count_bytes_out = 0u; co
      +                          unt_bytes_out < 1u; count_bytes_out++)
 10867  04A1  0020               	movlb	0	; select bank0
 10868  04A2  01AA               	clrf	MTOUCH_DataStreamer_Service@count_bytes_out	;volatile
 10869  04A3                     l4617:	
 10870  04A3  082A               	movf	MTOUCH_DataStreamer_Service@count_bytes_out,w	;volatile
 10871  04A4  1903               	btfsc	3,2
 10872  04A5  2CA7               	goto	u4291
 10873  04A6  2CA8               	goto	u4290
 10874  04A7                     u4291:	
 10875  04A7  2CA9               	goto	l4621
 10876  04A8                     u4290:	
 10877  04A8  2D0C               	goto	l4627
 10878  04A9                     l4621:	
 10879                           
 10880                           ;mcc_generated_files/mtouch/mtouch_datastreamer.c: 90:     {;mcc_generated_files/mtouch/
      +                          mtouch_datastreamer.c: 91:         u16temp_output = MTOUCH_Proximity_Reading_Get(count_b
      +                          ytes_out);
 10881  04A9  082A               	movf	MTOUCH_DataStreamer_Service@count_bytes_out,w	;volatile
 10882  04AA  318A  22D8  3184   	fcall	_MTOUCH_Proximity_Reading_Get
 10883  04AD  0872               	movf	?_MTOUCH_Proximity_Reading_Get+1,w
 10884  04AE  0020               	movlb	0	; select bank0
 10885  04AF  00A9               	movwf	MTOUCH_DataStreamer_Service@u16temp_output+1
 10886  04B0  0871               	movf	?_MTOUCH_Proximity_Reading_Get,w
 10887  04B1  00A8               	movwf	MTOUCH_DataStreamer_Service@u16temp_output
 10888                           
 10889                           ;mcc_generated_files/mtouch/mtouch_datastreamer.c: 92:         datastreamer_output_byte(
      +                          (uint8_t) u16temp_output);
 10890  04B2  0828               	movf	MTOUCH_DataStreamer_Service@u16temp_output,w
 10891  04B3  3188  202D  3184   	fcall	_datastreamer_output_byte
 10892                           
 10893                           ;mcc_generated_files/mtouch/mtouch_datastreamer.c: 93:         datastreamer_output_byte(
      +                          (uint8_t) (u16temp_output >> 8u));
 10894  04B6  0020               	movlb	0	; select bank0
 10895  04B7  0829               	movf	MTOUCH_DataStreamer_Service@u16temp_output+1,w
 10896  04B8  3188  202D  3184   	fcall	_datastreamer_output_byte
 10897                           
 10898                           ;mcc_generated_files/mtouch/mtouch_datastreamer.c: 95:         u16temp_output = MTOUCH_P
      +                          roximity_Baseline_Get(count_bytes_out);
 10899  04BB  0020               	movlb	0	; select bank0
 10900  04BC  082A               	movf	MTOUCH_DataStreamer_Service@count_bytes_out,w	;volatile
 10901  04BD  318A  229C  3184   	fcall	_MTOUCH_Proximity_Baseline_Get
 10902  04C0  0020               	movlb	0	; select bank0
 10903  04C1  0821               	movf	?_MTOUCH_Proximity_Baseline_Get+1,w
 10904  04C2  00A9               	movwf	MTOUCH_DataStreamer_Service@u16temp_output+1
 10905  04C3  0820               	movf	?_MTOUCH_Proximity_Baseline_Get,w
 10906  04C4  00A8               	movwf	MTOUCH_DataStreamer_Service@u16temp_output
 10907                           
 10908                           ;mcc_generated_files/mtouch/mtouch_datastreamer.c: 96:         datastreamer_output_byte(
      +                          (uint8_t) u16temp_output);
 10909  04C5  0828               	movf	MTOUCH_DataStreamer_Service@u16temp_output,w
 10910  04C6  3188  202D  3184   	fcall	_datastreamer_output_byte
 10911                           
 10912                           ;mcc_generated_files/mtouch/mtouch_datastreamer.c: 97:         datastreamer_output_byte(
      +                          (uint8_t) (u16temp_output >> 8u));
 10913  04C9  0020               	movlb	0	; select bank0
 10914  04CA  0829               	movf	MTOUCH_DataStreamer_Service@u16temp_output+1,w
 10915  04CB  3188  202D  3184   	fcall	_datastreamer_output_byte
 10916                           
 10917                           ;mcc_generated_files/mtouch/mtouch_datastreamer.c: 99:         u16temp_output = MTOUCH_P
      +                          roximity_Deviation_Get(count_bytes_out);
 10918  04CE  0020               	movlb	0	; select bank0
 10919  04CF  082A               	movf	MTOUCH_DataStreamer_Service@count_bytes_out,w	;volatile
 10920  04D0  3188  20F7  3184   	fcall	_MTOUCH_Proximity_Deviation_Get
 10921  04D3  0020               	movlb	0	; select bank0
 10922  04D4  00A8               	movwf	MTOUCH_DataStreamer_Service@u16temp_output
 10923  04D5  01A9               	clrf	MTOUCH_DataStreamer_Service@u16temp_output+1
 10924  04D6  1BA8               	btfsc	MTOUCH_DataStreamer_Service@u16temp_output,7
 10925  04D7  03A9               	decf	MTOUCH_DataStreamer_Service@u16temp_output+1,f
 10926                           
 10927                           ;mcc_generated_files/mtouch/mtouch_datastreamer.c: 100:         datastreamer_output_byte
      +                          ((uint8_t) u16temp_output);
 10928  04D8  0828               	movf	MTOUCH_DataStreamer_Service@u16temp_output,w
 10929  04D9  3188  202D  3184   	fcall	_datastreamer_output_byte
 10930                           
 10931                           ;mcc_generated_files/mtouch/mtouch_datastreamer.c: 101:         datastreamer_output_byte
      +                          ((uint8_t) (u16temp_output >> 8u));
 10932  04DC  0020               	movlb	0	; select bank0
 10933  04DD  0829               	movf	MTOUCH_DataStreamer_Service@u16temp_output+1,w
 10934  04DE  3188  202D  3184   	fcall	_datastreamer_output_byte
 10935                           
 10936                           ;mcc_generated_files/mtouch/mtouch_datastreamer.c: 103:         u16temp_output = MTOUCH_
      +                          Proximity_Scaling_Get(count_bytes_out);
 10937  04E1  0020               	movlb	0	; select bank0
 10938  04E2  082A               	movf	MTOUCH_DataStreamer_Service@count_bytes_out,w	;volatile
 10939  04E3  3189  2108  3184   	fcall	_MTOUCH_Proximity_Scaling_Get
 10940  04E6  0020               	movlb	0	; select bank0
 10941  04E7  00A5               	movwf	??_MTOUCH_DataStreamer_Service
 10942  04E8  01A6               	clrf	??_MTOUCH_DataStreamer_Service+1
 10943  04E9  0825               	movf	??_MTOUCH_DataStreamer_Service,w
 10944  04EA  00A8               	movwf	MTOUCH_DataStreamer_Service@u16temp_output
 10945  04EB  0826               	movf	??_MTOUCH_DataStreamer_Service+1,w
 10946  04EC  00A9               	movwf	MTOUCH_DataStreamer_Service@u16temp_output+1
 10947                           
 10948                           ;mcc_generated_files/mtouch/mtouch_datastreamer.c: 104:         datastreamer_output_byte
      +                          ((uint8_t) u16temp_output);
 10949  04ED  0828               	movf	MTOUCH_DataStreamer_Service@u16temp_output,w
 10950  04EE  3188  202D  3184   	fcall	_datastreamer_output_byte
 10951                           
 10952                           ;mcc_generated_files/mtouch/mtouch_datastreamer.c: 105:         datastreamer_output_byte
      +                          ((uint8_t) (u16temp_output >> 8u));
 10953  04F1  0020               	movlb	0	; select bank0
 10954  04F2  0829               	movf	MTOUCH_DataStreamer_Service@u16temp_output+1,w
 10955  04F3  3188  202D  3184   	fcall	_datastreamer_output_byte
 10956                           
 10957                           ;mcc_generated_files/mtouch/mtouch_datastreamer.c: 107:         datastreamer_output_byte
      +                          (MTOUCH_Proximity_Threshold_Get(count_bytes_out));
 10958  04F6  0020               	movlb	0	; select bank0
 10959  04F7  082A               	movf	MTOUCH_DataStreamer_Service@count_bytes_out,w	;volatile
 10960  04F8  3189  2119  3184   	fcall	_MTOUCH_Proximity_Threshold_Get
 10961  04FB  3188  202D  3184   	fcall	_datastreamer_output_byte
 10962                           
 10963                           ;mcc_generated_files/mtouch/mtouch_datastreamer.c: 109:         datastreamer_output_byte
      +                          (MTOUCH_Proximity_isActivated(count_bytes_out));
 10964  04FE  0020               	movlb	0	; select bank0
 10965  04FF  082A               	movf	MTOUCH_DataStreamer_Service@count_bytes_out,w	;volatile
 10966  0500  318A  2203  3184   	fcall	_MTOUCH_Proximity_isActivated
 10967  0503  3188  202D  3184   	fcall	_datastreamer_output_byte
 10968  0506                     l4623:	
 10969                           
 10970                           ;mcc_generated_files/mtouch/mtouch_datastreamer.c: 111:     }
 10971  0506  3001               	movlw	1
 10972  0507  0020               	movlb	0	; select bank0
 10973  0508  00A5               	movwf	??_MTOUCH_DataStreamer_Service
 10974  0509  0825               	movf	??_MTOUCH_DataStreamer_Service,w
 10975  050A  07AA               	addwf	MTOUCH_DataStreamer_Service@count_bytes_out,f	;volatile
 10976  050B  2CA3               	goto	l4617
 10977  050C                     l4627:	
 10978                           
 10979                           ;mcc_generated_files/mtouch/mtouch_datastreamer.c: 114:     for (count_bytes_out = 0u; c
      +                          ount_bytes_out < 1u; count_bytes_out++)
 10980  050C  01AA               	clrf	MTOUCH_DataStreamer_Service@count_bytes_out	;volatile
 10981  050D                     l4629:	
 10982  050D  082A               	movf	MTOUCH_DataStreamer_Service@count_bytes_out,w	;volatile
 10983  050E  1903               	btfsc	3,2
 10984  050F  2D11               	goto	u4301
 10985  0510  2D12               	goto	u4300
 10986  0511                     u4301:	
 10987  0511  2D13               	goto	l4633
 10988  0512                     u4300:	
 10989  0512  2D28               	goto	l4639
 10990  0513                     l4633:	
 10991                           
 10992                           ;mcc_generated_files/mtouch/mtouch_datastreamer.c: 115:     {;mcc_generated_files/mtouch
      +                          /mtouch_datastreamer.c: 116:         datastreamer_output_byte((uint8_t) MTOUCH_Sensor_Ad
      +                          ditionalCap_Get(count_bytes_out));
 10993  0513  082A               	movf	MTOUCH_DataStreamer_Service@count_bytes_out,w	;volatile
 10994  0514  3189  21C1  3184   	fcall	_MTOUCH_Sensor_AdditionalCap_Get
 10995  0517  3188  202D  3184   	fcall	_datastreamer_output_byte
 10996                           
 10997                           ;mcc_generated_files/mtouch/mtouch_datastreamer.c: 117:         datastreamer_output_byte
      +                          ((uint8_t) MTOUCH_Sensor_AcquisitionTime_Get(count_bytes_out));
 10998  051A  0020               	movlb	0	; select bank0
 10999  051B  082A               	movf	MTOUCH_DataStreamer_Service@count_bytes_out,w	;volatile
 11000  051C  3189  21AC  3184   	fcall	_MTOUCH_Sensor_AcquisitionTime_Get
 11001  051F  3188  202D  3184   	fcall	_datastreamer_output_byte
 11002  0522                     l4635:	
 11003                           
 11004                           ;mcc_generated_files/mtouch/mtouch_datastreamer.c: 118:     }
 11005  0522  3001               	movlw	1
 11006  0523  0020               	movlb	0	; select bank0
 11007  0524  00A5               	movwf	??_MTOUCH_DataStreamer_Service
 11008  0525  0825               	movf	??_MTOUCH_DataStreamer_Service,w
 11009  0526  07AA               	addwf	MTOUCH_DataStreamer_Service@count_bytes_out,f	;volatile
 11010  0527  2D0D               	goto	l4629
 11011  0528                     l4639:	
 11012                           
 11013                           ;mcc_generated_files/mtouch/mtouch_datastreamer.c: 122:     datastreamer_output_byte(seq
      +                          uence++);
 11014  0528  0850               	movf	MTOUCH_DataStreamer_Service@sequence,w
 11015  0529  3188  202D  3184   	fcall	_datastreamer_output_byte
 11016  052C                     l4641:	
 11017  052C  3001               	movlw	1
 11018  052D  0020               	movlb	0	; select bank0
 11019  052E  00A5               	movwf	??_MTOUCH_DataStreamer_Service
 11020  052F  0825               	movf	??_MTOUCH_DataStreamer_Service,w
 11021  0530  07D0               	addwf	MTOUCH_DataStreamer_Service@sequence,f
 11022  0531                     l4643:	
 11023                           
 11024                           ;mcc_generated_files/mtouch/mtouch_datastreamer.c: 125:     datastreamer_output_byte(~0x
      +                          55);
 11025  0531  30AA               	movlw	170
 11026  0532  3188  202D  3184   	fcall	_datastreamer_output_byte
 11027  0535                     l859:	
 11028  0535  0008               	return
 11029  0536                     __end_of_MTOUCH_DataStreamer_Service:	
 11030                           
 11031                           	psect	text68
 11032  082D                     __ptext68:	
 11033 ;; *************** function _datastreamer_output_byte *****************
 11034 ;; Defined at:
 11035 ;;		line 64 in file "mcc_generated_files/mtouch/mtouch_datastreamer.c"
 11036 ;; Parameters:    Size  Location     Type
 11037 ;;  data            1    wreg     unsigned char 
 11038 ;; Auto vars:     Size  Location     Type
 11039 ;;  data            1    3[COMMON] unsigned char 
 11040 ;; Return value:  Size  Location     Type
 11041 ;;                  1    wreg      void 
 11042 ;; Registers used:
 11043 ;;		wreg, fsr1l, fsr1h, status,2, status,0, pclath, cstack
 11044 ;; Tracked objects:
 11045 ;;		On entry : 0/0
 11046 ;;		On exit  : 0/0
 11047 ;;		Unchanged: 0/0
 11048 ;; Data sizes:     COMMON   BANK0   BANK1   BANK2   BANK3   BANK4   BANK5   BANK6
 11049 ;;      Params:         0       0       0       0       0       0       0       0
 11050 ;;      Locals:         1       0       0       0       0       0       0       0
 11051 ;;      Temps:          0       0       0       0       0       0       0       0
 11052 ;;      Totals:         1       0       0       0       0       0       0       0
 11053 ;;Total ram usage:        1 bytes
 11054 ;; Hardware stack levels used:    1
 11055 ;; Hardware stack levels required when called:    5
 11056 ;; This function calls:
 11057 ;;		_EUSART_Write
 11058 ;; This function is called by:
 11059 ;;		_MTOUCH_DataStreamer_Service
 11060 ;; This function uses a non-reentrant model
 11061 ;;
 11062                           
 11063                           
 11064                           ;psect for function _datastreamer_output_byte
 11065  082D                     _datastreamer_output_byte:	
 11066                           
 11067                           ;incstack = 0
 11068                           ; Regs used in _datastreamer_output_byte: [wreg+fsr1l+fsr1h+status,2+status,0+pclath+cst
      +                          ack]
 11069                           ;datastreamer_output_byte@data stored from wreg
 11070  082D  00F3               	movwf	datastreamer_output_byte@data
 11071  082E                     l3701:	
 11072                           
 11073                           ;mcc_generated_files/mtouch/mtouch_datastreamer.c: 64: void __attribute__((inline)) data
      +                          streamer_output_byte(uint8_t data);mcc_generated_files/mtouch/mtouch_datastreamer.c: 65:
      +                           {;mcc_generated_files/mtouch/mtouch_datastreamer.c: 66:     EUSART_Write(data);
 11074  082E  0873               	movf	datastreamer_output_byte@data,w
 11075  082F  318C  2415  3188   	fcall	_EUSART_Write
 11076  0832                     l847:	
 11077  0832  0008               	return
 11078  0833                     __end_of_datastreamer_output_byte:	
 11079                           
 11080                           	psect	text69
 11081  0C15                     __ptext69:	
 11082 ;; *************** function _EUSART_Write *****************
 11083 ;; Defined at:
 11084 ;;		line 173 in file "mcc_generated_files/eusart.c"
 11085 ;; Parameters:    Size  Location     Type
 11086 ;;  txData          1    wreg     unsigned char 
 11087 ;; Auto vars:     Size  Location     Type
 11088 ;;  txData          1    2[COMMON] unsigned char 
 11089 ;; Return value:  Size  Location     Type
 11090 ;;                  1    wreg      void 
 11091 ;; Registers used:
 11092 ;;		wreg, fsr1l, fsr1h, status,2, status,0
 11093 ;; Tracked objects:
 11094 ;;		On entry : 0/0
 11095 ;;		On exit  : 0/0
 11096 ;;		Unchanged: 0/0
 11097 ;; Data sizes:     COMMON   BANK0   BANK1   BANK2   BANK3   BANK4   BANK5   BANK6
 11098 ;;      Params:         0       0       0       0       0       0       0       0
 11099 ;;      Locals:         1       0       0       0       0       0       0       0
 11100 ;;      Temps:          1       0       0       0       0       0       0       0
 11101 ;;      Totals:         2       0       0       0       0       0       0       0
 11102 ;;Total ram usage:        2 bytes
 11103 ;; Hardware stack levels used:    1
 11104 ;; Hardware stack levels required when called:    4
 11105 ;; This function calls:
 11106 ;;		Nothing
 11107 ;; This function is called by:
 11108 ;;		_datastreamer_output_byte
 11109 ;;		_putch
 11110 ;; This function uses a non-reentrant model
 11111 ;;
 11112                           
 11113                           
 11114                           ;psect for function _EUSART_Write
 11115  0C15                     _EUSART_Write:	
 11116                           
 11117                           ;incstack = 0
 11118                           ; Regs used in _EUSART_Write: [wreg+fsr1l+fsr1h+status,2+status,0]
 11119                           ;EUSART_Write@txData stored from wreg
 11120  0C15  00F2               	movwf	EUSART_Write@txData
 11121  0C16                     l3335:	
 11122  0C16                     l3337:	
 11123                           ;mcc_generated_files/eusart.c: 173: void EUSART_Write(uint8_t txData);mcc_generated_file
      +                          s/eusart.c: 174: {;mcc_generated_files/eusart.c: 175:     while(0 == eusartTxBufferRemai
      +                          ning)
 11124                           
 11125                           
 11126                           ;mcc_generated_files/eusart.c: 175:     while(0 == eusartTxBufferRemaining)
 11127  0C16  0020               	movlb	0	; select bank0
 11128  0C17  086F               	movf	_eusartTxBufferRemaining,w	;volatile
 11129  0C18  1903               	btfsc	3,2
 11130  0C19  2C1B               	goto	u2531
 11131  0C1A  2C1C               	goto	u2530
 11132  0C1B                     u2531:	
 11133  0C1B  2C16               	goto	l3337
 11134  0C1C                     u2530:	
 11135  0C1C                     l109:	
 11136                           
 11137                           ;mcc_generated_files/eusart.c: 179:     if(0 == PIE1bits.TXIE)
 11138  0C1C  0021               	movlb	1	; select bank1
 11139  0C1D  1A11               	btfsc	17,4	;volatile
 11140  0C1E  2C20               	goto	u2541
 11141  0C1F  2C21               	goto	u2540
 11142  0C20                     u2541:	
 11143  0C20  2C25               	goto	l110
 11144  0C21                     u2540:	
 11145  0C21                     l3339:	
 11146                           
 11147                           ;mcc_generated_files/eusart.c: 180:     {;mcc_generated_files/eusart.c: 181:         TXR
      +                          EG = txData;
 11148  0C21  0872               	movf	EUSART_Write@txData,w
 11149  0C22  0023               	movlb	3	; select bank3
 11150  0C23  009A               	movwf	26	;volatile
 11151                           
 11152                           ;mcc_generated_files/eusart.c: 182:     }
 11153  0C24  2C3C               	goto	l3351
 11154  0C25                     l110:	
 11155                           ;mcc_generated_files/eusart.c: 183:     else
 11156                           
 11157                           
 11158                           ;mcc_generated_files/eusart.c: 184:     {;mcc_generated_files/eusart.c: 185:         PIE
      +                          1bits.TXIE = 0;
 11159  0C25  1211               	bcf	17,4	;volatile
 11160  0C26                     l3341:	
 11161                           
 11162                           ;mcc_generated_files/eusart.c: 186:         eusartTxBuffer[eusartTxHead++] = txData;
 11163  0C26  0872               	movf	EUSART_Write@txData,w
 11164  0C27  00F1               	movwf	??_EUSART_Write
 11165  0C28  0020               	movlb	0	; select bank0
 11166  0C29  0857               	movf	_eusartTxHead,w
 11167  0C2A  3ED4               	addlw	(low (_eusartTxBuffer| 0))& (0+255)
 11168  0C2B  0086               	movwf	6
 11169  0C2C  0187               	clrf	7
 11170  0C2D  0871               	movf	??_EUSART_Write,w
 11171  0C2E  0081               	movwf	1
 11172  0C2F                     l3343:	
 11173  0C2F  3001               	movlw	1
 11174  0C30  00F1               	movwf	??_EUSART_Write
 11175  0C31  0871               	movf	??_EUSART_Write,w
 11176  0C32  07D7               	addwf	_eusartTxHead,f	;volatile
 11177  0C33                     l3345:	
 11178                           
 11179                           ;mcc_generated_files/eusart.c: 187:         if(sizeof(eusartTxBuffer) <= eusartTxHead)
 11180  0C33  3008               	movlw	8
 11181  0C34  0257               	subwf	_eusartTxHead,w	;volatile
 11182  0C35  1C03               	skipc
 11183  0C36  2C38               	goto	u2551
 11184  0C37  2C39               	goto	u2550
 11185  0C38                     u2551:	
 11186  0C38  2C3A               	goto	l3349
 11187  0C39                     u2550:	
 11188  0C39                     l3347:	
 11189                           
 11190                           ;mcc_generated_files/eusart.c: 188:         {;mcc_generated_files/eusart.c: 189:        
      +                               eusartTxHead = 0;
 11191  0C39  01D7               	clrf	_eusartTxHead	;volatile
 11192  0C3A                     l3349:	
 11193                           
 11194                           ;mcc_generated_files/eusart.c: 191:         eusartTxBufferRemaining--;
 11195  0C3A  3001               	movlw	1
 11196  0C3B  02EF               	subwf	_eusartTxBufferRemaining,f	;volatile
 11197  0C3C                     l3351:	
 11198                           
 11199                           ;mcc_generated_files/eusart.c: 193:     PIE1bits.TXIE = 1;
 11200  0C3C  0021               	movlb	1	; select bank1
 11201  0C3D  1611               	bsf	17,4	;volatile
 11202  0C3E                     l113:	
 11203  0C3E  0008               	return
 11204  0C3F                     __end_of_EUSART_Write:	
 11205                           
 11206                           	psect	text70
 11207  0DD2                     __ptext70:	
 11208 ;; *************** function ___awmod *****************
 11209 ;; Defined at:
 11210 ;;		line 5 in file "C:\Program Files (x86)\Microchip\xc8\v2.10\pic\sources\c99\common\awmod.c"
 11211 ;; Parameters:    Size  Location     Type
 11212 ;;  divisor         2    1[COMMON] int 
 11213 ;;  dividend        2    3[COMMON] int 
 11214 ;; Auto vars:     Size  Location     Type
 11215 ;;  sign            1    7[COMMON] unsigned char 
 11216 ;;  counter         1    6[COMMON] unsigned char 
 11217 ;; Return value:  Size  Location     Type
 11218 ;;                  2    1[COMMON] int 
 11219 ;; Registers used:
 11220 ;;		wreg, status,2, status,0
 11221 ;; Tracked objects:
 11222 ;;		On entry : 0/0
 11223 ;;		On exit  : 0/0
 11224 ;;		Unchanged: 0/0
 11225 ;; Data sizes:     COMMON   BANK0   BANK1   BANK2   BANK3   BANK4   BANK5   BANK6
 11226 ;;      Params:         4       0       0       0       0       0       0       0
 11227 ;;      Locals:         2       0       0       0       0       0       0       0
 11228 ;;      Temps:          1       0       0       0       0       0       0       0
 11229 ;;      Totals:         7       0       0       0       0       0       0       0
 11230 ;;Total ram usage:        7 bytes
 11231 ;; Hardware stack levels used:    1
 11232 ;; Hardware stack levels required when called:    4
 11233 ;; This function calls:
 11234 ;;		Nothing
 11235 ;; This function is called by:
 11236 ;;		_MTOUCH_DataStreamer_Service
 11237 ;; This function uses a non-reentrant model
 11238 ;;
 11239                           
 11240                           
 11241                           ;psect for function ___awmod
 11242  0DD2                     ___awmod:	
 11243  0DD2                     l3703:	
 11244                           ;incstack = 0
 11245                           ; Regs used in ___awmod: [wreg+status,2+status,0]
 11246                           
 11247  0DD2  01F7               	clrf	___awmod@sign
 11248  0DD3                     l3705:	
 11249  0DD3  1FF4               	btfss	___awmod@dividend+1,7
 11250  0DD4  2DD6               	goto	u3101
 11251  0DD5  2DD7               	goto	u3100
 11252  0DD6                     u3101:	
 11253  0DD6  2DDE               	goto	l3711
 11254  0DD7                     u3100:	
 11255  0DD7                     l3707:	
 11256  0DD7  09F3               	comf	___awmod@dividend,f
 11257  0DD8  09F4               	comf	___awmod@dividend+1,f
 11258  0DD9  0AF3               	incf	___awmod@dividend,f
 11259  0DDA  1903               	skipnz
 11260  0DDB  0AF4               	incf	___awmod@dividend+1,f
 11261  0DDC                     l3709:	
 11262  0DDC  01F7               	clrf	___awmod@sign
 11263  0DDD  0AF7               	incf	___awmod@sign,f
 11264  0DDE                     l3711:	
 11265  0DDE  1FF2               	btfss	___awmod@divisor+1,7
 11266  0DDF  2DE1               	goto	u3111
 11267  0DE0  2DE2               	goto	u3110
 11268  0DE1                     u3111:	
 11269  0DE1  2DE7               	goto	l3715
 11270  0DE2                     u3110:	
 11271  0DE2                     l3713:	
 11272  0DE2  09F1               	comf	___awmod@divisor,f
 11273  0DE3  09F2               	comf	___awmod@divisor+1,f
 11274  0DE4  0AF1               	incf	___awmod@divisor,f
 11275  0DE5  1903               	skipnz
 11276  0DE6  0AF2               	incf	___awmod@divisor+1,f
 11277  0DE7                     l3715:	
 11278  0DE7  0871               	movf	___awmod@divisor,w
 11279  0DE8  0472               	iorwf	___awmod@divisor+1,w
 11280  0DE9  1903               	btfsc	3,2
 11281  0DEA  2DEC               	goto	u3121
 11282  0DEB  2DED               	goto	u3120
 11283  0DEC                     u3121:	
 11284  0DEC  2E16               	goto	l3733
 11285  0DED                     u3120:	
 11286  0DED                     l3717:	
 11287  0DED  01F6               	clrf	___awmod@counter
 11288  0DEE  0AF6               	incf	___awmod@counter,f
 11289  0DEF  2DF9               	goto	l3723
 11290  0DF0                     l3719:	
 11291  0DF0  3001               	movlw	1
 11292  0DF1                     u3135:	
 11293  0DF1  35F1               	lslf	___awmod@divisor,f
 11294  0DF2  0DF2               	rlf	___awmod@divisor+1,f
 11295  0DF3  0B89               	decfsz	9,f
 11296  0DF4  2DF1               	goto	u3135
 11297  0DF5                     l3721:	
 11298  0DF5  3001               	movlw	1
 11299  0DF6  00F5               	movwf	??___awmod
 11300  0DF7  0875               	movf	??___awmod,w
 11301  0DF8  07F6               	addwf	___awmod@counter,f
 11302  0DF9                     l3723:	
 11303  0DF9  1FF2               	btfss	___awmod@divisor+1,7
 11304  0DFA  2DFC               	goto	u3141
 11305  0DFB  2DFD               	goto	u3140
 11306  0DFC                     u3141:	
 11307  0DFC  2DF0               	goto	l3719
 11308  0DFD                     u3140:	
 11309  0DFD                     l3725:	
 11310  0DFD  0872               	movf	___awmod@divisor+1,w
 11311  0DFE  0274               	subwf	___awmod@dividend+1,w
 11312  0DFF  1D03               	skipz
 11313  0E00  2E03               	goto	u3155
 11314  0E01  0871               	movf	___awmod@divisor,w
 11315  0E02  0273               	subwf	___awmod@dividend,w
 11316  0E03                     u3155:	
 11317  0E03  1C03               	skipc
 11318  0E04  2E06               	goto	u3151
 11319  0E05  2E07               	goto	u3150
 11320  0E06                     u3151:	
 11321  0E06  2E0B               	goto	l3729
 11322  0E07                     u3150:	
 11323  0E07                     l3727:	
 11324  0E07  0871               	movf	___awmod@divisor,w
 11325  0E08  02F3               	subwf	___awmod@dividend,f
 11326  0E09  0872               	movf	___awmod@divisor+1,w
 11327  0E0A  3BF4               	subwfb	___awmod@dividend+1,f
 11328  0E0B                     l3729:	
 11329  0E0B  3001               	movlw	1
 11330  0E0C                     u3165:	
 11331  0E0C  36F2               	lsrf	___awmod@divisor+1,f
 11332  0E0D  0CF1               	rrf	___awmod@divisor,f
 11333  0E0E  0B89               	decfsz	9,f
 11334  0E0F  2E0C               	goto	u3165
 11335  0E10                     l3731:	
 11336  0E10  3001               	movlw	1
 11337  0E11  02F6               	subwf	___awmod@counter,f
 11338  0E12  1D03               	btfss	3,2
 11339  0E13  2E15               	goto	u3171
 11340  0E14  2E16               	goto	u3170
 11341  0E15                     u3171:	
 11342  0E15  2DFD               	goto	l3725
 11343  0E16                     u3170:	
 11344  0E16                     l3733:	
 11345  0E16  0877               	movf	___awmod@sign,w
 11346  0E17  1903               	btfsc	3,2
 11347  0E18  2E1A               	goto	u3181
 11348  0E19  2E1B               	goto	u3180
 11349  0E1A                     u3181:	
 11350  0E1A  2E20               	goto	l3737
 11351  0E1B                     u3180:	
 11352  0E1B                     l3735:	
 11353  0E1B  09F3               	comf	___awmod@dividend,f
 11354  0E1C  09F4               	comf	___awmod@dividend+1,f
 11355  0E1D  0AF3               	incf	___awmod@dividend,f
 11356  0E1E  1903               	skipnz
 11357  0E1F  0AF4               	incf	___awmod@dividend+1,f
 11358  0E20                     l3737:	
 11359  0E20  0874               	movf	___awmod@dividend+1,w
 11360  0E21  00F2               	movwf	?___awmod+1
 11361  0E22  0873               	movf	___awmod@dividend,w
 11362  0E23  00F1               	movwf	?___awmod
 11363  0E24                     l1194:	
 11364  0E24  0008               	return
 11365  0E25                     __end_of___awmod:	
 11366                           
 11367                           	psect	text71
 11368  09C1                     __ptext71:	
 11369 ;; *************** function _MTOUCH_Sensor_AdditionalCap_Get *****************
 11370 ;; Defined at:
 11371 ;;		line 964 in file "mcc_generated_files/mtouch/mtouch_sensor.c"
 11372 ;; Parameters:    Size  Location     Type
 11373 ;;  name            1    wreg     enum E2854
 11374 ;; Auto vars:     Size  Location     Type
 11375 ;;  name            1    6[COMMON] enum E2854
 11376 ;; Return value:  Size  Location     Type
 11377 ;;                  1    wreg      unsigned char 
 11378 ;; Registers used:
 11379 ;;		wreg, fsr1l, fsr1h, status,2, status,0, pclath, cstack
 11380 ;; Tracked objects:
 11381 ;;		On entry : 0/0
 11382 ;;		On exit  : 0/0
 11383 ;;		Unchanged: 0/0
 11384 ;; Data sizes:     COMMON   BANK0   BANK1   BANK2   BANK3   BANK4   BANK5   BANK6
 11385 ;;      Params:         0       0       0       0       0       0       0       0
 11386 ;;      Locals:         1       0       0       0       0       0       0       0
 11387 ;;      Temps:          1       0       0       0       0       0       0       0
 11388 ;;      Totals:         2       0       0       0       0       0       0       0
 11389 ;;Total ram usage:        2 bytes
 11390 ;; Hardware stack levels used:    1
 11391 ;; Hardware stack levels required when called:    5
 11392 ;; This function calls:
 11393 ;;		___bmul
 11394 ;; This function is called by:
 11395 ;;		_MTOUCH_DataStreamer_Service
 11396 ;; This function uses a non-reentrant model
 11397 ;;
 11398                           
 11399                           
 11400                           ;psect for function _MTOUCH_Sensor_AdditionalCap_Get
 11401  09C1                     _MTOUCH_Sensor_AdditionalCap_Get:	
 11402                           
 11403                           ;incstack = 0
 11404                           ; Regs used in _MTOUCH_Sensor_AdditionalCap_Get: [wreg+fsr1l+fsr1h+status,2+status,0+pcl
      +                          ath+cstack]
 11405                           ;MTOUCH_Sensor_AdditionalCap_Get@name stored from wreg
 11406  09C1  00F6               	movwf	MTOUCH_Sensor_AdditionalCap_Get@name
 11407  09C2                     l4533:	
 11408                           
 11409                           ;mcc_generated_files/mtouch/mtouch_sensor.c: 964: uint8_t MTOUCH_Sensor_AdditionalCap_Ge
      +                          t(enum mtouch_sensor_names name);mcc_generated_files/mtouch/mtouch_sensor.c: 965: {;mcc_
      +                          generated_files/mtouch/mtouch_sensor.c: 966:      if(name < 1u)
 11410  09C2  0876               	movf	MTOUCH_Sensor_AdditionalCap_Get@name,w
 11411  09C3  1D03               	btfss	3,2
 11412  09C4  29C6               	goto	u4201
 11413  09C5  29C7               	goto	u4200
 11414  09C6                     u4201:	
 11415  09C6  29D4               	goto	l4541
 11416  09C7                     u4200:	
 11417  09C7                     l4535:	
 11418                           
 11419                           ;mcc_generated_files/mtouch/mtouch_sensor.c: 967:         return (uint8_t)(mtouch_sensor
      +                          [name].addcap<<1);
 11420  09C7  3009               	movlw	9
 11421  09C8  00F5               	movwf	??_MTOUCH_Sensor_AdditionalCap_Get
 11422  09C9  0875               	movf	??_MTOUCH_Sensor_AdditionalCap_Get,w
 11423  09CA  00F1               	movwf	___bmul@multiplicand
 11424  09CB  0876               	movf	MTOUCH_Sensor_AdditionalCap_Get@name,w
 11425  09CC  3189  2197  3189   	fcall	___bmul
 11426  09CF  3EC0               	addlw	(low ((_mtouch_sensor| 0+5)))& (0+255)
 11427  09D0  0086               	movwf	6
 11428  09D1  0187               	clrf	7
 11429  09D2  3501               	lslf	1,w
 11430  09D3  29D5               	goto	l527
 11431  09D4                     l4541:	
 11432                           
 11433                           ;mcc_generated_files/mtouch/mtouch_sensor.c: 969:         return 0;
 11434  09D4  3000               	movlw	0
 11435  09D5                     l527:	
 11436  09D5  0008               	return
 11437  09D6                     __end_of_MTOUCH_Sensor_AdditionalCap_Get:	
 11438                           
 11439                           	psect	text72
 11440  09AC                     __ptext72:	
 11441 ;; *************** function _MTOUCH_Sensor_AcquisitionTime_Get *****************
 11442 ;; Defined at:
 11443 ;;		line 972 in file "mcc_generated_files/mtouch/mtouch_sensor.c"
 11444 ;; Parameters:    Size  Location     Type
 11445 ;;  name            1    wreg     enum E2854
 11446 ;; Auto vars:     Size  Location     Type
 11447 ;;  name            1    6[COMMON] enum E2854
 11448 ;; Return value:  Size  Location     Type
 11449 ;;                  1    wreg      unsigned char 
 11450 ;; Registers used:
 11451 ;;		wreg, fsr1l, fsr1h, status,2, status,0, pclath, cstack
 11452 ;; Tracked objects:
 11453 ;;		On entry : 0/0
 11454 ;;		On exit  : 0/0
 11455 ;;		Unchanged: 0/0
 11456 ;; Data sizes:     COMMON   BANK0   BANK1   BANK2   BANK3   BANK4   BANK5   BANK6
 11457 ;;      Params:         0       0       0       0       0       0       0       0
 11458 ;;      Locals:         1       0       0       0       0       0       0       0
 11459 ;;      Temps:          1       0       0       0       0       0       0       0
 11460 ;;      Totals:         2       0       0       0       0       0       0       0
 11461 ;;Total ram usage:        2 bytes
 11462 ;; Hardware stack levels used:    1
 11463 ;; Hardware stack levels required when called:    5
 11464 ;; This function calls:
 11465 ;;		___bmul
 11466 ;; This function is called by:
 11467 ;;		_MTOUCH_DataStreamer_Service
 11468 ;; This function uses a non-reentrant model
 11469 ;;
 11470                           
 11471                           
 11472                           ;psect for function _MTOUCH_Sensor_AcquisitionTime_Get
 11473  09AC                     _MTOUCH_Sensor_AcquisitionTime_Get:	
 11474                           
 11475                           ;incstack = 0
 11476                           ; Regs used in _MTOUCH_Sensor_AcquisitionTime_Get: [wreg+fsr1l+fsr1h+status,2+status,0+p
      +                          clath+cstack]
 11477                           ;MTOUCH_Sensor_AcquisitionTime_Get@name stored from wreg
 11478  09AC  00F6               	movwf	MTOUCH_Sensor_AcquisitionTime_Get@name
 11479  09AD                     l4545:	
 11480                           
 11481                           ;mcc_generated_files/mtouch/mtouch_sensor.c: 972: uint8_t MTOUCH_Sensor_AcquisitionTime_
      +                          Get(enum mtouch_sensor_names name);mcc_generated_files/mtouch/mtouch_sensor.c: 973: {;mc
      +                          c_generated_files/mtouch/mtouch_sensor.c: 974:      if(name < 1u)
 11482  09AD  0876               	movf	MTOUCH_Sensor_AcquisitionTime_Get@name,w
 11483  09AE  1D03               	btfss	3,2
 11484  09AF  29B1               	goto	u4211
 11485  09B0  29B2               	goto	u4210
 11486  09B1                     u4211:	
 11487  09B1  29BF               	goto	l4553
 11488  09B2                     u4210:	
 11489  09B2                     l4547:	
 11490                           
 11491                           ;mcc_generated_files/mtouch/mtouch_sensor.c: 975:         return mtouch_sensor[name].acq
      +                          uisition_time;
 11492  09B2  3009               	movlw	9
 11493  09B3  00F5               	movwf	??_MTOUCH_Sensor_AcquisitionTime_Get
 11494  09B4  0875               	movf	??_MTOUCH_Sensor_AcquisitionTime_Get,w
 11495  09B5  00F1               	movwf	___bmul@multiplicand
 11496  09B6  0876               	movf	MTOUCH_Sensor_AcquisitionTime_Get@name,w
 11497  09B7  3189  2197  3189   	fcall	___bmul
 11498  09BA  3EBE               	addlw	(low ((_mtouch_sensor| 0+3)))& (0+255)
 11499  09BB  0086               	movwf	6
 11500  09BC  0187               	clrf	7
 11501  09BD  0801               	movf	1,w
 11502  09BE  29C0               	goto	l532
 11503  09BF                     l4553:	
 11504                           
 11505                           ;mcc_generated_files/mtouch/mtouch_sensor.c: 977:         return 0;
 11506  09BF  3000               	movlw	0
 11507  09C0                     l532:	
 11508  09C0  0008               	return
 11509  09C1                     __end_of_MTOUCH_Sensor_AcquisitionTime_Get:	
 11510                           
 11511                           	psect	text73
 11512  0997                     __ptext73:	
 11513 ;; *************** function ___bmul *****************
 11514 ;; Defined at:
 11515 ;;		line 4 in file "C:\Program Files (x86)\Microchip\xc8\v2.10\pic\sources\c99\common\Umul8.c"
 11516 ;; Parameters:    Size  Location     Type
 11517 ;;  multiplier      1    wreg     unsigned char 
 11518 ;;  multiplicand    1    1[COMMON] unsigned char 
 11519 ;; Auto vars:     Size  Location     Type
 11520 ;;  multiplier      1    4[COMMON] unsigned char 
 11521 ;;  product         1    3[COMMON] unsigned char 
 11522 ;; Return value:  Size  Location     Type
 11523 ;;                  1    wreg      unsigned char 
 11524 ;; Registers used:
 11525 ;;		wreg, status,2, status,0
 11526 ;; Tracked objects:
 11527 ;;		On entry : 0/0
 11528 ;;		On exit  : 0/0
 11529 ;;		Unchanged: 0/0
 11530 ;; Data sizes:     COMMON   BANK0   BANK1   BANK2   BANK3   BANK4   BANK5   BANK6
 11531 ;;      Params:         1       0       0       0       0       0       0       0
 11532 ;;      Locals:         2       0       0       0       0       0       0       0
 11533 ;;      Temps:          1       0       0       0       0       0       0       0
 11534 ;;      Totals:         4       0       0       0       0       0       0       0
 11535 ;;Total ram usage:        4 bytes
 11536 ;; Hardware stack levels used:    1
 11537 ;; Hardware stack levels required when called:    4
 11538 ;; This function calls:
 11539 ;;		Nothing
 11540 ;; This function is called by:
 11541 ;;		_MTOUCH_Sensor_Initialize
 11542 ;;		_MTOUCH_Sensor_RawSample_Get
 11543 ;;		_MTOUCH_Sensor_Enable
 11544 ;;		_MTOUCH_Sensor_Calibrate
 11545 ;;		_MTOUCH_Sensor_isCalibrated
 11546 ;;		_MTOUCH_Sensor_wasSampled
 11547 ;;		_MTOUCH_Sensor_AdditionalCap_Get
 11548 ;;		_MTOUCH_Sensor_AcquisitionTime_Get
 11549 ;;		_MTOUCH_Sensor_isAnySensorActive
 11550 ;;		_MTOUCH_Sensor_Disable
 11551 ;;		_MTOUCH_Sensor_isEnabled
 11552 ;;		_MTOUCH_Sensor_isActive
 11553 ;;		_MTOUCH_Sensor_PreChargeTime_Get
 11554 ;;		_MTOUCH_Sensor_Oversampling_Get
 11555 ;;		_MTOUCH_Sensor_Oversampling_Set
 11556 ;; This function uses a non-reentrant model
 11557 ;;
 11558                           
 11559                           
 11560                           ;psect for function ___bmul
 11561  0997                     ___bmul:	
 11562                           
 11563                           ;incstack = 0
 11564                           ; Regs used in ___bmul: [wreg+status,2+status,0]
 11565                           ;___bmul@multiplier stored from wreg
 11566  0997  00F4               	movwf	___bmul@multiplier
 11567  0998                     l4105:	
 11568  0998  01F3               	clrf	___bmul@product
 11569  0999                     l4107:	
 11570  0999  1C74               	btfss	___bmul@multiplier,0
 11571  099A  299C               	goto	u3531
 11572  099B  299D               	goto	u3530
 11573  099C                     u3531:	
 11574  099C  29A1               	goto	l4111
 11575  099D                     u3530:	
 11576  099D                     l4109:	
 11577  099D  0871               	movf	___bmul@multiplicand,w
 11578  099E  00F2               	movwf	??___bmul
 11579  099F  0872               	movf	??___bmul,w
 11580  09A0  07F3               	addwf	___bmul@product,f
 11581  09A1                     l4111:	
 11582  09A1  1003               	clrc
 11583  09A2  0DF1               	rlf	___bmul@multiplicand,f
 11584  09A3                     l4113:	
 11585  09A3  1003               	clrc
 11586  09A4  0CF4               	rrf	___bmul@multiplier,f
 11587  09A5  0874               	movf	___bmul@multiplier,w
 11588  09A6  1D03               	btfss	3,2
 11589  09A7  29A9               	goto	u3541
 11590  09A8  29AA               	goto	u3540
 11591  09A9                     u3541:	
 11592  09A9  2999               	goto	l4107
 11593  09AA                     u3540:	
 11594  09AA                     l4115:	
 11595  09AA  0873               	movf	___bmul@product,w
 11596  09AB                     l1054:	
 11597  09AB  0008               	return
 11598  09AC                     __end_of___bmul:	
 11599                           
 11600                           	psect	text74
 11601  0A03                     __ptext74:	
 11602 ;; *************** function _MTOUCH_Proximity_isActivated *****************
 11603 ;; Defined at:
 11604 ;;		line 329 in file "mcc_generated_files/mtouch/mtouch_proximity.c"
 11605 ;; Parameters:    Size  Location     Type
 11606 ;;  name            1    wreg     enum E3067
 11607 ;; Auto vars:     Size  Location     Type
 11608 ;;  name            1    1[COMMON] enum E3067
 11609 ;; Return value:  Size  Location     Type
 11610 ;;                  1    wreg      _Bool 
 11611 ;; Registers used:
 11612 ;;		wreg, fsr1l, fsr1h, status,2, status,0
 11613 ;; Tracked objects:
 11614 ;;		On entry : 0/0
 11615 ;;		On exit  : 0/0
 11616 ;;		Unchanged: 0/0
 11617 ;; Data sizes:     COMMON   BANK0   BANK1   BANK2   BANK3   BANK4   BANK5   BANK6
 11618 ;;      Params:         0       0       0       0       0       0       0       0
 11619 ;;      Locals:         1       0       0       0       0       0       0       0
 11620 ;;      Temps:          0       0       0       0       0       0       0       0
 11621 ;;      Totals:         1       0       0       0       0       0       0       0
 11622 ;;Total ram usage:        1 bytes
 11623 ;; Hardware stack levels used:    1
 11624 ;; Hardware stack levels required when called:    4
 11625 ;; This function calls:
 11626 ;;		Nothing
 11627 ;; This function is called by:
 11628 ;;		_MTOUCH_DataStreamer_Service
 11629 ;;		_main
 11630 ;;		_touch_example
 11631 ;;		_MTOUCH_Proximity_Proximitymask_Get
 11632 ;; This function uses a non-reentrant model
 11633 ;;
 11634                           
 11635                           
 11636                           ;psect for function _MTOUCH_Proximity_isActivated
 11637  0A03                     _MTOUCH_Proximity_isActivated:	
 11638                           
 11639                           ;incstack = 0
 11640                           ; Regs used in _MTOUCH_Proximity_isActivated: [wreg+fsr1l+fsr1h+status,2+status,0]
 11641                           ;MTOUCH_Proximity_isActivated@name stored from wreg
 11642  0A03  00F1               	movwf	MTOUCH_Proximity_isActivated@name
 11643  0A04                     l3529:	
 11644                           
 11645                           ;mcc_generated_files/mtouch/mtouch_proximity.c: 329: _Bool MTOUCH_Proximity_isActivated(
      +                          enum mtouch_proximity_names name);mcc_generated_files/mtouch/mtouch_proximity.c: 330: {;
      +                          mcc_generated_files/mtouch/mtouch_proximity.c: 331:     if(name < 1u)
 11646  0A04  0871               	movf	MTOUCH_Proximity_isActivated@name,w
 11647  0A05  1D03               	btfss	3,2
 11648  0A06  2A08               	goto	u2911
 11649  0A07  2A09               	goto	u2910
 11650  0A08                     u2911:	
 11651  0A08  2A19               	goto	l3537
 11652  0A09                     u2910:	
 11653  0A09                     l3531:	
 11654                           
 11655                           ;mcc_generated_files/mtouch/mtouch_proximity.c: 332:         return (mtouch_proximity[na
      +                          me].state == MTOUCH_PROXIMITY_STATE_activated) ? 1 : 0;
 11656  0A09  0E71               	swapf	MTOUCH_Proximity_isActivated@name,w
 11657  0A0A  39F0               	andlw	240
 11658  0A0B  0771               	addwf	MTOUCH_Proximity_isActivated@name,w
 11659  0A0C  0771               	addwf	MTOUCH_Proximity_isActivated@name,w
 11660  0A0D  3E5A               	addlw	(low ((_mtouch_proximity| 0+2)))& (0+255)
 11661  0A0E  0086               	movwf	6
 11662  0A0F  0187               	clrf	7
 11663  0A10  3002               	movlw	2
 11664  0A11  0601               	xorwf	1,w
 11665  0A12  1903               	btfsc	3,2
 11666  0A13  2A15               	goto	u2921
 11667  0A14  2A17               	goto	u2920
 11668  0A15                     u2921:	
 11669  0A15  3001               	movlw	1
 11670  0A16  2A18               	goto	u2930
 11671  0A17                     u2920:	
 11672  0A17  3000               	movlw	0
 11673  0A18                     u2930:	
 11674  0A18  2A1A               	goto	l667
 11675  0A19                     l3537:	
 11676                           
 11677                           ;mcc_generated_files/mtouch/mtouch_proximity.c: 334:         return 0;
 11678  0A19  3000               	movlw	0
 11679  0A1A                     l667:	
 11680  0A1A  0008               	return
 11681  0A1B                     __end_of_MTOUCH_Proximity_isActivated:	
 11682                           
 11683                           	psect	text75
 11684  0919                     __ptext75:	
 11685 ;; *************** function _MTOUCH_Proximity_Threshold_Get *****************
 11686 ;; Defined at:
 11687 ;;		line 299 in file "mcc_generated_files/mtouch/mtouch_proximity.c"
 11688 ;; Parameters:    Size  Location     Type
 11689 ;;  name            1    wreg     enum E3067
 11690 ;; Auto vars:     Size  Location     Type
 11691 ;;  name            1    1[COMMON] enum E3067
 11692 ;; Return value:  Size  Location     Type
 11693 ;;                  1    wreg      unsigned char 
 11694 ;; Registers used:
 11695 ;;		wreg, fsr1l, fsr1h, status,2, status,0
 11696 ;; Tracked objects:
 11697 ;;		On entry : 0/0
 11698 ;;		On exit  : 0/0
 11699 ;;		Unchanged: 0/0
 11700 ;; Data sizes:     COMMON   BANK0   BANK1   BANK2   BANK3   BANK4   BANK5   BANK6
 11701 ;;      Params:         0       0       0       0       0       0       0       0
 11702 ;;      Locals:         1       0       0       0       0       0       0       0
 11703 ;;      Temps:          0       0       0       0       0       0       0       0
 11704 ;;      Totals:         1       0       0       0       0       0       0       0
 11705 ;;Total ram usage:        1 bytes
 11706 ;; Hardware stack levels used:    1
 11707 ;; Hardware stack levels required when called:    4
 11708 ;; This function calls:
 11709 ;;		Nothing
 11710 ;; This function is called by:
 11711 ;;		_MTOUCH_DataStreamer_Service
 11712 ;; This function uses a non-reentrant model
 11713 ;;
 11714                           
 11715                           
 11716                           ;psect for function _MTOUCH_Proximity_Threshold_Get
 11717  0919                     _MTOUCH_Proximity_Threshold_Get:	
 11718                           
 11719                           ;incstack = 0
 11720                           ; Regs used in _MTOUCH_Proximity_Threshold_Get: [wreg+fsr1l+fsr1h+status,2+status,0]
 11721                           ;MTOUCH_Proximity_Threshold_Get@name stored from wreg
 11722  0919  00F1               	movwf	MTOUCH_Proximity_Threshold_Get@name
 11723  091A                     l3665:	
 11724                           
 11725                           ;mcc_generated_files/mtouch/mtouch_proximity.c: 299: mtouch_prox_threshold_t MTOUCH_Prox
      +                          imity_Threshold_Get(enum mtouch_proximity_names name);mcc_generated_files/mtouch/mtouch_
      +                          proximity.c: 300: {;mcc_generated_files/mtouch/mtouch_proximity.c: 301:     if(name < 1u
      +                          )
 11726  091A  0871               	movf	MTOUCH_Proximity_Threshold_Get@name,w
 11727  091B  1D03               	btfss	3,2
 11728  091C  291E               	goto	u3071
 11729  091D  291F               	goto	u3070
 11730  091E                     u3071:	
 11731  091E  2928               	goto	l3673
 11732  091F                     u3070:	
 11733  091F                     l3667:	
 11734                           
 11735                           ;mcc_generated_files/mtouch/mtouch_proximity.c: 302:         return mtouch_proximity[nam
      +                          e].threshold;
 11736  091F  0E71               	swapf	MTOUCH_Proximity_Threshold_Get@name,w
 11737  0920  39F0               	andlw	240
 11738  0921  0771               	addwf	MTOUCH_Proximity_Threshold_Get@name,w
 11739  0922  0771               	addwf	MTOUCH_Proximity_Threshold_Get@name,w
 11740  0923  3E68               	addlw	(low ((_mtouch_proximity| 0+16)))& (0+255)
 11741  0924  0086               	movwf	6
 11742  0925  0187               	clrf	7
 11743  0926  0801               	movf	1,w
 11744  0927  2929               	goto	l647
 11745  0928                     l3673:	
 11746                           
 11747                           ;mcc_generated_files/mtouch/mtouch_proximity.c: 304:         return (mtouch_prox_deviati
      +                          on_t)0;
 11748  0928  3000               	movlw	0
 11749  0929                     l647:	
 11750  0929  0008               	return
 11751  092A                     __end_of_MTOUCH_Proximity_Threshold_Get:	
 11752                           
 11753                           	psect	text76
 11754  0908                     __ptext76:	
 11755 ;; *************** function _MTOUCH_Proximity_Scaling_Get *****************
 11756 ;; Defined at:
 11757 ;;		line 314 in file "mcc_generated_files/mtouch/mtouch_proximity.c"
 11758 ;; Parameters:    Size  Location     Type
 11759 ;;  name            1    wreg     enum E3067
 11760 ;; Auto vars:     Size  Location     Type
 11761 ;;  name            1    1[COMMON] enum E3067
 11762 ;; Return value:  Size  Location     Type
 11763 ;;                  1    wreg      unsigned char 
 11764 ;; Registers used:
 11765 ;;		wreg, fsr1l, fsr1h, status,2, status,0
 11766 ;; Tracked objects:
 11767 ;;		On entry : 0/0
 11768 ;;		On exit  : 0/0
 11769 ;;		Unchanged: 0/0
 11770 ;; Data sizes:     COMMON   BANK0   BANK1   BANK2   BANK3   BANK4   BANK5   BANK6
 11771 ;;      Params:         0       0       0       0       0       0       0       0
 11772 ;;      Locals:         1       0       0       0       0       0       0       0
 11773 ;;      Temps:          0       0       0       0       0       0       0       0
 11774 ;;      Totals:         1       0       0       0       0       0       0       0
 11775 ;;Total ram usage:        1 bytes
 11776 ;; Hardware stack levels used:    1
 11777 ;; Hardware stack levels required when called:    4
 11778 ;; This function calls:
 11779 ;;		Nothing
 11780 ;; This function is called by:
 11781 ;;		_MTOUCH_DataStreamer_Service
 11782 ;; This function uses a non-reentrant model
 11783 ;;
 11784                           
 11785                           
 11786                           ;psect for function _MTOUCH_Proximity_Scaling_Get
 11787  0908                     _MTOUCH_Proximity_Scaling_Get:	
 11788                           
 11789                           ;incstack = 0
 11790                           ; Regs used in _MTOUCH_Proximity_Scaling_Get: [wreg+fsr1l+fsr1h+status,2+status,0]
 11791                           ;MTOUCH_Proximity_Scaling_Get@name stored from wreg
 11792  0908  00F1               	movwf	MTOUCH_Proximity_Scaling_Get@name
 11793  0909                     l3677:	
 11794                           
 11795                           ;mcc_generated_files/mtouch/mtouch_proximity.c: 314: mtouch_prox_scaling_t MTOUCH_Proxim
      +                          ity_Scaling_Get(enum mtouch_proximity_names name);mcc_generated_files/mtouch/mtouch_prox
      +                          imity.c: 315: {;mcc_generated_files/mtouch/mtouch_proximity.c: 316:     if(name < 1u)
 11796  0909  0871               	movf	MTOUCH_Proximity_Scaling_Get@name,w
 11797  090A  1D03               	btfss	3,2
 11798  090B  290D               	goto	u3081
 11799  090C  290E               	goto	u3080
 11800  090D                     u3081:	
 11801  090D  2917               	goto	l3685
 11802  090E                     u3080:	
 11803  090E                     l3679:	
 11804                           
 11805                           ;mcc_generated_files/mtouch/mtouch_proximity.c: 317:         return mtouch_proximity[nam
      +                          e].scaling;
 11806  090E  0E71               	swapf	MTOUCH_Proximity_Scaling_Get@name,w
 11807  090F  39F0               	andlw	240
 11808  0910  0771               	addwf	MTOUCH_Proximity_Scaling_Get@name,w
 11809  0911  0771               	addwf	MTOUCH_Proximity_Scaling_Get@name,w
 11810  0912  3E69               	addlw	(low ((_mtouch_proximity| 0+17)))& (0+255)
 11811  0913  0086               	movwf	6
 11812  0914  0187               	clrf	7
 11813  0915  0801               	movf	1,w
 11814  0916  2918               	goto	l657
 11815  0917                     l3685:	
 11816                           
 11817                           ;mcc_generated_files/mtouch/mtouch_proximity.c: 319:         return (mtouch_prox_scaling
      +                          _t)0;
 11818  0917  3000               	movlw	0
 11819  0918                     l657:	
 11820  0918  0008               	return
 11821  0919                     __end_of_MTOUCH_Proximity_Scaling_Get:	
 11822                           
 11823                           	psect	text77
 11824  0AD8                     __ptext77:	
 11825 ;; *************** function _MTOUCH_Proximity_Reading_Get *****************
 11826 ;; Defined at:
 11827 ;;		line 396 in file "mcc_generated_files/mtouch/mtouch_proximity.c"
 11828 ;; Parameters:    Size  Location     Type
 11829 ;;  name            1    wreg     enum E3067
 11830 ;; Auto vars:     Size  Location     Type
 11831 ;;  name            1    6[COMMON] enum E3067
 11832 ;; Return value:  Size  Location     Type
 11833 ;;                  4    1[COMMON] unsigned long 
 11834 ;; Registers used:
 11835 ;;		wreg, fsr1l, fsr1h, status,2, status,0
 11836 ;; Tracked objects:
 11837 ;;		On entry : 0/0
 11838 ;;		On exit  : 0/0
 11839 ;;		Unchanged: 0/0
 11840 ;; Data sizes:     COMMON   BANK0   BANK1   BANK2   BANK3   BANK4   BANK5   BANK6
 11841 ;;      Params:         5       0       0       0       0       0       0       0
 11842 ;;      Locals:         1       0       0       0       0       0       0       0
 11843 ;;      Temps:          0       0       0       0       0       0       0       0
 11844 ;;      Totals:         6       0       0       0       0       0       0       0
 11845 ;;Total ram usage:        6 bytes
 11846 ;; Hardware stack levels used:    1
 11847 ;; Hardware stack levels required when called:    4
 11848 ;; This function calls:
 11849 ;;		Nothing
 11850 ;; This function is called by:
 11851 ;;		_Proximity_State_NotActivated
 11852 ;;		_Proximity_Deviation_Update
 11853 ;;		_MTOUCH_DataStreamer_Service
 11854 ;; This function uses a non-reentrant model
 11855 ;;
 11856                           
 11857                           
 11858                           ;psect for function _MTOUCH_Proximity_Reading_Get
 11859  0AD8                     _MTOUCH_Proximity_Reading_Get:	
 11860                           
 11861                           ;incstack = 0
 11862                           ; Regs used in _MTOUCH_Proximity_Reading_Get: [wreg+fsr1l+fsr1h+status,2+status,0]
 11863                           ;MTOUCH_Proximity_Reading_Get@name stored from wreg
 11864  0AD8  00F6               	movwf	MTOUCH_Proximity_Reading_Get@name
 11865  0AD9                     l3303:	
 11866                           
 11867                           ;mcc_generated_files/mtouch/mtouch_proximity.c: 396: mtouch_prox_reading_t MTOUCH_Proxim
      +                          ity_Reading_Get(enum mtouch_proximity_names name);mcc_generated_files/mtouch/mtouch_prox
      +                          imity.c: 397: {;mcc_generated_files/mtouch/mtouch_proximity.c: 398:     if (name < 1u)
 11868  0AD9  0876               	movf	MTOUCH_Proximity_Reading_Get@name,w
 11869  0ADA  1D03               	btfss	3,2
 11870  0ADB  2ADD               	goto	u2491
 11871  0ADC  2ADE               	goto	u2490
 11872  0ADD                     u2491:	
 11873  0ADD  2AEE               	goto	l3311
 11874  0ADE                     u2490:	
 11875  0ADE                     l3305:	
 11876                           
 11877                           ;mcc_generated_files/mtouch/mtouch_proximity.c: 399:         return mtouch_proximity[nam
      +                          e].reading;
 11878  0ADE  0E76               	swapf	MTOUCH_Proximity_Reading_Get@name,w
 11879  0ADF  39F0               	andlw	240
 11880  0AE0  0776               	addwf	MTOUCH_Proximity_Reading_Get@name,w
 11881  0AE1  0776               	addwf	MTOUCH_Proximity_Reading_Get@name,w
 11882  0AE2  3E5B               	addlw	(low ((_mtouch_proximity| 0+3)))& (0+255)
 11883  0AE3  0086               	movwf	6
 11884  0AE4  0187               	clrf	7
 11885  0AE5  3F40               	moviw [0]fsr1
 11886  0AE6  00F1               	movwf	?_MTOUCH_Proximity_Reading_Get
 11887  0AE7  3F41               	moviw [1]fsr1
 11888  0AE8  00F2               	movwf	?_MTOUCH_Proximity_Reading_Get+1
 11889  0AE9  3F42               	moviw [2]fsr1
 11890  0AEA  00F3               	movwf	?_MTOUCH_Proximity_Reading_Get+2
 11891  0AEB  3F43               	moviw [3]fsr1
 11892  0AEC  00F4               	movwf	?_MTOUCH_Proximity_Reading_Get+3
 11893  0AED  2AF6               	goto	l694
 11894  0AEE                     l3311:	
 11895                           
 11896                           ;mcc_generated_files/mtouch/mtouch_proximity.c: 401:         return (mtouch_prox_reading
      +                          _t)0;
 11897  0AEE  3000               	movlw	0
 11898  0AEF  00F4               	movwf	?_MTOUCH_Proximity_Reading_Get+3
 11899  0AF0  3000               	movlw	0
 11900  0AF1  00F3               	movwf	?_MTOUCH_Proximity_Reading_Get+2
 11901  0AF2  3000               	movlw	0
 11902  0AF3  00F2               	movwf	?_MTOUCH_Proximity_Reading_Get+1
 11903  0AF4  3000               	movlw	0
 11904  0AF5  00F1               	movwf	?_MTOUCH_Proximity_Reading_Get
 11905  0AF6                     l694:	
 11906  0AF6  0008               	return
 11907  0AF7                     __end_of_MTOUCH_Proximity_Reading_Get:	
 11908                           
 11909                           	psect	text78
 11910  08F7                     __ptext78:	
 11911 ;; *************** function _MTOUCH_Proximity_Deviation_Get *****************
 11912 ;; Defined at:
 11913 ;;		line 345 in file "mcc_generated_files/mtouch/mtouch_proximity.c"
 11914 ;; Parameters:    Size  Location     Type
 11915 ;;  name            1    wreg     enum E3067
 11916 ;; Auto vars:     Size  Location     Type
 11917 ;;  name            1    1[COMMON] enum E3067
 11918 ;; Return value:  Size  Location     Type
 11919 ;;                  1    wreg      char 
 11920 ;; Registers used:
 11921 ;;		wreg, fsr1l, fsr1h, status,2, status,0
 11922 ;; Tracked objects:
 11923 ;;		On entry : 0/0
 11924 ;;		On exit  : 0/0
 11925 ;;		Unchanged: 0/0
 11926 ;; Data sizes:     COMMON   BANK0   BANK1   BANK2   BANK3   BANK4   BANK5   BANK6
 11927 ;;      Params:         0       0       0       0       0       0       0       0
 11928 ;;      Locals:         1       0       0       0       0       0       0       0
 11929 ;;      Temps:          0       0       0       0       0       0       0       0
 11930 ;;      Totals:         1       0       0       0       0       0       0       0
 11931 ;;Total ram usage:        1 bytes
 11932 ;; Hardware stack levels used:    1
 11933 ;; Hardware stack levels required when called:    4
 11934 ;; This function calls:
 11935 ;;		Nothing
 11936 ;; This function is called by:
 11937 ;;		_MTOUCH_DataStreamer_Service
 11938 ;; This function uses a non-reentrant model
 11939 ;;
 11940                           
 11941                           
 11942                           ;psect for function _MTOUCH_Proximity_Deviation_Get
 11943  08F7                     _MTOUCH_Proximity_Deviation_Get:	
 11944                           
 11945                           ;incstack = 0
 11946                           ; Regs used in _MTOUCH_Proximity_Deviation_Get: [wreg+fsr1l+fsr1h+status,2+status,0]
 11947                           ;MTOUCH_Proximity_Deviation_Get@name stored from wreg
 11948  08F7  00F1               	movwf	MTOUCH_Proximity_Deviation_Get@name
 11949  08F8                     l3689:	
 11950                           
 11951                           ;mcc_generated_files/mtouch/mtouch_proximity.c: 345: mtouch_prox_deviation_t MTOUCH_Prox
      +                          imity_Deviation_Get(enum mtouch_proximity_names name);mcc_generated_files/mtouch/mtouch_
      +                          proximity.c: 346: {;mcc_generated_files/mtouch/mtouch_proximity.c: 347:     if(name < 1u
      +                          )
 11952  08F8  0871               	movf	MTOUCH_Proximity_Deviation_Get@name,w
 11953  08F9  1D03               	btfss	3,2
 11954  08FA  28FC               	goto	u3091
 11955  08FB  28FD               	goto	u3090
 11956  08FC                     u3091:	
 11957  08FC  2906               	goto	l3697
 11958  08FD                     u3090:	
 11959  08FD                     l3691:	
 11960                           
 11961                           ;mcc_generated_files/mtouch/mtouch_proximity.c: 348:         return mtouch_proximity[nam
      +                          e].integratedDeviation;
 11962  08FD  0E71               	swapf	MTOUCH_Proximity_Deviation_Get@name,w
 11963  08FE  39F0               	andlw	240
 11964  08FF  0771               	addwf	MTOUCH_Proximity_Deviation_Get@name,w
 11965  0900  0771               	addwf	MTOUCH_Proximity_Deviation_Get@name,w
 11966  0901  3E63               	addlw	(low ((_mtouch_proximity| 0+11)))& (0+255)
 11967  0902  0086               	movwf	6
 11968  0903  0187               	clrf	7
 11969  0904  0801               	movf	1,w
 11970  0905  2907               	goto	l677
 11971  0906                     l3697:	
 11972                           
 11973                           ;mcc_generated_files/mtouch/mtouch_proximity.c: 350:         return (mtouch_prox_deviati
      +                          on_t)0;
 11974  0906  3000               	movlw	0
 11975  0907                     l677:	
 11976  0907  0008               	return
 11977  0908                     __end_of_MTOUCH_Proximity_Deviation_Get:	
 11978                           
 11979                           	psect	text79
 11980  0A9C                     __ptext79:	
 11981 ;; *************** function _MTOUCH_Proximity_Baseline_Get *****************
 11982 ;; Defined at:
 11983 ;;		line 452 in file "mcc_generated_files/mtouch/mtouch_proximity.c"
 11984 ;; Parameters:    Size  Location     Type
 11985 ;;  name            1    wreg     enum E3067
 11986 ;; Auto vars:     Size  Location     Type
 11987 ;;  name            1   10[COMMON] enum E3067
 11988 ;; Return value:  Size  Location     Type
 11989 ;;                  4    0[BANK0 ] unsigned long 
 11990 ;; Registers used:
 11991 ;;		wreg, fsr1l, fsr1h, status,2, status,0, pclath, cstack
 11992 ;; Tracked objects:
 11993 ;;		On entry : 0/0
 11994 ;;		On exit  : 0/0
 11995 ;;		Unchanged: 0/0
 11996 ;; Data sizes:     COMMON   BANK0   BANK1   BANK2   BANK3   BANK4   BANK5   BANK6
 11997 ;;      Params:         0       5       0       0       0       0       0       0
 11998 ;;      Locals:         1       0       0       0       0       0       0       0
 11999 ;;      Temps:          0       0       0       0       0       0       0       0
 12000 ;;      Totals:         1       5       0       0       0       0       0       0
 12001 ;;Total ram usage:        6 bytes
 12002 ;; Hardware stack levels used:    1
 12003 ;; Hardware stack levels required when called:    5
 12004 ;; This function calls:
 12005 ;;		_Proximity_Baseline_Get_helper
 12006 ;; This function is called by:
 12007 ;;		_Proximity_State_NotActivated
 12008 ;;		_Proximity_Deviation_Update
 12009 ;;		_MTOUCH_DataStreamer_Service
 12010 ;; This function uses a non-reentrant model
 12011 ;;
 12012                           
 12013                           
 12014                           ;psect for function _MTOUCH_Proximity_Baseline_Get
 12015  0A9C                     _MTOUCH_Proximity_Baseline_Get:	
 12016                           
 12017                           ;incstack = 0
 12018                           ; Regs used in _MTOUCH_Proximity_Baseline_Get: [wreg+fsr1l+fsr1h+status,2+status,0+pclat
      +                          h+cstack]
 12019                           ;MTOUCH_Proximity_Baseline_Get@name stored from wreg
 12020  0A9C  00FA               	movwf	MTOUCH_Proximity_Baseline_Get@name
 12021  0A9D                     l3315:	
 12022                           
 12023                           ;mcc_generated_files/mtouch/mtouch_proximity.c: 452: mtouch_prox_reading_t MTOUCH_Proxim
      +                          ity_Baseline_Get(enum mtouch_proximity_names name);mcc_generated_files/mtouch/mtouch_pro
      +                          ximity.c: 453: {;mcc_generated_files/mtouch/mtouch_proximity.c: 454:     if (name < 1u)
 12024  0A9D  087A               	movf	MTOUCH_Proximity_Baseline_Get@name,w
 12025  0A9E  1D03               	btfss	3,2
 12026  0A9F  2AA1               	goto	u2501
 12027  0AA0  2AA2               	goto	u2500
 12028  0AA1                     u2501:	
 12029  0AA1  2AB0               	goto	l3323
 12030  0AA2                     u2500:	
 12031  0AA2                     l3317:	
 12032                           
 12033                           ;mcc_generated_files/mtouch/mtouch_proximity.c: 455:         return Proximity_Baseline_G
      +                          et_helper(name);
 12034  0AA2  087A               	movf	MTOUCH_Proximity_Baseline_Get@name,w
 12035  0AA3  318A  22F7  318A   	fcall	_Proximity_Baseline_Get_helper
 12036  0AA6  0874               	movf	?_Proximity_Baseline_Get_helper+3,w
 12037  0AA7  0020               	movlb	0	; select bank0
 12038  0AA8  00A3               	movwf	?_MTOUCH_Proximity_Baseline_Get+3
 12039  0AA9  0873               	movf	?_Proximity_Baseline_Get_helper+2,w
 12040  0AAA  00A2               	movwf	?_MTOUCH_Proximity_Baseline_Get+2
 12041  0AAB  0872               	movf	?_Proximity_Baseline_Get_helper+1,w
 12042  0AAC  00A1               	movwf	?_MTOUCH_Proximity_Baseline_Get+1
 12043  0AAD  0871               	movf	?_Proximity_Baseline_Get_helper,w
 12044  0AAE  00A0               	movwf	?_MTOUCH_Proximity_Baseline_Get
 12045  0AAF  2AB9               	goto	l717
 12046  0AB0                     l3323:	
 12047                           
 12048                           ;mcc_generated_files/mtouch/mtouch_proximity.c: 457:         return (mtouch_prox_reading
      +                          _t)0;
 12049  0AB0  3000               	movlw	0
 12050  0AB1  0020               	movlb	0	; select bank0
 12051  0AB2  00A3               	movwf	?_MTOUCH_Proximity_Baseline_Get+3
 12052  0AB3  3000               	movlw	0
 12053  0AB4  00A2               	movwf	?_MTOUCH_Proximity_Baseline_Get+2
 12054  0AB5  3000               	movlw	0
 12055  0AB6  00A1               	movwf	?_MTOUCH_Proximity_Baseline_Get+1
 12056  0AB7  3000               	movlw	0
 12057  0AB8  00A0               	movwf	?_MTOUCH_Proximity_Baseline_Get
 12058  0AB9                     l717:	
 12059  0AB9  0008               	return
 12060  0ABA                     __end_of_MTOUCH_Proximity_Baseline_Get:	
 12061                           
 12062                           	psect	text80
 12063  0AF7                     __ptext80:	
 12064 ;; *************** function _Proximity_Baseline_Get_helper *****************
 12065 ;; Defined at:
 12066 ;;		line 461 in file "mcc_generated_files/mtouch/mtouch_proximity.c"
 12067 ;; Parameters:    Size  Location     Type
 12068 ;;  name            1    wreg     enum E3067
 12069 ;; Auto vars:     Size  Location     Type
 12070 ;;  name            1    9[COMMON] enum E3067
 12071 ;; Return value:  Size  Location     Type
 12072 ;;                  4    1[COMMON] unsigned long 
 12073 ;; Registers used:
 12074 ;;		wreg, fsr1l, fsr1h, status,2, status,0
 12075 ;; Tracked objects:
 12076 ;;		On entry : 0/0
 12077 ;;		On exit  : 0/0
 12078 ;;		Unchanged: 0/0
 12079 ;; Data sizes:     COMMON   BANK0   BANK1   BANK2   BANK3   BANK4   BANK5   BANK6
 12080 ;;      Params:         4       0       0       0       0       0       0       0
 12081 ;;      Locals:         1       0       0       0       0       0       0       0
 12082 ;;      Temps:          4       0       0       0       0       0       0       0
 12083 ;;      Totals:         9       0       0       0       0       0       0       0
 12084 ;;Total ram usage:        9 bytes
 12085 ;; Hardware stack levels used:    1
 12086 ;; Hardware stack levels required when called:    4
 12087 ;; This function calls:
 12088 ;;		Nothing
 12089 ;; This function is called by:
 12090 ;;		_MTOUCH_Proximity_Baseline_Get
 12091 ;; This function uses a non-reentrant model
 12092 ;;
 12093                           
 12094                           
 12095                           ;psect for function _Proximity_Baseline_Get_helper
 12096  0AF7                     _Proximity_Baseline_Get_helper:	
 12097                           
 12098                           ;incstack = 0
 12099                           ; Regs used in _Proximity_Baseline_Get_helper: [wreg+fsr1l+fsr1h+status,2+status,0]
 12100                           ;Proximity_Baseline_Get_helper@name stored from wreg
 12101  0AF7  00F9               	movwf	Proximity_Baseline_Get_helper@name
 12102  0AF8                     l3207:	
 12103                           
 12104                           ;mcc_generated_files/mtouch/mtouch_proximity.c: 461: static mtouch_prox_reading_t Proxim
      +                          ity_Baseline_Get_helper(enum mtouch_proximity_names name);mcc_generated_files/mtouch/mto
      +                          uch_proximity.c: 462: {;mcc_generated_files/mtouch/mtouch_proximity.c: 463:     return (
      +                          mtouch_prox_reading_t)(mtouch_proximity[name].baseline >> ((uint8_t)4u));
 12105  0AF8  0E79               	swapf	Proximity_Baseline_Get_helper@name,w
 12106  0AF9  39F0               	andlw	240
 12107  0AFA  0779               	addwf	Proximity_Baseline_Get_helper@name,w
 12108  0AFB  0779               	addwf	Proximity_Baseline_Get_helper@name,w
 12109  0AFC  3E5F               	addlw	(low ((_mtouch_proximity| 0+7)))& (0+255)
 12110  0AFD  0086               	movwf	6
 12111  0AFE  0187               	clrf	7
 12112  0AFF  3F40               	moviw [0]fsr1
 12113  0B00  00F5               	movwf	??_Proximity_Baseline_Get_helper
 12114  0B01  3F41               	moviw [1]fsr1
 12115  0B02  00F6               	movwf	??_Proximity_Baseline_Get_helper+1
 12116  0B03  3F42               	moviw [2]fsr1
 12117  0B04  00F7               	movwf	??_Proximity_Baseline_Get_helper+2
 12118  0B05  3F43               	moviw [3]fsr1
 12119  0B06  00F8               	movwf	??_Proximity_Baseline_Get_helper+3
 12120  0B07  3004               	movlw	4
 12121  0B08                     u2355:	
 12122  0B08  36F8               	lsrf	??_Proximity_Baseline_Get_helper+3,f
 12123  0B09  0CF7               	rrf	??_Proximity_Baseline_Get_helper+2,f
 12124  0B0A  0CF6               	rrf	??_Proximity_Baseline_Get_helper+1,f
 12125  0B0B  0CF5               	rrf	??_Proximity_Baseline_Get_helper,f
 12126  0B0C                     u2350:	
 12127  0B0C  0B89               	decfsz	9,f
 12128  0B0D  2B08               	goto	u2355
 12129  0B0E  0878               	movf	??_Proximity_Baseline_Get_helper+3,w
 12130  0B0F  00F4               	movwf	?_Proximity_Baseline_Get_helper+3
 12131  0B10  0877               	movf	??_Proximity_Baseline_Get_helper+2,w
 12132  0B11  00F3               	movwf	?_Proximity_Baseline_Get_helper+2
 12133  0B12  0876               	movf	??_Proximity_Baseline_Get_helper+1,w
 12134  0B13  00F2               	movwf	?_Proximity_Baseline_Get_helper+1
 12135  0B14  0875               	movf	??_Proximity_Baseline_Get_helper,w
 12136  0B15  00F1               	movwf	?_Proximity_Baseline_Get_helper
 12137  0B16                     l721:	
 12138  0B16  0008               	return
 12139  0B17                     __end_of_Proximity_Baseline_Get_helper:	
 12140                           
 12141                           	psect	intentry
 12142  0004                     __pintentry:	
 12143 ;; *************** function _INTERRUPT_InterruptManager *****************
 12144 ;; Defined at:
 12145 ;;		line 52 in file "mcc_generated_files/interrupt_manager.c"
 12146 ;; Parameters:    Size  Location     Type
 12147 ;;		None
 12148 ;; Auto vars:     Size  Location     Type
 12149 ;;		None
 12150 ;; Return value:  Size  Location     Type
 12151 ;;                  1    wreg      void 
 12152 ;; Registers used:
 12153 ;;		wreg, fsr1l, fsr1h, status,2, status,0, pclath, cstack
 12154 ;; Tracked objects:
 12155 ;;		On entry : 0/0
 12156 ;;		On exit  : 0/0
 12157 ;;		Unchanged: 0/0
 12158 ;; Data sizes:     COMMON   BANK0   BANK1   BANK2   BANK3   BANK4   BANK5   BANK6
 12159 ;;      Params:         0       0       0       0       0       0       0       0
 12160 ;;      Locals:         0       0       0       0       0       0       0       0
 12161 ;;      Temps:          0       0       0       0       0       0       0       0
 12162 ;;      Totals:         0       0       0       0       0       0       0       0
 12163 ;;Total ram usage:        0 bytes
 12164 ;; Hardware stack levels used:    1
 12165 ;; Hardware stack levels required when called:    3
 12166 ;; This function calls:
 12167 ;;		Absolute function
 12168 ;;		_EUSART_Receive_ISR
 12169 ;;		_EUSART_Transmit_ISR
 12170 ;; This function is called by:
 12171 ;;		Interrupt level 1
 12172 ;; This function uses a non-reentrant model
 12173 ;;
 12174                           
 12175  0004                     _INTERRUPT_InterruptManager:	
 12176                           
 12177                           ;incstack = 0
 12178  0004  147E               	bsf	int$flags,0	;set compiler interrupt flag (level 1)
 12179                           
 12180                           ; Regs used in _INTERRUPT_InterruptManager: [wreg+fsr1l+fsr1h+status,2+status,0+pclath+c
      +                          stack]
 12181  0005  3180               	pagesel	$
 12182  0006                     i1l4043:	
 12183                           
 12184                           ;mcc_generated_files/interrupt_manager.c: 55:     if(INTCONbits.PEIE == 1)
 12185  0006  1F0B               	btfss	11,6	;volatile
 12186  0007  2809               	goto	u346_21
 12187  0008  280A               	goto	u346_20
 12188  0009                     u346_21:	
 12189  0009  282C               	goto	i1l762
 12190  000A                     u346_20:	
 12191  000A                     i1l4045:	
 12192                           
 12193                           ;mcc_generated_files/interrupt_manager.c: 56:     {;mcc_generated_files/interrupt_manage
      +                          r.c: 57:         if(PIE1bits.TXIE == 1 && PIR1bits.TXIF == 1)
 12194  000A  0021               	movlb	1	; select bank1
 12195  000B  1E11               	btfss	17,4	;volatile
 12196  000C  280E               	goto	u347_21
 12197  000D  280F               	goto	u347_20
 12198  000E                     u347_21:	
 12199  000E  281B               	goto	i1l757
 12200  000F                     u347_20:	
 12201  000F                     i1l4047:	
 12202  000F  0020               	movlb	0	; select bank0
 12203  0010  1E11               	btfss	17,4	;volatile
 12204  0011  2813               	goto	u348_21
 12205  0012  2814               	goto	u348_20
 12206  0013                     u348_21:	
 12207  0013  281B               	goto	i1l757
 12208  0014                     u348_20:	
 12209  0014                     i1l4049:	
 12210                           
 12211                           ;mcc_generated_files/interrupt_manager.c: 58:         {;mcc_generated_files/interrupt_ma
      +                          nager.c: 59:             EUSART_TxDefaultInterruptHandler();
 12212  0014  0021               	movlb	1	; select bank1
 12213  0015  0865               	movf	(_EUSART_TxDefaultInterruptHandler+1)^(0+128),w
 12214  0016  008A               	movwf	10
 12215  0017  0864               	movf	_EUSART_TxDefaultInterruptHandler^(0+128),w
 12216  0018  000A               	callw
 12217  0019  3180               	pagesel	$
 12218                           
 12219                           ;mcc_generated_files/interrupt_manager.c: 60:         }
 12220  001A  282C               	goto	i1l762
 12221  001B                     i1l757:	
 12222                           ;mcc_generated_files/interrupt_manager.c: 61:         else if(PIE1bits.RCIE == 1 && PIR1
      +                          bits.RCIF == 1)
 12223                           
 12224  001B  0021               	movlb	1	; select bank1
 12225  001C  1E91               	btfss	17,5	;volatile
 12226  001D  281F               	goto	u349_21
 12227  001E  2820               	goto	u349_20
 12228  001F                     u349_21:	
 12229  001F  282C               	goto	i1l758
 12230  0020                     u349_20:	
 12231  0020                     i1l4051:	
 12232  0020  0020               	movlb	0	; select bank0
 12233  0021  1E91               	btfss	17,5	;volatile
 12234  0022  2824               	goto	u350_21
 12235  0023  2825               	goto	u350_20
 12236  0024                     u350_21:	
 12237  0024  282C               	goto	i1l758
 12238  0025                     u350_20:	
 12239  0025                     i1l4053:	
 12240                           
 12241                           ;mcc_generated_files/interrupt_manager.c: 62:         {;mcc_generated_files/interrupt_ma
      +                          nager.c: 63:             EUSART_RxDefaultInterruptHandler();
 12242  0025  0021               	movlb	1	; select bank1
 12243  0026  0863               	movf	(_EUSART_RxDefaultInterruptHandler+1)^(0+128),w
 12244  0027  008A               	movwf	10
 12245  0028  0862               	movf	_EUSART_RxDefaultInterruptHandler^(0+128),w
 12246  0029  000A               	callw
 12247  002A  3180               	pagesel	$
 12248                           
 12249                           ;mcc_generated_files/interrupt_manager.c: 64:         }
 12250  002B  282C               	goto	i1l762
 12251  002C                     i1l758:	
 12252  002C                     i1l762:	
 12253                           ;mcc_generated_files/interrupt_manager.c: 69:     }
 12254                           
 12255  002C  107E               	bcf	int$flags,0	;clear compiler interrupt flag (level 1)
 12256  002D  0009               	retfie
 12257  002E                     __end_of_INTERRUPT_InterruptManager:	
 12258                           
 12259                           	psect	text82
 12260  0B37                     __ptext82:	
 12261 ;; *************** function _EUSART_Transmit_ISR *****************
 12262 ;; Defined at:
 12263 ;;		line 206 in file "mcc_generated_files/eusart.c"
 12264 ;; Parameters:    Size  Location     Type
 12265 ;;		None
 12266 ;; Auto vars:     Size  Location     Type
 12267 ;;		None
 12268 ;; Return value:  Size  Location     Type
 12269 ;;                  1    wreg      void 
 12270 ;; Registers used:
 12271 ;;		wreg, fsr1l, fsr1h, status,2, status,0
 12272 ;; Tracked objects:
 12273 ;;		On entry : 0/0
 12274 ;;		On exit  : 0/0
 12275 ;;		Unchanged: 0/0
 12276 ;; Data sizes:     COMMON   BANK0   BANK1   BANK2   BANK3   BANK4   BANK5   BANK6
 12277 ;;      Params:         0       0       0       0       0       0       0       0
 12278 ;;      Locals:         0       0       0       0       0       0       0       0
 12279 ;;      Temps:          1       0       0       0       0       0       0       0
 12280 ;;      Totals:         1       0       0       0       0       0       0       0
 12281 ;;Total ram usage:        1 bytes
 12282 ;; Hardware stack levels used:    1
 12283 ;; This function calls:
 12284 ;;		Nothing
 12285 ;; This function is called by:
 12286 ;;		_EUSART_Initialize
 12287 ;;		_INTERRUPT_InterruptManager
 12288 ;; This function uses a non-reentrant model
 12289 ;;
 12290                           
 12291                           
 12292                           ;psect for function _EUSART_Transmit_ISR
 12293  0B37                     _EUSART_Transmit_ISR:	
 12294  0B37                     i1l3911:	
 12295                           ;incstack = 0
 12296                           ; Regs used in _EUSART_Transmit_ISR: [wreg+fsr1l+fsr1h+status,2+status,0]
 12297                           
 12298                           
 12299                           ;mcc_generated_files/eusart.c: 210:     if(sizeof(eusartTxBuffer) > eusartTxBufferRemain
      +                          ing)
 12300  0B37  3008               	movlw	8
 12301  0B38  0020               	movlb	0	; select bank0
 12302  0B39  026F               	subwf	_eusartTxBufferRemaining,w	;volatile
 12303  0B3A  1803               	skipnc
 12304  0B3B  2B3D               	goto	u328_21
 12305  0B3C  2B3E               	goto	u328_20
 12306  0B3D                     u328_21:	
 12307  0B3D  2B56               	goto	i1l122
 12308  0B3E                     u328_20:	
 12309  0B3E                     i1l3913:	
 12310                           
 12311                           ;mcc_generated_files/eusart.c: 211:     {;mcc_generated_files/eusart.c: 212:         TXR
      +                          EG = eusartTxBuffer[eusartTxTail++];
 12312  0B3E  0856               	movf	_eusartTxTail,w
 12313  0B3F  3ED4               	addlw	(low (_eusartTxBuffer| 0))& (0+255)
 12314  0B40  0086               	movwf	6
 12315  0B41  0187               	clrf	7
 12316  0B42  0801               	movf	1,w
 12317  0B43  0023               	movlb	3	; select bank3
 12318  0B44  009A               	movwf	26	;volatile
 12319  0B45                     i1l3915:	
 12320  0B45  3001               	movlw	1
 12321  0B46  00F0               	movwf	??_EUSART_Transmit_ISR
 12322  0B47  0870               	movf	??_EUSART_Transmit_ISR,w
 12323  0B48  0020               	movlb	0	; select bank0
 12324  0B49  07D6               	addwf	_eusartTxTail,f	;volatile
 12325  0B4A                     i1l3917:	
 12326                           
 12327                           ;mcc_generated_files/eusart.c: 213:         if(sizeof(eusartTxBuffer) <= eusartTxTail)
 12328  0B4A  3008               	movlw	8
 12329  0B4B  0256               	subwf	_eusartTxTail,w	;volatile
 12330  0B4C  1C03               	skipc
 12331  0B4D  2B4F               	goto	u329_21
 12332  0B4E  2B50               	goto	u329_20
 12333  0B4F                     u329_21:	
 12334  0B4F  2B51               	goto	i1l3921
 12335  0B50                     u329_20:	
 12336  0B50                     i1l3919:	
 12337                           
 12338                           ;mcc_generated_files/eusart.c: 214:         {;mcc_generated_files/eusart.c: 215:        
      +                               eusartTxTail = 0;
 12339  0B50  01D6               	clrf	_eusartTxTail	;volatile
 12340  0B51                     i1l3921:	
 12341                           
 12342                           ;mcc_generated_files/eusart.c: 217:         eusartTxBufferRemaining++;
 12343  0B51  3001               	movlw	1
 12344  0B52  00F0               	movwf	??_EUSART_Transmit_ISR
 12345  0B53  0870               	movf	??_EUSART_Transmit_ISR,w
 12346  0B54  07EF               	addwf	_eusartTxBufferRemaining,f	;volatile
 12347                           
 12348                           ;mcc_generated_files/eusart.c: 218:     }
 12349  0B55  2B58               	goto	i1l125
 12350  0B56                     i1l122:	
 12351                           ;mcc_generated_files/eusart.c: 219:     else
 12352                           
 12353                           
 12354                           ;mcc_generated_files/eusart.c: 220:     {;mcc_generated_files/eusart.c: 221:         PIE
      +                          1bits.TXIE = 0;
 12355  0B56  0021               	movlb	1	; select bank1
 12356  0B57  1211               	bcf	17,4	;volatile
 12357  0B58                     i1l125:	
 12358  0B58  0008               	return
 12359  0B59                     __end_of_EUSART_Transmit_ISR:	
 12360                           
 12361                           	psect	text83
 12362  0CCB                     __ptext83:	
 12363 ;; *************** function _EUSART_Receive_ISR *****************
 12364 ;; Defined at:
 12365 ;;		line 225 in file "mcc_generated_files/eusart.c"
 12366 ;; Parameters:    Size  Location     Type
 12367 ;;		None
 12368 ;; Auto vars:     Size  Location     Type
 12369 ;;		None
 12370 ;; Return value:  Size  Location     Type
 12371 ;;                  1    wreg      void 
 12372 ;; Registers used:
 12373 ;;		wreg, fsr1l, fsr1h, status,2, status,0, pclath, cstack
 12374 ;; Tracked objects:
 12375 ;;		On entry : 0/0
 12376 ;;		On exit  : 0/0
 12377 ;;		Unchanged: 0/0
 12378 ;; Data sizes:     COMMON   BANK0   BANK1   BANK2   BANK3   BANK4   BANK5   BANK6
 12379 ;;      Params:         0       0       0       0       0       0       0       0
 12380 ;;      Locals:         0       0       0       0       0       0       0       0
 12381 ;;      Temps:          0       0       0       0       0       0       0       0
 12382 ;;      Totals:         0       0       0       0       0       0       0       0
 12383 ;;Total ram usage:        0 bytes
 12384 ;; Hardware stack levels used:    1
 12385 ;; Hardware stack levels required when called:    2
 12386 ;; This function calls:
 12387 ;;		Absolute function
 12388 ;;		_EUSART_DefaultErrorHandler
 12389 ;;		_EUSART_DefaultFramingErrorHandler
 12390 ;;		_EUSART_DefaultOverrunErrorHandler
 12391 ;;		_EUSART_RxDataHandler
 12392 ;; This function is called by:
 12393 ;;		_EUSART_Initialize
 12394 ;;		_INTERRUPT_InterruptManager
 12395 ;; This function uses a non-reentrant model
 12396 ;;
 12397                           
 12398                           
 12399                           ;psect for function _EUSART_Receive_ISR
 12400  0CCB                     _EUSART_Receive_ISR:	
 12401  0CCB                     i1l3923:	
 12402                           ;incstack = 0
 12403                           ; Regs used in _EUSART_Receive_ISR: [wreg+fsr1l+fsr1h+status,2+status,0+pclath+cstack]
 12404                           
 12405                           
 12406                           ;mcc_generated_files/eusart.c: 228:     eusartRxStatusBuffer[eusartRxHead].status = 0;
 12407  0CCB  087C               	movf	_eusartRxHead,w	;volatile
 12408  0CCC  3EC4               	addlw	(low (_eusartRxStatusBuffer| 0))& (0+255)
 12409  0CCD  0086               	movwf	6
 12410  0CCE  0187               	clrf	7
 12411  0CCF  0181               	clrf	1
 12412  0CD0                     i1l3925:	
 12413                           
 12414                           ;mcc_generated_files/eusart.c: 230:     if(RCSTAbits.FERR){
 12415  0CD0  0023               	movlb	3	; select bank3
 12416  0CD1  1D1D               	btfss	29,2	;volatile
 12417  0CD2  2CD4               	goto	u330_21
 12418  0CD3  2CD5               	goto	u330_20
 12419  0CD4                     u330_21:	
 12420  0CD4  2CE0               	goto	i1l3931
 12421  0CD5                     u330_20:	
 12422  0CD5                     i1l3927:	
 12423                           
 12424                           ;mcc_generated_files/eusart.c: 231:         eusartRxStatusBuffer[eusartRxHead].ferr = 1;
 12425  0CD5  087C               	movf	_eusartRxHead,w	;volatile
 12426  0CD6  3EC4               	addlw	(low (_eusartRxStatusBuffer| 0))& (0+255)
 12427  0CD7  0086               	movwf	6
 12428  0CD8  0187               	clrf	7
 12429  0CD9  1481               	bsf	1,1
 12430  0CDA                     i1l3929:	
 12431                           
 12432                           ;mcc_generated_files/eusart.c: 232:         EUSART_FramingErrorHandler();
 12433  0CDA  0021               	movlb	1	; select bank1
 12434  0CDB  0861               	movf	(_EUSART_FramingErrorHandler+1)^(0+128),w
 12435  0CDC  008A               	movwf	10
 12436  0CDD  0860               	movf	_EUSART_FramingErrorHandler^(0+128),w
 12437  0CDE  000A               	callw
 12438  0CDF  318C               	pagesel	$
 12439  0CE0                     i1l3931:	
 12440                           
 12441                           ;mcc_generated_files/eusart.c: 235:     if(RCSTAbits.OERR){
 12442  0CE0  0023               	movlb	3	; select bank3
 12443  0CE1  1C9D               	btfss	29,1	;volatile
 12444  0CE2  2CE4               	goto	u331_21
 12445  0CE3  2CE5               	goto	u331_20
 12446  0CE4                     u331_21:	
 12447  0CE4  2CF0               	goto	i1l3937
 12448  0CE5                     u331_20:	
 12449  0CE5                     i1l3933:	
 12450                           
 12451                           ;mcc_generated_files/eusart.c: 236:         eusartRxStatusBuffer[eusartRxHead].oerr = 1;
 12452  0CE5  087C               	movf	_eusartRxHead,w	;volatile
 12453  0CE6  3EC4               	addlw	(low (_eusartRxStatusBuffer| 0))& (0+255)
 12454  0CE7  0086               	movwf	6
 12455  0CE8  0187               	clrf	7
 12456  0CE9  1501               	bsf	1,2
 12457  0CEA                     i1l3935:	
 12458                           
 12459                           ;mcc_generated_files/eusart.c: 237:         EUSART_OverrunErrorHandler();
 12460  0CEA  0021               	movlb	1	; select bank1
 12461  0CEB  085F               	movf	(_EUSART_OverrunErrorHandler+1)^(0+128),w
 12462  0CEC  008A               	movwf	10
 12463  0CED  085E               	movf	_EUSART_OverrunErrorHandler^(0+128),w
 12464  0CEE  000A               	callw
 12465  0CEF  318C               	pagesel	$
 12466  0CF0                     i1l3937:	
 12467                           
 12468                           ;mcc_generated_files/eusart.c: 240:     if(eusartRxStatusBuffer[eusartRxHead].status){
 12469  0CF0  087C               	movf	_eusartRxHead,w	;volatile
 12470  0CF1  3EC4               	addlw	(low (_eusartRxStatusBuffer| 0))& (0+255)
 12471  0CF2  0086               	movwf	6
 12472  0CF3  0187               	clrf	7
 12473  0CF4  0801               	movf	1,w
 12474  0CF5  1903               	btfsc	3,2
 12475  0CF6  2CF8               	goto	u332_21
 12476  0CF7  2CF9               	goto	u332_20
 12477  0CF8                     u332_21:	
 12478  0CF8  2D00               	goto	i1l3941
 12479  0CF9                     u332_20:	
 12480  0CF9                     i1l3939:	
 12481                           
 12482                           ;mcc_generated_files/eusart.c: 241:         EUSART_ErrorHandler();
 12483  0CF9  0021               	movlb	1	; select bank1
 12484  0CFA  085D               	movf	(_EUSART_ErrorHandler+1)^(0+128),w
 12485  0CFB  008A               	movwf	10
 12486  0CFC  085C               	movf	_EUSART_ErrorHandler^(0+128),w
 12487  0CFD  000A               	callw
 12488  0CFE  318C               	pagesel	$
 12489                           
 12490                           ;mcc_generated_files/eusart.c: 242:     } else {
 12491  0CFF  2D03               	goto	i1l132
 12492  0D00                     i1l3941:	
 12493                           
 12494                           ;mcc_generated_files/eusart.c: 243:         EUSART_RxDataHandler();
 12495  0D00  318A  224D  318C   	fcall	_EUSART_RxDataHandler
 12496  0D03                     i1l132:	
 12497  0D03  0008               	return
 12498  0D04                     __end_of_EUSART_Receive_ISR:	
 12499                           
 12500                           	psect	text84
 12501  080D                     __ptext84:	
 12502 ;; *************** function _EUSART_DefaultOverrunErrorHandler *****************
 12503 ;; Defined at:
 12504 ;;		line 261 in file "mcc_generated_files/eusart.c"
 12505 ;; Parameters:    Size  Location     Type
 12506 ;;		None
 12507 ;; Auto vars:     Size  Location     Type
 12508 ;;		None
 12509 ;; Return value:  Size  Location     Type
 12510 ;;                  1    wreg      void 
 12511 ;; Registers used:
 12512 ;;		None
 12513 ;; Tracked objects:
 12514 ;;		On entry : 0/0
 12515 ;;		On exit  : 0/0
 12516 ;;		Unchanged: 0/0
 12517 ;; Data sizes:     COMMON   BANK0   BANK1   BANK2   BANK3   BANK4   BANK5   BANK6
 12518 ;;      Params:         0       0       0       0       0       0       0       0
 12519 ;;      Locals:         0       0       0       0       0       0       0       0
 12520 ;;      Temps:          0       0       0       0       0       0       0       0
 12521 ;;      Totals:         0       0       0       0       0       0       0       0
 12522 ;;Total ram usage:        0 bytes
 12523 ;; Hardware stack levels used:    1
 12524 ;; This function calls:
 12525 ;;		Nothing
 12526 ;; This function is called by:
 12527 ;;		_EUSART_Initialize
 12528 ;;		_EUSART_Receive_ISR
 12529 ;; This function uses a non-reentrant model
 12530 ;;
 12531                           
 12532                           
 12533                           ;psect for function _EUSART_DefaultOverrunErrorHandler
 12534  080D                     _EUSART_DefaultOverrunErrorHandler:	
 12535  080D                     i1l3773:	
 12536                           ;incstack = 0
 12537                           ; Regs used in _EUSART_DefaultOverrunErrorHandler: []
 12538                           
 12539                           
 12540                           ;mcc_generated_files/eusart.c: 264:     RCSTAbits.CREN = 0;
 12541  080D  0023               	movlb	3	; select bank3
 12542  080E  121D               	bcf	29,4	;volatile
 12543                           
 12544                           ;mcc_generated_files/eusart.c: 265:     RCSTAbits.CREN = 1;
 12545  080F  161D               	bsf	29,4	;volatile
 12546  0810                     i1l142:	
 12547  0810  0008               	return
 12548  0811                     __end_of_EUSART_DefaultOverrunErrorHandler:	
 12549                           
 12550                           	psect	text85
 12551  17FF                     __ptext85:	
 12552 ;; *************** function _EUSART_DefaultFramingErrorHandler *****************
 12553 ;; Defined at:
 12554 ;;		line 259 in file "mcc_generated_files/eusart.c"
 12555 ;; Parameters:    Size  Location     Type
 12556 ;;		None
 12557 ;; Auto vars:     Size  Location     Type
 12558 ;;		None
 12559 ;; Return value:  Size  Location     Type
 12560 ;;                  1    wreg      void 
 12561 ;; Registers used:
 12562 ;;		None
 12563 ;; Tracked objects:
 12564 ;;		On entry : 0/0
 12565 ;;		On exit  : 0/0
 12566 ;;		Unchanged: 0/0
 12567 ;; Data sizes:     COMMON   BANK0   BANK1   BANK2   BANK3   BANK4   BANK5   BANK6
 12568 ;;      Params:         0       0       0       0       0       0       0       0
 12569 ;;      Locals:         0       0       0       0       0       0       0       0
 12570 ;;      Temps:          0       0       0       0       0       0       0       0
 12571 ;;      Totals:         0       0       0       0       0       0       0       0
 12572 ;;Total ram usage:        0 bytes
 12573 ;; Hardware stack levels used:    1
 12574 ;; This function calls:
 12575 ;;		Nothing
 12576 ;; This function is called by:
 12577 ;;		_EUSART_Initialize
 12578 ;;		_EUSART_Receive_ISR
 12579 ;; This function uses a non-reentrant model
 12580 ;;
 12581                           
 12582                           
 12583                           ;psect for function _EUSART_DefaultFramingErrorHandler
 12584  17FF                     _EUSART_DefaultFramingErrorHandler:	
 12585  17FF                     i1l139:	
 12586                           ;incstack = 0
 12587                           ; Regs used in _EUSART_DefaultFramingErrorHandler: []
 12588                           
 12589  17FF  0008               	return
 12590  1800                     __end_of_EUSART_DefaultFramingErrorHandler:	
 12591                           
 12592                           	psect	text86
 12593  0809                     __ptext86:	
 12594 ;; *************** function _EUSART_DefaultErrorHandler *****************
 12595 ;; Defined at:
 12596 ;;		line 269 in file "mcc_generated_files/eusart.c"
 12597 ;; Parameters:    Size  Location     Type
 12598 ;;		None
 12599 ;; Auto vars:     Size  Location     Type
 12600 ;;		None
 12601 ;; Return value:  Size  Location     Type
 12602 ;;                  1    wreg      void 
 12603 ;; Registers used:
 12604 ;;		wreg, fsr1l, fsr1h, status,2, status,0, pclath, cstack
 12605 ;; Tracked objects:
 12606 ;;		On entry : 0/0
 12607 ;;		On exit  : 0/0
 12608 ;;		Unchanged: 0/0
 12609 ;; Data sizes:     COMMON   BANK0   BANK1   BANK2   BANK3   BANK4   BANK5   BANK6
 12610 ;;      Params:         0       0       0       0       0       0       0       0
 12611 ;;      Locals:         0       0       0       0       0       0       0       0
 12612 ;;      Temps:          0       0       0       0       0       0       0       0
 12613 ;;      Totals:         0       0       0       0       0       0       0       0
 12614 ;;Total ram usage:        0 bytes
 12615 ;; Hardware stack levels used:    1
 12616 ;; Hardware stack levels required when called:    1
 12617 ;; This function calls:
 12618 ;;		_EUSART_RxDataHandler
 12619 ;; This function is called by:
 12620 ;;		_EUSART_Initialize
 12621 ;;		_EUSART_Receive_ISR
 12622 ;; This function uses a non-reentrant model
 12623 ;;
 12624                           
 12625                           
 12626                           ;psect for function _EUSART_DefaultErrorHandler
 12627  0809                     _EUSART_DefaultErrorHandler:	
 12628  0809                     i1l3775:	
 12629                           ;incstack = 0
 12630                           ; Regs used in _EUSART_DefaultErrorHandler: [wreg+fsr1l+fsr1h+status,2+status,0+pclath+c
      +                          stack]
 12631                           
 12632                           
 12633                           ;mcc_generated_files/eusart.c: 270:     EUSART_RxDataHandler();
 12634  0809  318A  224D  3188   	fcall	_EUSART_RxDataHandler
 12635  080C                     i1l145:	
 12636  080C  0008               	return
 12637  080D                     __end_of_EUSART_DefaultErrorHandler:	
 12638                           
 12639                           	psect	text87
 12640  0A4D                     __ptext87:	
 12641 ;; *************** function _EUSART_RxDataHandler *****************
 12642 ;; Defined at:
 12643 ;;		line 249 in file "mcc_generated_files/eusart.c"
 12644 ;; Parameters:    Size  Location     Type
 12645 ;;		None
 12646 ;; Auto vars:     Size  Location     Type
 12647 ;;		None
 12648 ;; Return value:  Size  Location     Type
 12649 ;;                  1    wreg      void 
 12650 ;; Registers used:
 12651 ;;		wreg, fsr1l, fsr1h, status,2, status,0
 12652 ;; Tracked objects:
 12653 ;;		On entry : 0/0
 12654 ;;		On exit  : 0/0
 12655 ;;		Unchanged: 0/0
 12656 ;; Data sizes:     COMMON   BANK0   BANK1   BANK2   BANK3   BANK4   BANK5   BANK6
 12657 ;;      Params:         0       0       0       0       0       0       0       0
 12658 ;;      Locals:         0       0       0       0       0       0       0       0
 12659 ;;      Temps:          1       0       0       0       0       0       0       0
 12660 ;;      Totals:         1       0       0       0       0       0       0       0
 12661 ;;Total ram usage:        1 bytes
 12662 ;; Hardware stack levels used:    1
 12663 ;; This function calls:
 12664 ;;		Nothing
 12665 ;; This function is called by:
 12666 ;;		_EUSART_Receive_ISR
 12667 ;;		_EUSART_DefaultErrorHandler
 12668 ;; This function uses a non-reentrant model
 12669 ;;
 12670                           
 12671                           
 12672                           ;psect for function _EUSART_RxDataHandler
 12673  0A4D                     _EUSART_RxDataHandler:	
 12674  0A4D                     i1l3551:	
 12675                           ;incstack = 0
 12676                           ; Regs used in _EUSART_RxDataHandler: [wreg+fsr1l+fsr1h+status,2+status,0]
 12677                           
 12678                           
 12679                           ;mcc_generated_files/eusart.c: 251:     eusartRxBuffer[eusartRxHead++] = RCREG;
 12680  0A4D  0023               	movlb	3	; select bank3
 12681  0A4E  0819               	movf	25,w	;volatile
 12682  0A4F  00F0               	movwf	??_EUSART_RxDataHandler
 12683  0A50  087C               	movf	_eusartRxHead,w
 12684  0A51  3ECC               	addlw	(low (_eusartRxBuffer| 0))& (0+255)
 12685  0A52  0086               	movwf	6
 12686  0A53  0187               	clrf	7
 12687  0A54  0870               	movf	??_EUSART_RxDataHandler,w
 12688  0A55  0081               	movwf	1
 12689  0A56                     i1l3553:	
 12690  0A56  3001               	movlw	1
 12691  0A57  00F0               	movwf	??_EUSART_RxDataHandler
 12692  0A58  0870               	movf	??_EUSART_RxDataHandler,w
 12693  0A59  07FC               	addwf	_eusartRxHead,f	;volatile
 12694  0A5A                     i1l3555:	
 12695                           
 12696                           ;mcc_generated_files/eusart.c: 252:     if(sizeof(eusartRxBuffer) <= eusartRxHead)
 12697  0A5A  3008               	movlw	8
 12698  0A5B  027C               	subwf	_eusartRxHead,w	;volatile
 12699  0A5C  1C03               	skipc
 12700  0A5D  2A5F               	goto	u294_21
 12701  0A5E  2A60               	goto	u294_20
 12702  0A5F                     u294_21:	
 12703  0A5F  2A61               	goto	i1l3559
 12704  0A60                     u294_20:	
 12705  0A60                     i1l3557:	
 12706                           
 12707                           ;mcc_generated_files/eusart.c: 253:     {;mcc_generated_files/eusart.c: 254:         eus
      +                          artRxHead = 0;
 12708  0A60  01FC               	clrf	_eusartRxHead	;volatile
 12709  0A61                     i1l3559:	
 12710                           
 12711                           ;mcc_generated_files/eusart.c: 256:     eusartRxCount++;
 12712  0A61  3001               	movlw	1
 12713  0A62  00F0               	movwf	??_EUSART_RxDataHandler
 12714  0A63  0870               	movf	??_EUSART_RxDataHandler,w
 12715  0A64  0020               	movlb	0	; select bank0
 12716  0A65  07D4               	addwf	_eusartRxCount,f	;volatile
 12717  0A66                     i1l136:	
 12718  0A66  0008               	return
 12719  0A67                     __end_of_EUSART_RxDataHandler:	
 12720  007E                     btemp	set	126	;btemp
 12721  007E                     int$flags	set	126
 12722  007E                     wtemp0	set	126


Data Sizes:
    Strings     0
    Constant    25
    Data        41
    BSS         58
    Persistent  43
    Stack       0

Auto Spaces:
    Space          Size  Autos    Used
    COMMON           14     12      13
    BANK0            80     41      80
    BANK1            80      0      70
    BANK2            80      0       0
    BANK3            80      0       0
    BANK4            80      0       0
    BANK5            80      0       0
    BANK6            16      0       0

Pointer List with Targets:

    Proximity_Service$2266$0	PTR struct . size(1) Largest target is 18
		 -> mtouch_proximity(BANK0[18]), 

    Proximity_Service$2266	PTR FTN(PTR struct .,)void  size(2) Largest target is 1
		 -> Proximity_State_Activated(), Proximity_State_NotActivated(), Proximity_State_Initializing(), 

    Proximity_StateMachine$0	PTR struct . size(1) Largest target is 18
		 -> mtouch_proximity(BANK0[18]), 

    memcpy@d1	PTR void  size(1) Largest target is 18
		 -> mtouch_proximity(BANK0[18]), 

    memcpy@d	PTR unsigned char  size(1) Largest target is 18
		 -> mtouch_proximity(BANK0[18]), 

    memcpy@s1	PTR const void  size(2) Largest target is 18
		 -> mtouch_proximity_init(CODE[18]), 

    memcpy@s	PTR const unsigned char  size(2) Largest target is 18
		 -> mtouch_proximity_init(CODE[18]), 

    Proximity_Baseline_Update@prox	PTR struct . size(1) Largest target is 18
		 -> mtouch_proximity(BANK0[18]), 

    Proximity_Baseline_Initialize@prox	PTR struct . size(1) Largest target is 18
		 -> mtouch_proximity(BANK0[18]), 

    Proximity_Reading_Update_Helper@prox	PTR struct . size(1) Largest target is 18
		 -> mtouch_proximity(BANK0[18]), 

    Proximity_Reading_Update@prox	PTR struct . size(1) Largest target is 18
		 -> mtouch_proximity(BANK0[18]), 

    Proximity_Tick_helper@prox	PTR struct . size(1) Largest target is 18
		 -> mtouch_proximity(BANK0[18]), 

    Proximity_State_Activated@prox	PTR struct . size(1) Largest target is 18
		 -> mtouch_proximity(BANK0[18]), 

    Proximity_State_NotActivated@prox	PTR struct . size(1) Largest target is 18
		 -> mtouch_proximity(BANK0[18]), 

    Proximity_State_Initializing@prox	PTR struct . size(1) Largest target is 18
		 -> mtouch_proximity(BANK0[18]), 

    Proximity_Service@prox	PTR struct . size(1) Largest target is 18
		 -> mtouch_proximity(BANK0[18]), 

    sp__memcpy	PTR void  size(1) Largest target is 18
		 -> mtouch_proximity(BANK0[18]), 

    MTOUCH_Proximity_Initialize@prox	PTR struct . size(1) Largest target is 18
		 -> mtouch_proximity(BANK0[18]), 

    Proximity_StateMachine	PTR FTN(PTR struct .,)void [3] size(2) Largest target is 1
		 -> Proximity_State_Activated(), Proximity_State_NotActivated(), Proximity_State_Initializing(), 

    callback_notActivated	PTR FTN(enum E3067,)void  size(2) Largest target is 1
		 -> Proximity_DefaultCallback(), 

    callback_activated	PTR FTN(enum E3067,)void  size(2) Largest target is 1
		 -> Proximity_DefaultCallback(), 

    Sensor_setSampled@sensor	PTR struct . size(1) Largest target is 9
		 -> NULL(NULL[0]), mtouch_sensor(BANK1[9]), 

    Sensor_Sampled_Reset@sensor	PTR struct . size(1) Largest target is 9
		 -> mtouch_sensor(BANK1[9]), 

    MTOUCH_Sensor_Sampled_ResetAll@sensor	PTR struct . size(1) Largest target is 9
		 -> mtouch_sensor(BANK1[9]), 

    Sensor_isCalibratingAcqTime@sensor	PTR struct . size(1) Largest target is 9
		 -> NULL(NULL[0]), mtouch_sensor(BANK1[9]), 

    Sensor_setCalibratAcqTime@sensor	PTR struct . size(1) Largest target is 9
		 -> NULL(NULL[0]), mtouch_sensor(BANK1[9]), 

    Sensor_setCalibrated@sensor	PTR struct . size(1) Largest target is 9
		 -> NULL(NULL[0]), mtouch_sensor(BANK1[9]), 

    Sensor_isCalibrated@sensor	PTR struct . size(1) Largest target is 9
		 -> NULL(NULL[0]), mtouch_sensor(BANK1[9]), 

    Sensor_isActive@sensor	PTR struct . size(1) Largest target is 9
		 -> NULL(NULL[0]), mtouch_sensor(BANK1[9]), 

    Sensor_setInactive@sensor	PTR struct . size(1) Largest target is 9
		 -> NULL(NULL[0]), mtouch_sensor(BANK1[9]), 

    Sensor_setActive@sensor	PTR struct . size(1) Largest target is 9
		 -> NULL(NULL[0]), mtouch_sensor(BANK1[9]), 

    Sensor_isEnabled@sensor	PTR struct . size(1) Largest target is 9
		 -> NULL(NULL[0]), mtouch_sensor(BANK1[9]), 

    Sensor_RawSample_Update@sensor	PTR struct . size(1) Largest target is 9
		 -> NULL(NULL[0]), mtouch_sensor(BANK1[9]), 

    Sensor_Scanfrequency_Evaluation@sensor_adc2	PTR struct . size(1) Largest target is 0
		 -> NULL(NULL[0]), 

    Sensor_Scanfrequency_Evaluation@sensor_adc1	PTR struct . size(1) Largest target is 9
		 -> mtouch_sensor(BANK1[9]), 

    Sensor_autoCalibration@sensor	PTR struct . size(1) Largest target is 9
		 -> NULL(NULL[0]), mtouch_sensor(BANK1[9]), 

    Sensor_Acq_ExecutePacket@sensor_adc2	PTR struct . size(1) Largest target is 0
		 -> NULL(NULL[0]), 

    Sensor_Acq_ExecutePacket@sensor_adc1	PTR struct . size(1) Largest target is 9
		 -> mtouch_sensor(BANK1[9]), 

    Sensor_loadADCSettings@sensor	PTR struct . size(1) Largest target is 9
		 -> NULL(NULL[0]), mtouch_sensor(BANK1[9]), 

    Sensor_postAcquisitionProcess@sensor	PTR struct . size(1) Largest target is 9
		 -> NULL(NULL[0]), mtouch_sensor(BANK1[9]), 

    Sensor_Acquisition@sensor_adc2	PTR struct . size(1) Largest target is 0
		 -> NULL(NULL[0]), 

    Sensor_Acquisition@sensor_adc1	PTR struct . size(1) Largest target is 9
		 -> mtouch_sensor(BANK1[9]), 

    Sensor_getScanGroupIndex@sensor	PTR struct . size(1) Largest target is 9
		 -> NULL(NULL[0]), mtouch_sensor(BANK1[9]), 

    Sensor_Service@sensor_adc2	PTR struct . size(1) Largest target is 0
		 -> NULL(NULL[0]), 

    Sensor_Service@sensor_adc1	PTR struct . size(1) Largest target is 9
		 -> mtouch_sensor(BANK1[9]), 

    S296$sensor_adc2	PTR struct . size(1) Largest target is 0
		 -> NULL(NULL[0]), 

    sensor_scan_group.sensor_adc2	PTR struct . size(1) Largest target is 0
		 -> NULL(NULL[0]), 

    S296$sensor_adc1	PTR struct . size(1) Largest target is 9
		 -> mtouch_sensor(BANK1[9]), 

    sensor_scan_group.sensor_adc1	PTR struct . size(1) Largest target is 9
		 -> mtouch_sensor(BANK1[9]), 

    callback_sampled	PTR FTN(enum E2854,)void  size(2) Largest target is 1
		 -> Sensor_DefaultCallback(), 

    EUSART_SetRxInterruptHandler@interruptHandler	PTR FTN()void  size(2) Largest target is 1
		 -> EUSART_Receive_ISR(), 

    EUSART_RxDefaultInterruptHandler	PTR FTN()void  size(2) Largest target is 1
		 -> Absolute function(), EUSART_Receive_ISR(), 

    EUSART_SetTxInterruptHandler@interruptHandler	PTR FTN()void  size(2) Largest target is 1
		 -> EUSART_Transmit_ISR(), 

    EUSART_TxDefaultInterruptHandler	PTR FTN()void  size(2) Largest target is 1
		 -> Absolute function(), EUSART_Transmit_ISR(), 

    EUSART_SetErrorHandler@interruptHandler	PTR FTN()void  size(2) Largest target is 1
		 -> EUSART_DefaultErrorHandler(), 

    EUSART_SetOverrunErrorHandler@interruptHandler	PTR FTN()void  size(2) Largest target is 1
		 -> EUSART_DefaultOverrunErrorHandler(), 

    EUSART_SetFramingErrorHandler@interruptHandler	PTR FTN()void  size(2) Largest target is 1
		 -> EUSART_DefaultFramingErrorHandler(), 

    EUSART_ErrorHandler	PTR FTN()void  size(2) Largest target is 1
		 -> Absolute function(), EUSART_DefaultErrorHandler(), 

    EUSART_OverrunErrorHandler	PTR FTN()void  size(2) Largest target is 1
		 -> Absolute function(), EUSART_DefaultOverrunErrorHandler(), 

    EUSART_FramingErrorHandler	PTR FTN()void  size(2) Largest target is 1
		 -> Absolute function(), EUSART_DefaultFramingErrorHandler(), 


Critical Paths under _main in COMMON

    _MTOUCH_Initialize->_MTOUCH_Sensor_InitializeAll
    _MTOUCH_Sensor_InitializeAll->_MTOUCH_Sensor_Initialize
    _MTOUCH_Sensor_Initialize->_MTOUCH_Sensor_Calibrate
    _MTOUCH_Sensor_Initialize->_MTOUCH_Sensor_Enable
    _MTOUCH_Sensor_Enable->___bmul
    _MTOUCH_Sensor_Calibrate->___bmul
    _MTOUCH_Proximity_InitializeAll->_memcpy
    _EUSART_Initialize->_EUSART_SetErrorHandler
    _EUSART_Initialize->_EUSART_SetFramingErrorHandler
    _EUSART_Initialize->_EUSART_SetOverrunErrorHandler
    _EUSART_Initialize->_EUSART_SetRxInterruptHandler
    _EUSART_Initialize->_EUSART_SetTxInterruptHandler
    _MTOUCH_Proximity_Tick->_Proximity_Tick_helper
    _MTOUCH_Sensor_Sampled_ResetAll->_Sensor_Sampled_Reset
    _Sensor_RawSample_Update->_Sensor_getScanGroupIndex
    _Sensor_Acquisition->_Sensor_Acq_ExecutePacket
    _Sensor_postAcquisitionProcess->_Sensor_getScanGroupIndex
    _Sensor_postAcquisitionProcess->_abs
    _Sensor_Scanfrequency_Evaluation->_Sensor_Acq_ExecutePacket
    _Sensor_Acq_ExecutePacket->_Sensor_autoCalibration
    _Sensor_loadADCSettings->_Sensor_isCalibrated
    _Sensor_loadADCSettings->_Sensor_isCalibratingAcqTime
    _Sensor_autoCalibration->_Sensor_getScanGroupIndex
    _Sensor_autoCalibration->_abs
    _MTOUCH_Proximity_ServiceAll->_Proximity_Service
    _Proximity_Service->_Proximity_Reading_Update
    _Proximity_State_NotActivated->_MTOUCH_Proximity_Baseline_Get
    _Proximity_Baseline_Initialize->_MTOUCH_Sensor_RawSample_Get
    _Proximity_Reading_Update->_Proximity_Reading_Update_Helper
    _Proximity_Reading_Update_Helper->_MTOUCH_Sensor_RawSample_Get
    _MTOUCH_Sensor_RawSample_Get->___bmul
    _Proximity_Deviation_Update->_MTOUCH_Proximity_Baseline_Get
    _MTOUCH_Sensor_wasSampled->___bmul
    _MTOUCH_Sensor_isCalibrated->___bmul
    _MTOUCH_DataStreamer_Service->_MTOUCH_Proximity_Baseline_Get
    _datastreamer_output_byte->_EUSART_Write
    _MTOUCH_Sensor_AdditionalCap_Get->___bmul
    _MTOUCH_Sensor_AcquisitionTime_Get->___bmul
    _MTOUCH_Proximity_Baseline_Get->_Proximity_Baseline_Get_helper

Critical Paths under _INTERRUPT_InterruptManager in COMMON

    _INTERRUPT_InterruptManager->_EUSART_Transmit_ISR
    _EUSART_Receive_ISR->_EUSART_RxDataHandler
    _EUSART_DefaultErrorHandler->_EUSART_RxDataHandler

Critical Paths under _main in BANK0

    _main->_MTOUCH_Service_Mainloop
    _MTOUCH_Service_Mainloop->_MTOUCH_Sensor_SampleAll
    _MTOUCH_Sensor_SampleAll->_Sensor_Service
    _Sensor_Service->_Sensor_Acquisition
    _Sensor_Acquisition->_Sensor_Scanfrequency_Evaluation
    _Sensor_Scanfrequency_Evaluation->_Sensor_Acq_ExecutePacket
    _MTOUCH_Proximity_ServiceAll->_Proximity_Service
    _Proximity_Service->_Proximity_Deviation_Update
    _Proximity_State_NotActivated->_MTOUCH_Proximity_Baseline_Get
    _Proximity_Reading_Update->_Proximity_Reading_Update_Helper
    _Proximity_Deviation_Update->_MTOUCH_Proximity_Baseline_Get
    _MTOUCH_DataStreamer_Service->_MTOUCH_Proximity_Baseline_Get

Critical Paths under _INTERRUPT_InterruptManager in BANK0

    None.

Critical Paths under _main in BANK1

    None.

Critical Paths under _INTERRUPT_InterruptManager in BANK1

    None.

Critical Paths under _main in BANK2

    None.

Critical Paths under _INTERRUPT_InterruptManager in BANK2

    None.

Critical Paths under _main in BANK3

    None.

Critical Paths under _INTERRUPT_InterruptManager in BANK3

    None.

Critical Paths under _main in BANK4

    None.

Critical Paths under _INTERRUPT_InterruptManager in BANK4

    None.

Critical Paths under _main in BANK5

    None.

Critical Paths under _INTERRUPT_InterruptManager in BANK5

    None.

Critical Paths under _main in BANK6

    None.

Critical Paths under _INTERRUPT_InterruptManager in BANK6

    None.

Call Graph Tables:

 ---------------------------------------------------------------------------------
 (Depth) Function   	        Calls       Base Space   Used Autos Params    Refs
 ---------------------------------------------------------------------------------
 (0) _main                                                 0     0      0   27700
       _MTOUCH_Proximity_isActivated
            _MTOUCH_Service_Mainloop
                  _SYSTEM_Initialize
 ---------------------------------------------------------------------------------
 (1) _SYSTEM_Initialize                                    0     0      0    3472
                  _EUSART_Initialize
                  _MTOUCH_Initialize
              _OSCILLATOR_Initialize
             _PIN_MANAGER_Initialize
                    _TMR2_Initialize
                     _WDT_Initialize
 ---------------------------------------------------------------------------------
 (2) _WDT_Initialize                                       0     0      0       0
 ---------------------------------------------------------------------------------
 (2) _TMR2_Initialize                                      0     0      0       0
 ---------------------------------------------------------------------------------
 (2) _PIN_MANAGER_Initialize                               0     0      0       0
 ---------------------------------------------------------------------------------
 (2) _OSCILLATOR_Initialize                                0     0      0       0
 ---------------------------------------------------------------------------------
 (2) _MTOUCH_Initialize                                    0     0      0    2982
     _MTOUCH_DataStreamer_Initialize
     _MTOUCH_Proximity_InitializeAll
        _MTOUCH_Sensor_InitializeAll
     _MTOUCH_Sensor_Sampled_ResetAll
      _MTOUCH_Sensor_Scan_Initialize
 ---------------------------------------------------------------------------------
 (3) _MTOUCH_Sensor_InitializeAll                          2     2      0    2387
                                              9 COMMON     2     2      0
           _MTOUCH_Sensor_Initialize
 ---------------------------------------------------------------------------------
 (4) _MTOUCH_Sensor_Initialize                             2     2      0    2288
                                              7 COMMON     2     2      0
            _MTOUCH_Sensor_Calibrate
               _MTOUCH_Sensor_Enable
               _Sensor_Sampled_Reset
                             ___bmul
 ---------------------------------------------------------------------------------
 (5) _MTOUCH_Sensor_Enable                                 2     2      0     723
                                              5 COMMON     2     2      0
                             ___bmul
 ---------------------------------------------------------------------------------
 (5) _MTOUCH_Sensor_Calibrate                              2     2      0     723
                                              5 COMMON     2     2      0
                             ___bmul
 ---------------------------------------------------------------------------------
 (3) _MTOUCH_Proximity_InitializeAll                       0     0      0     439
        _MTOUCH_Proximity_Initialize
                             _memcpy
 ---------------------------------------------------------------------------------
 (4) _memcpy                                              10     6      4     328
                                              1 COMMON    10     6      4
 ---------------------------------------------------------------------------------
 (3) _MTOUCH_DataStreamer_Initialize                       0     0      0       0
 ---------------------------------------------------------------------------------
 (2) _EUSART_Initialize                                    1     1      0     490
                                              3 COMMON     1     1      0
             _EUSART_SetErrorHandler
      _EUSART_SetFramingErrorHandler
      _EUSART_SetOverrunErrorHandler
       _EUSART_SetRxInterruptHandler
       _EUSART_SetTxInterruptHandler
 ---------------------------------------------------------------------------------
 (3) _EUSART_SetTxInterruptHandler                         2     0      2      98
                                              1 COMMON     2     0      2
 ---------------------------------------------------------------------------------
 (3) _EUSART_SetRxInterruptHandler                         2     0      2      98
                                              1 COMMON     2     0      2
 ---------------------------------------------------------------------------------
 (3) _EUSART_SetOverrunErrorHandler                        2     0      2      98
                                              1 COMMON     2     0      2
 ---------------------------------------------------------------------------------
 (3) _EUSART_SetFramingErrorHandler                        2     0      2      98
                                              1 COMMON     2     0      2
 ---------------------------------------------------------------------------------
 (3) _EUSART_SetErrorHandler                               2     0      2      98
                                              1 COMMON     2     0      2
 ---------------------------------------------------------------------------------
 (1) _MTOUCH_Service_Mainloop                              1     1      0   24184
                                             40 BANK0      1     1      0
        _MTOUCH_DataStreamer_Service
        _MTOUCH_Proximity_ServiceAll
            _MTOUCH_Sensor_SampleAll
     _MTOUCH_Sensor_Sampled_ResetAll
                        _MTOUCH_Tick
                 _MTOUCH_needReburst
 ---------------------------------------------------------------------------------
 (2) _MTOUCH_needReburst                                   1     1      0      23
                                              1 COMMON     1     1      0
 ---------------------------------------------------------------------------------
 (2) _MTOUCH_Tick                                          0     0      0     121
              _MTOUCH_Proximity_Tick
 ---------------------------------------------------------------------------------
 (3) _MTOUCH_Proximity_Tick                                0     0      0     121
              _Proximity_Tick_helper
 ---------------------------------------------------------------------------------
 (4) _Proximity_Tick_helper                                3     3      0     121
                                              1 COMMON     3     3      0
 ---------------------------------------------------------------------------------
 (3) _MTOUCH_Sensor_Sampled_ResetAll                       2     2      0     156
                                              2 COMMON     2     2      0
               _Sensor_Sampled_Reset
 ---------------------------------------------------------------------------------
 (4) _Sensor_Sampled_Reset                                 1     1      0      88
                                              1 COMMON     1     1      0
 ---------------------------------------------------------------------------------
 (2) _MTOUCH_Sensor_SampleAll                              2     2      0   14526
                                             38 BANK0      2     2      0
                     _Sensor_Service
 ---------------------------------------------------------------------------------
 (3) _Sensor_Service                                       7     7      0   14427
                                             31 BANK0      7     7      0
                 _Sensor_Acquisition
             _Sensor_DefaultCallback
            _Sensor_RawSample_Update
                   _Sensor_isEnabled
                  _Sensor_setSampled
 ---------------------------------------------------------------------------------
 (4) _Sensor_setSampled                                    1     1      0      88
                                              1 COMMON     1     1      0
 ---------------------------------------------------------------------------------
 (4) _Sensor_RawSample_Update                              3     3      0     410
                                              5 COMMON     3     3      0
           _Sensor_getScanGroupIndex
 ---------------------------------------------------------------------------------
 (4) _Sensor_DefaultCallback                               1     0      1     106
                                              1 COMMON     1     0      1
 ---------------------------------------------------------------------------------
 (4) _Sensor_Acquisition                                   4     3      1   13171
                                             27 BANK0      4     3      1
           _Sensor_Acq_ExecutePacket
    _Sensor_Scanfrequency_Evaluation
                    _Sensor_isActive
                _Sensor_isCalibrated
      _Sensor_postAcquisitionProcess
 ---------------------------------------------------------------------------------
 (5) _Sensor_postAcquisitionProcess                        5     5      0    1297
                                              5 COMMON     5     5      0
           _Sensor_getScanGroupIndex
                   _Sensor_isEnabled
                   _Sensor_setActive
                 _Sensor_setInactive
                                _abs
 ---------------------------------------------------------------------------------
 (6) _Sensor_setInactive                                   1     1      0      55
                                              1 COMMON     1     1      0
 ---------------------------------------------------------------------------------
 (6) _Sensor_setActive                                     1     1      0      55
                                              1 COMMON     1     1      0
 ---------------------------------------------------------------------------------
 (5) _Sensor_Scanfrequency_Evaluation                     13    12      1    5745
                                             14 BANK0     13    12      1
           _Sensor_Acq_ExecutePacket
 ---------------------------------------------------------------------------------
 (6) _Sensor_Acq_ExecutePacket                            15    14      1    5202
                                             11 COMMON     1     0      1
                                              0 BANK0     14    14      0
      _MTOUCH_Sensor_Scan_Initialize
             _Sensor_autoCalibration
                    _Sensor_isActive
                _Sensor_isCalibrated
                   _Sensor_isEnabled
             _Sensor_loadADCSettings
            _TMR2_LoadPeriodRegister
                    _TMR2_StartTimer
                     _TMR2_StopTimer
                                _abs
 ---------------------------------------------------------------------------------
 (7) _TMR2_StopTimer                                       0     0      0       0
 ---------------------------------------------------------------------------------
 (7) _TMR2_StartTimer                                      0     0      0       0
 ---------------------------------------------------------------------------------
 (7) _TMR2_LoadPeriodRegister                              1     1      0      22
                                              1 COMMON     1     1      0
 ---------------------------------------------------------------------------------
 (7) _Sensor_loadADCSettings                               8     7      1     958
                                              2 COMMON     8     7      1
                _Sensor_isCalibrated
        _Sensor_isCalibratingAcqTime
 ---------------------------------------------------------------------------------
 (5) _Sensor_isCalibrated                                  1     1      0     187
                                              1 COMMON     1     1      0
 ---------------------------------------------------------------------------------
 (4) _Sensor_isEnabled                                     2     2      0     209
                                              1 COMMON     2     2      0
 ---------------------------------------------------------------------------------
 (5) _Sensor_isActive                                      1     1      0     143
                                              1 COMMON     1     1      0
 ---------------------------------------------------------------------------------
 (7) _Sensor_autoCalibration                               6     6      0    1482
                                              5 COMMON     6     6      0
           _Sensor_getScanGroupIndex
        _Sensor_isCalibratingAcqTime
          _Sensor_setCalibratAcqTime
               _Sensor_setCalibrated
                                _abs
 ---------------------------------------------------------------------------------
 (6) _abs                                                  4     2      2     522
                                              1 COMMON     4     2      2
 ---------------------------------------------------------------------------------
 (8) _Sensor_setCalibrated                                 1     1      0     110
                                              1 COMMON     1     1      0
 ---------------------------------------------------------------------------------
 (8) _Sensor_setCalibratAcqTime                            1     1      0     110
                                              1 COMMON     1     1      0
 ---------------------------------------------------------------------------------
 (8) _Sensor_isCalibratingAcqTime                          1     1      0      88
                                              1 COMMON     1     1      0
 ---------------------------------------------------------------------------------
 (5) _Sensor_getScanGroupIndex                             4     4      0     233
                                              1 COMMON     4     4      0
 ---------------------------------------------------------------------------------
 (3) _MTOUCH_Sensor_Scan_Initialize                        0     0      0       0
 ---------------------------------------------------------------------------------
 (2) _MTOUCH_Proximity_ServiceAll                          0     0      0    6369
                  _Proximity_Service
 ---------------------------------------------------------------------------------
 (3) _Proximity_Service                                    3     3      0    6369
                                             11 COMMON     1     1      0
                                             20 BANK0      2     2      0
        _MTOUCH_Proximity_Initialize
         _MTOUCH_Sensor_isCalibrated
           _MTOUCH_Sensor_wasSampled
         _Proximity_Deviation_Update
           _Proximity_Reading_Update
          _Proximity_State_Activated *
       _Proximity_State_Initializing *
       _Proximity_State_NotActivated *
 ---------------------------------------------------------------------------------
 (4) _Proximity_State_NotActivated                        12    11      1    1037
                                              5 BANK0     12    11      1
      _MTOUCH_Proximity_Baseline_Get
        _MTOUCH_Proximity_Initialize
       _MTOUCH_Proximity_Reading_Get
          _Proximity_Baseline_Update
          _Proximity_DefaultCallback
 ---------------------------------------------------------------------------------
 (4) _Proximity_State_Initializing                         3     2      1    1339
                                              5 BANK0      3     2      1
      _Proximity_Baseline_Initialize
          _Proximity_Baseline_Update
 ---------------------------------------------------------------------------------
 (5) _Proximity_Baseline_Update                            5     5      0     260
                                              1 COMMON     5     5      0
 ---------------------------------------------------------------------------------
 (5) _Proximity_Baseline_Initialize                        5     5      0     862
                                              9 COMMON     1     1      0
                                              0 BANK0      4     4      0
        _MTOUCH_Sensor_RawSample_Get
 ---------------------------------------------------------------------------------
 (4) _Proximity_State_Activated                            7     6      1     543
                                              5 BANK0      7     6      1
        _MTOUCH_Proximity_Initialize
          _Proximity_DefaultCallback
 ---------------------------------------------------------------------------------
 (5) _Proximity_DefaultCallback                            1     0      1     159
                                              1 COMMON     1     0      1
 ---------------------------------------------------------------------------------
 (4) _MTOUCH_Proximity_Initialize                          3     3      0     111
                                              1 COMMON     3     3      0
 ---------------------------------------------------------------------------------
 (4) _Proximity_Reading_Update                             1     1      0    1110
                                             10 COMMON     1     1      0
    _Proximity_Reading_Update_Helper
 ---------------------------------------------------------------------------------
 (5) _Proximity_Reading_Update_Helper                      7     7      0    1012
                                              9 COMMON     1     1      0
                                              0 BANK0      6     6      0
        _MTOUCH_Sensor_RawSample_Get
 ---------------------------------------------------------------------------------
 (6) _MTOUCH_Sensor_RawSample_Get                          4     2      2     723
                                              5 COMMON     4     2      2
                             ___bmul
 ---------------------------------------------------------------------------------
 (4) _Proximity_Deviation_Update                          15    15      0     532
                                              5 BANK0     15    15      0
      _MTOUCH_Proximity_Baseline_Get
       _MTOUCH_Proximity_Reading_Get
 ---------------------------------------------------------------------------------
 (4) _MTOUCH_Sensor_wasSampled                             2     2      0     692
                                              5 COMMON     2     2      0
                             ___bmul
 ---------------------------------------------------------------------------------
 (4) _MTOUCH_Sensor_isCalibrated                           2     2      0     723
                                              5 COMMON     2     2      0
                             ___bmul
 ---------------------------------------------------------------------------------
 (2) _MTOUCH_DataStreamer_Service                          7     7      0    2989
                                              5 BANK0      6     6      0
      _MTOUCH_Proximity_Baseline_Get
     _MTOUCH_Proximity_Deviation_Get
       _MTOUCH_Proximity_Reading_Get
       _MTOUCH_Proximity_Scaling_Get
     _MTOUCH_Proximity_Threshold_Get
       _MTOUCH_Proximity_isActivated
  _MTOUCH_Sensor_AcquisitionTime_Get
    _MTOUCH_Sensor_AdditionalCap_Get
                            ___awmod
           _datastreamer_output_byte
 ---------------------------------------------------------------------------------
 (3) _datastreamer_output_byte                             1     1      0      66
                                              3 COMMON     1     1      0
                       _EUSART_Write
 ---------------------------------------------------------------------------------
 (4) _EUSART_Write                                         2     2      0      44
                                              1 COMMON     2     2      0
 ---------------------------------------------------------------------------------
 (3) ___awmod                                              7     3      4     448
                                              1 COMMON     7     3      4
 ---------------------------------------------------------------------------------
 (3) _MTOUCH_Sensor_AdditionalCap_Get                      2     2      0     723
                                              5 COMMON     2     2      0
                             ___bmul
 ---------------------------------------------------------------------------------
 (3) _MTOUCH_Sensor_AcquisitionTime_Get                    2     2      0     723
                                              5 COMMON     2     2      0
                             ___bmul
 ---------------------------------------------------------------------------------
 (5) ___bmul                                               4     3      1     661
                                              1 COMMON     4     3      1
 ---------------------------------------------------------------------------------
 (3) _MTOUCH_Proximity_isActivated                         1     1      0      44
                                              1 COMMON     1     1      0
 ---------------------------------------------------------------------------------
 (3) _MTOUCH_Proximity_Threshold_Get                       1     1      0      44
                                              1 COMMON     1     1      0
 ---------------------------------------------------------------------------------
 (3) _MTOUCH_Proximity_Scaling_Get                         1     1      0      44
                                              1 COMMON     1     1      0
 ---------------------------------------------------------------------------------
 (5) _MTOUCH_Proximity_Reading_Get                         6     1      5      44
                                              1 COMMON     6     1      5
 ---------------------------------------------------------------------------------
 (3) _MTOUCH_Proximity_Deviation_Get                       1     1      0      44
                                              1 COMMON     1     1      0
 ---------------------------------------------------------------------------------
 (5) _MTOUCH_Proximity_Baseline_Get                        6     1      5      66
                                             10 COMMON     1     1      0
                                              0 BANK0      5     0      5
      _Proximity_Baseline_Get_helper
 ---------------------------------------------------------------------------------
 (6) _Proximity_Baseline_Get_helper                        9     5      4      22
                                              1 COMMON     9     5      4
 ---------------------------------------------------------------------------------
 Estimated maximum stack depth 8
 ---------------------------------------------------------------------------------
 (Depth) Function   	        Calls       Base Space   Used Autos Params    Refs
 ---------------------------------------------------------------------------------
 (9) _INTERRUPT_InterruptManager                           0     0      0       0
                   Absolute function *
                 _EUSART_Receive_ISR *
                _EUSART_Transmit_ISR *
 ---------------------------------------------------------------------------------
 (10) _EUSART_Transmit_ISR                                 1     1      0       0
                                              0 COMMON     1     1      0
 ---------------------------------------------------------------------------------
 (10) _EUSART_Receive_ISR                                  0     0      0       0
                   Absolute function *
         _EUSART_DefaultErrorHandler *
  _EUSART_DefaultFramingErrorHandler *
  _EUSART_DefaultOverrunErrorHandler *
               _EUSART_RxDataHandler
 ---------------------------------------------------------------------------------
 (11) _EUSART_DefaultOverrunErrorHandler                   0     0      0       0
 ---------------------------------------------------------------------------------
 (11) _EUSART_DefaultFramingErrorHandler                   0     0      0       0
 ---------------------------------------------------------------------------------
 (11) _EUSART_DefaultErrorHandler                          0     0      0       0
               _EUSART_RxDataHandler
 ---------------------------------------------------------------------------------
 (11) _EUSART_RxDataHandler                                1     1      0       0
                                              0 COMMON     1     1      0
 ---------------------------------------------------------------------------------
 (11) Absolute function(Fake)                              0     0      0       0
 ---------------------------------------------------------------------------------
 Estimated maximum stack depth 11
 ---------------------------------------------------------------------------------

 Call Graph Graphs:

 _main (ROOT)
   _MTOUCH_Proximity_isActivated
   _MTOUCH_Service_Mainloop
     _MTOUCH_DataStreamer_Service
       _MTOUCH_Proximity_Baseline_Get
         _Proximity_Baseline_Get_helper
       _MTOUCH_Proximity_Deviation_Get
       _MTOUCH_Proximity_Reading_Get
       _MTOUCH_Proximity_Scaling_Get
       _MTOUCH_Proximity_Threshold_Get
       _MTOUCH_Proximity_isActivated
       _MTOUCH_Sensor_AcquisitionTime_Get
         ___bmul
       _MTOUCH_Sensor_AdditionalCap_Get
         ___bmul
       ___awmod
       _datastreamer_output_byte
         _EUSART_Write
     _MTOUCH_Proximity_ServiceAll
       _Proximity_Service
         _MTOUCH_Proximity_Initialize
         _MTOUCH_Sensor_isCalibrated
           ___bmul
         _MTOUCH_Sensor_wasSampled
           ___bmul
         _Proximity_Deviation_Update
           _MTOUCH_Proximity_Baseline_Get
             _Proximity_Baseline_Get_helper
           _MTOUCH_Proximity_Reading_Get
         _Proximity_Reading_Update
           _Proximity_Reading_Update_Helper
             _MTOUCH_Sensor_RawSample_Get
               ___bmul
         _Proximity_State_Activated *
           _MTOUCH_Proximity_Initialize
           _Proximity_DefaultCallback
         _Proximity_State_Initializing *
           _Proximity_Baseline_Initialize
             _MTOUCH_Sensor_RawSample_Get
               ___bmul
           _Proximity_Baseline_Update
         _Proximity_State_NotActivated *
           _MTOUCH_Proximity_Baseline_Get
             _Proximity_Baseline_Get_helper
           _MTOUCH_Proximity_Initialize
           _MTOUCH_Proximity_Reading_Get
           _Proximity_Baseline_Update
           _Proximity_DefaultCallback
     _MTOUCH_Sensor_SampleAll
       _Sensor_Service
         _Sensor_Acquisition
           _Sensor_Acq_ExecutePacket
             _MTOUCH_Sensor_Scan_Initialize
             _Sensor_autoCalibration
               _Sensor_getScanGroupIndex
               _Sensor_isCalibratingAcqTime
               _Sensor_setCalibratAcqTime
               _Sensor_setCalibrated
               _abs
             _Sensor_isActive
             _Sensor_isCalibrated
             _Sensor_isEnabled
             _Sensor_loadADCSettings
               _Sensor_isCalibrated
               _Sensor_isCalibratingAcqTime
             _TMR2_LoadPeriodRegister
             _TMR2_StartTimer
             _TMR2_StopTimer
             _abs
           _Sensor_Scanfrequency_Evaluation
             _Sensor_Acq_ExecutePacket
               _MTOUCH_Sensor_Scan_Initialize
               _Sensor_autoCalibration
                 _Sensor_getScanGroupIndex
                 _Sensor_isCalibratingAcqTime
                 _Sensor_setCalibratAcqTime
                 _Sensor_setCalibrated
                 _abs
               _Sensor_isActive
               _Sensor_isCalibrated
               _Sensor_isEnabled
               _Sensor_loadADCSettings
                 _Sensor_isCalibrated
                 _Sensor_isCalibratingAcqTime
               _TMR2_LoadPeriodRegister
               _TMR2_StartTimer
               _TMR2_StopTimer
               _abs
           _Sensor_isActive
           _Sensor_isCalibrated
           _Sensor_postAcquisitionProcess
             _Sensor_getScanGroupIndex
             _Sensor_isEnabled
             _Sensor_setActive
             _Sensor_setInactive
             _abs
         _Sensor_DefaultCallback
         _Sensor_RawSample_Update
           _Sensor_getScanGroupIndex
         _Sensor_isEnabled
         _Sensor_setSampled
     _MTOUCH_Sensor_Sampled_ResetAll
       _Sensor_Sampled_Reset
     _MTOUCH_Tick
       _MTOUCH_Proximity_Tick
         _Proximity_Tick_helper
     _MTOUCH_needReburst
   _SYSTEM_Initialize
     _EUSART_Initialize
       _EUSART_SetErrorHandler
       _EUSART_SetFramingErrorHandler
       _EUSART_SetOverrunErrorHandler
       _EUSART_SetRxInterruptHandler
       _EUSART_SetTxInterruptHandler
     _MTOUCH_Initialize
       _MTOUCH_DataStreamer_Initialize
       _MTOUCH_Proximity_InitializeAll
         _MTOUCH_Proximity_Initialize
         _memcpy
       _MTOUCH_Sensor_InitializeAll
         _MTOUCH_Sensor_Initialize
           _MTOUCH_Sensor_Calibrate
             ___bmul
           _MTOUCH_Sensor_Enable
             ___bmul
           _Sensor_Sampled_Reset
           ___bmul
       _MTOUCH_Sensor_Sampled_ResetAll
         _Sensor_Sampled_Reset
       _MTOUCH_Sensor_Scan_Initialize
     _OSCILLATOR_Initialize
     _PIN_MANAGER_Initialize
     _TMR2_Initialize
     _WDT_Initialize

 _INTERRUPT_InterruptManager (ROOT)
   Absolute function(Fake) *
   _EUSART_Receive_ISR *
     Absolute function(Fake) *
     _EUSART_DefaultErrorHandler *
       _EUSART_RxDataHandler
     _EUSART_DefaultFramingErrorHandler *
     _EUSART_DefaultOverrunErrorHandler *
     _EUSART_RxDataHandler *
   _EUSART_Transmit_ISR *

 Address spaces:
Name               Size   Autos  Total    Cost      Usage
BIGRAM             1F0      0       0       0        0.0%
NULL                 0      0       0       0        0.0%
CODE                 0      0       0       0        0.0%
BITCOMMON            E      0       0       1        0.0%
BITSFR0              0      0       0       1        0.0%
SFR0                 0      0       0       1        0.0%
COMMON               E      C       D       2       92.9%
BITSFR1              0      0       0       2        0.0%
SFR1                 0      0       0       2        0.0%
BITSFR2              0      0       0       3        0.0%
SFR2                 0      0       0       3        0.0%
STACK                0      0       0       3        0.0%
BITSFR3              0      0       0       4        0.0%
SFR3                 0      0       0       4        0.0%
ABS                  0      0      A3       4        0.0%
BITBANK0            50      0       0       5        0.0%
BITSFR4              0      0       0       5        0.0%
SFR4                 0      0       0       5        0.0%
BANK0               50     29      50       6      100.0%
BITSFR5              0      0       0       6        0.0%
SFR5                 0      0       0       6        0.0%
BITBANK1            50      0       0       7        0.0%
BITSFR6              0      0       0       7        0.0%
SFR6                 0      0       0       7        0.0%
BANK1               50      0      46       8       87.5%
BITSFR7              0      0       0       8        0.0%
SFR7                 0      0       0       8        0.0%
BITBANK2            50      0       0       9        0.0%
BITSFR8              0      0       0       9        0.0%
SFR8                 0      0       0       9        0.0%
BANK2               50      0       0      10        0.0%
BITSFR9              0      0       0      10        0.0%
SFR9                 0      0       0      10        0.0%
BITBANK3            50      0       0      11        0.0%
BITSFR10             0      0       0      11        0.0%
SFR10                0      0       0      11        0.0%
BANK3               50      0       0      12        0.0%
BITSFR11             0      0       0      12        0.0%
SFR11                0      0       0      12        0.0%
BITBANK4            50      0       0      13        0.0%
BITSFR12             0      0       0      13        0.0%
SFR12                0      0       0      13        0.0%
BANK4               50      0       0      14        0.0%
BITSFR13             0      0       0      14        0.0%
SFR13                0      0       0      14        0.0%
BITBANK5            50      0       0      15        0.0%
BITSFR14             0      0       0      15        0.0%
SFR14                0      0       0      15        0.0%
BANK5               50      0       0      16        0.0%
BITSFR15             0      0       0      16        0.0%
SFR15                0      0       0      16        0.0%
BITBANK6            10      0       0      17        0.0%
BITSFR16             0      0       0      17        0.0%
SFR16                0      0       0      17        0.0%
BANK6               10      0       0      18        0.0%
BITSFR17             0      0       0      18        0.0%
SFR17                0      0       0      18        0.0%
BITSFR18             0      0       0      19        0.0%
SFR18                0      0       0      19        0.0%
DATA                 0      0      A3      19        0.0%
BITSFR19             0      0       0      20        0.0%
SFR19                0      0       0      20        0.0%
BITSFR20             0      0       0      21        0.0%
SFR20                0      0       0      21        0.0%
BITSFR21             0      0       0      22        0.0%
SFR21                0      0       0      22        0.0%
BITSFR22             0      0       0      23        0.0%
SFR22                0      0       0      23        0.0%
BITSFR23             0      0       0      24        0.0%
SFR23                0      0       0      24        0.0%
BITSFR24             0      0       0      25        0.0%
SFR24                0      0       0      25        0.0%
BITSFR25             0      0       0      26        0.0%
SFR25                0      0       0      26        0.0%
BITSFR26             0      0       0      27        0.0%
SFR26                0      0       0      27        0.0%
BITSFR27             0      0       0      28        0.0%
SFR27                0      0       0      28        0.0%
BITSFR28             0      0       0      29        0.0%
SFR28                0      0       0      29        0.0%
BITSFR29             0      0       0      30        0.0%
SFR29                0      0       0      30        0.0%
BITSFR30             0      0       0      31        0.0%
SFR30                0      0       0      31        0.0%
BITSFR31             0      0       0      32        0.0%
SFR31                0      0       0      32        0.0%


Microchip Technology PIC Macro Assembler V2.10 build 88905656 
Symbol Table                                                                                   Tue Nov 05 01:05:13 2019

                       ?_EUSART_SetRxInterruptHandler 0071                       Sensor_loadADCSettings@adc_index 0072  
                        ?_MTOUCH_Sensor_RawSample_Get 0075                                        ___bmul@product 0073  
                                         __CFG_CP$OFF 0000                 Proximity_State_NotActivated@deviation 002D  
                             ?_Sensor_autoCalibration 0070                                                    l85 0D7F  
                          __end_of_Sensor_setInactive 0871                              _Proximity_Reading_Update 092A  
                           _Sensor_setCalibratAcqTime 089D                                           __CFG_LVP$ON 0000  
                      Proximity_Deviation_Update@name 0033                  __end_of_MTOUCH_Proximity_isActivated 0A1B  
               __size_of_MTOUCH_Proximity_isActivated 0018                          _MTOUCH_Proximity_isActivated 0A03  
                                                 l110 0C25                                                   l113 0C3E  
                                                 l109 0C1C                                                   l151 0844  
                                                 l160 084A                                                   l321 0697  
                                                 l154 0838                                                   l500 0890  
                                                 l332 0F02                                                   l148 083E  
                                                 l157 0850                                                   l350 0D40  
                                                 l327 0CCA                                                   l503 089C  
                                                 l407 0210                                                   l520 07FF  
                                                 l425 072F                                                   l361 0549  
                                                 l409 022B                                                   l506 08A9  
                                                 l370 00B2                                                   l450 0C14  
                                                 l514 0AD7                                                   l363 05E8  
                                                 l523 0877                                                   l532 09C0  
                                                 l444 0A33                                                   l700 093A  
                                                 l620 07F8                                                   l284 08D6  
                                                 l517 08B8                                                   l613 0DBF  
                                                 l509 087F                                                   l357 05FC  
                                                 l453 0801                                                   l293 0A4C  
                                                 l614 0DD1                                                   l390 014E  
                                                 l374 0280                                                   l438 0FFF  
                                                 l606 094B                                                   l527 09D5  
                                                 l287 08E6                                                   l279 09EB  
                                                 l392 0148                                                   l480 0870  
                                                 l464 0983                                                   l721 0B16  
                                                 l705 0E91                                                   l713 07B4  
                                                 l625 044B                                                   l609 081D  
                                                 l473 095D                                                   l394 014C  
                                                 l635 0F7E                                                   l643 0BEC  
                                                 l724 0800                                                   l708 0C69  
                                                 l484 08C7                                                   l492 0970  
                                                 l717 0AB9                                                   l629 046D  
                                                 l397 0153                                                   l477 0869  
                                                 l902 0805                                                   l638 0827  
                                                 l647 0929                                                   l399 0157  
                                                 l496 0A02                                                   l657 0918  
                                                 l905 0808                                                   l690 0398  
                                                 l914 0822                                                   l818 0A9B  
                                                 l667 0A1A                                                   l844 0802  
                                                 l677 0907                                                   l694 0AF6  
                                                 l598 0BC5                                                   l847 0832  
                                                 l783 0996                                                   l960 0003  
                                                 l953 0B7A                                                   l786 0856  
                                                 l882 0B32                                                   l859 0535  
                                                 l948 08F6                                                   l876 0B1E  
                                                 l957 0814                                                   l789 0818  
                                                 l879 0B2F                                                   l899 0887  
                                                 _GIE 005F                                                   _PR2 001B  
                                                 _abs 0A67                                ??_EUSART_RxDataHandler 0070  
                      ?_EUSART_SetFramingErrorHandler 0071                               ?_Sensor_loadADCSettings 0072  
                                        ___awmod@sign 0077                                       _TMR2_Initialize 0880  
                                        __CFG_BORV$LO 0000                                                   wreg 0009  
                    ??_MTOUCH_Sensor_Sampled_ResetAll 0072                       ?_MTOUCH_Sensor_Sampled_ResetAll 0070  
                    __size_of_MTOUCH_Sensor_SampleAll 0019                        Sensor_getScanGroupIndex@sensor 0073  
                   __size_of_MTOUCH_Sensor_Initialize 0016                             ?_MTOUCH_Sensor_Initialize 0070  
                                                ?_abs 0071                                                  l1054 09AB  
                                                l1194 0E24                                                  l3301 0776  
                                                l3221 0D05                                                  l3207 0AF8  
                                                l3311 0AEE                                                  l3303 0AD9  
                                                l4111 09A1                                                  l3231 0D37  
                                                l3223 0D0C                                                  l3305 0ADE  
                                                l4113 09A3                                                  l4105 0998  
                                                l4201 011F                                                  l4121 0066  
                                                l3233 0D3C                                                  l3225 0D15  
                                                l3401 0BF5                                                  l1482 0A80  
                                                l3323 0AB0                                                  l3315 0A9D  
                                                l4115 09AA                                                  l4107 0999  
                                                l4211 0132                                                  l4203 0122  
                                                l4131 0085                                                  l4123 006B  
                                                l3227 0D2C                                                  l3403 0BF9  
                                                l3411 0872                                                  l3219 07FA  
                                                l1491 0C97                                                  l3317 0AA2  
                                                l4109 099D                                                  l3341 0C26  
                                                l3501 0418                                                  l1485 0A80  
                                                l4301 0266                                                  l4221 013E  
                                                l4213 0133                                                  l4205 0124  
                                                l4141 00A0                                                  l4133 0088  
                                                l4125 0070                                                  l3229 0D2E  
                                                l3405 0BFA                                                  l2461 0A94  
                                                l3343 0C2F                                                  l3351 0C3C  
                                                l3335 0C16                                                  l3511 0469  
                                                l3503 042A                                                  l4311 0279  
                                                l4303 026F                                                  l4231 016F  
                                                l4223 0143                                                  l4215 0134  
                                                l4207 012A                                                  l4143 00A8  
                                                l4135 0090                                                  l4127 0078  
                                                l4151 00B3                                                  l4119 005F  
                                                l3191 0864                                                  l3407 0C06  
                                                l3431 0C74                                                  l2471 0854  
                                                l2463 0A96                                                  l2455 0A81  
                                                l3345 0C33                                                  l3337 0C16  
                                                l4321 0A1C                                                  l3281 0BA8  
                                                l3505 0439                                                  l3521 0F74  
                                                l3513 0F03                                                  l4313 027B  
                                                l4305 0273                                                  l4241 01A4  
                                                l4233 0174                                                  l4225 0147  
                                                l4217 0138                                                  l4209 0130  
                                                l4153 00B8                                                  l4145 00B0  
                                                l4137 0098                                                  l4129 0080  
                                                l3193 086B                                                  l4401 0E94  
                                                l3409 0C08                                                  l3433 0C7C  
                                                l2465 0A97                                                  l2457 0A84  
                                                l2481 0885                                                  l2473 0815  
                                                l3531 0A09                                                  l3347 0C39  
                                                l3339 0C21                                                  l3451 0283  
                                                l4323 0A21                                                  l3283 0BAD  
                                                l3507 0444                                                  l3515 0F15  
                                                l4315 027D                                                  l4307 0275  
                                                l4251 01E6                                                  l4243 01B6  
                                                l4235 0184                                                  l4227 0152  
                                                l4219 013B                                                  l4155 00BD  
                                                l4163 00C6                                                  l4139 009D  
                                                l4411 0EA4                                                  l4403 0E98  
                                                l3523 0BC7                                                  l3435 0C80  
                                                l2467 0A99                                                  l2459 0A85  
                                                l2475 0880                                                  l3349 0C3A  
                                                l3701 082E                                                  l3461 02EB  
                                                l3453 02A5                                                  l3285 0BB7  
                                                l3293 0731                                                  l3509 0462  
                                                l3517 0F28                                                  l2901 095C  
                                                l4309 0277                                                  l4261 0208  
                                                l4253 01EF                                                  l4237 0189  
                                                l4245 01BF                                                  l4229 0158  
                                                l4181 00F7                                                  l4165 00CB  
                                                l4341 0F81                                                  l4421 0EC1  
                                                l4413 0EAC                                                  l4405 0E9D  
                                                l4501 0639                                                  l3621 0ACF  
                                                l3613 0ABA                                                  l3525 0BD1  
                                                l3541 0845                                                  l3437 0C87  
                                                l3429 0C6B                                                  l4333 0972  
                                                l2469 0851                                                  l2477 0883  
                                                l3711 0DDE                                                  l3703 0DD2  
                                                l3471 0328                                                  l3463 02F3  
                                                l3455 02C4                                                  l3287 0BBE  
                                                l3279 0BA0                                                  l3295 0735  
                                                l3519 0F5E                                                  l2911 08C1  
                                                l4271 021C                                                  l4263 020A  
                                                l4247 01CF                                                  l4239 019B  
                                                l4191 010D                                                  l4183 00FA  
                                                l4167 00D0                                                  l4175 00D9  
                                                l4343 0F8F                                                  l4431 0EE3  
                                                l4423 0EC5                                                  l4407 0EA2  
                                                l4511 065D                                                  l4503 063D  
                                                l3527 0BE4                                                  l3543 084B  
                                                l3439 0C8B                                                  l4335 0977  
                                                l2479 0884                                                  l3537 0A19  
                                                l3529 0A04                                                  l3721 0DF5  
                                                l3713 0DE2                                                  l3705 0DD3  
                                                l4601 0483                                                  l3473 0334  
                                                l3465 02F7                                                  l3457 02D5  
                                                l4329 0A31                                                  l3297 0736  
                                                l2841 0C99                                                  l2905 08BA  
                                                l2921 0542                                                  l4281 022F  
                                                l4273 0220                                                  l4265 020E  
                                                l4249 01D4                                                  l4257 0202  
                                                l4193 010F                                                  l4185 0100  
                                                l4177 00E2                                                  l4361 0FAD  
                                                l4345 0F93                                                  l4433 0EED  
                                                l4425 0ECB                                                  l4417 0EAE  
                                                l4513 0661                                                  l4521 0695  
                                                l4505 0642                                                  l3617 0AC7  
                                                l3545 0839                                                  l4337 095F  
                                                l3731 0E10                                                  l3723 0DF9  
                                                l3715 0DE7                                                  l3707 0DD7  
                                                l4611 0492                                                  l4451 0A01  
                                                l4443 09ED                                                  l3475 0381  
                                                l3467 0300                                                  l3459 02DD  
                                                l3299 0774                                                  l3491 0399  
                                                l2907 08BF                                                  l2931 057C  
                                                l2923 0545                                                  l2915 0537  
                                                l4291 0240                                                  l4275 0224  
                                                l4267 0215                                                  l4259 0207  
                                                l4187 0109                                                  l4195 0112  
                                                l4179 00E5                                                  l4371 0FC0  
                                                l4363 0FB1                                                  l4355 0F9C  
                                                l4347 0F97                                                  l4435 0EF7  
                                                l4427 0ECF                                                  l4419 0EBB  
                                                l4515 0666                                                  l4507 064D  
                                                l3619 0ACB                                                  l3547 083F  
                                                l4339 0964                                                  l4541 09D4  
                                                l4533 09C2                                                  l3725 0DFD  
                                                l3717 0DED                                                  l3733 0E16  
                                                l3709 0DDC                                                  l4621 04A9  
                                                l4613 0498                                                  l4445 09F2  
                                                l3477 038D                                                  l3469 031A  
                                                l4461 092F                                                  l3493 03C2  
                                                l2853 0CAD                                                  l2941 05C9  
                                                l2933 0586                                                  l2925 054D  
                                                l4293 0245                                                  l4285 0231  
                                                l4277 0229                                                  l4269 0218  
                                                l4197 011B                                                  l4189 010A  
                                                l4381 0FF2                                                  l4373 0FCD  
                                                l4365 0FB6                                                  l4349 0F9B  
                                                l4429 0ED9                                                  l4509 0657  
                                                l3549 0833                                                  l3741 0D41  
                                                l4535 09C7                                                  l3735 0E1B  
                                                l3727 0E07                                                  l3719 0DF0  
                                                l4623 0506                                                  l4615 04A1  
                                                l4607 0485                                                  l4455 08AB  
                                                l4391 0E2F                                                  l4463 0930  
                                                l3495 03EF                                                  l4471 07C7  
                                                l2855 0CBE                                                  l2847 0C9A  
                                                l2871 0A74                                                  l2951 0699  
                                                l2943 05DC                                                  l2935 058F  
                                                l2927 055E                                                  l2919 053D  
                                                l4295 024E                                                  l4287 0236  
                                                l4199 011D                                                  l4375 0FD8  
                                                l4367 0FBE                                                  l4359 0FA7  
                                                l4439 0F01                                                  l3399 0BEE  
                                                l4519 0672                                                  l3663 0823  
                                                l3751 0D58                                                  l3743 0D43  
                                                l3647 093B                                                  l3673 0928  
                                                l3665 091A                                                  l4553 09BF  
                                                l4545 09AD                                                  l3737 0E20  
                                                l3729 0E0B                                                  l4641 052C  
                                                l4633 0513                                                  l4617 04A3  
                                                l4609 048D                                                  l4393 0E53  
                                                l4465 0934                                                  l4385 0C40  
                                                l3497 0409                                                  l4473 07CC  
                                                l4561 0D96                                                  l2881 08D7  
                                                l2849 0CAB                                                  l2873 0879  
                                                l2961 06DA                                                  l2953 06A0  
                                                l2865 0889                                                  l2937 05B4  
                                                l2929 0570                                                  l2945 081F  
                                                l4297 0258                                                  l4289 023B  
                                                l4377 0FE8                                                  l3761 0D6B  
                                                l3753 0D5A                                                  l3745 0D4A  
                                                l3649 0947                                                  l4481 08C8  
                                                l3691 08FD                                                  l3667 091F  
                                                l4547 09B2                                                  l4643 0531  
                                                l4635 0522                                                  l4627 050C  
                                                l4395 0E71                                                  l4467 0936  
                                                l4459 092B                                                  l4387 0C5A  
                                                l3499 0410                                                  l4475 07D0  
                                                l4563 0DA3                                                  l2891 08E3  
                                                l2883 08DA                                                  l2859 0CC0  
                                                l2971 0723                                                  l2955 06A9  
                                                l2963 06DF                                                  l2939 05C0  
                                                l2947 0803                                                  l4299 025D  
                                                l4379 0FEC                                                  l4651 0B64  
                                                l3771 0D7D                                                  l3763 0D76  
                                                l3755 0D5C                                                  l3747 0D53  
                                                l4491 08D1                                                  l3685 0917  
                                                l3677 0909                                                  l4629 050D  
                                                l4389 0E26                                                  l4477 07DA  
                                                l4469 07B5                                                  l4565 0DAD  
                                                l4557 0D82                                                  l2885 08DC  
                                                l2877 089E                                                  l2869 0A67  
                                                l2973 072B                                                  l2965 0704  
                                                l2957 06C7                                                  l2893 094D  
                                                l2949 0806                                                  l4493 05FF  
                                                l4581 0A41                                                  l3853 0002  
                                                l4661 0B76                                                  l4645 0B59  
                                                l3765 0D7A                                                  l3757 0D5D  
                                                l3749 0D56                                                  l4397 09D7  
                                                l4741 0B26                                                  l4733 0B17  
                                                l3679 090E                                                  l4639 0528  
                                                l4479 07EB                                                  l4567 0DB8  
                                                l4559 0D8A                                                  l2887 08DE  
                                                l2879 0892                                                  l2967 070C  
                                                l2959 06D5                                                  l2895 0952  
                                                l4495 061D                                                  l4583 0A4B  
                                                l4575 0A36                                                  l3855 0002  
                                                l4663 0B79                                                  l4655 0B66  
                                                l4647 0B5C                                                  l3767 0D7B  
                                                l3759 0D64                                                  l4487 08C9  
                                                l4591 08EA                                                  l4735 0B1A  
                                                l3697 0906                                                  l3689 08F8  
                                                l2889 08E1                                                  l2969 0711  
                                                l4497 062A                                                  l4577 0A3F  
                                                l4569 0A34                                                  l4657 0B6C  
                                                l4649 0B5C                                                  l3769 0D7C  
                                                l4489 08CD                                                  l4593 08ED  
                                                l4673 0984                                                  l4737 0B1B  
                                                l4587 0819                                                  l4499 0633  
                                                l3859 0811                                                  l4659 0B73  
                                                l4595 08F0                                                  l4675 0993  
                                                l4739 0B1C                                                  l4597 08F3  
                                                l4589 08E7                                                  l4599 046E  
                                                l4783 067F                                                  l4785 0684  
                                                u3000 0AC6                                                  u3001 0AC5  
                                                u3010 0AD7                                                  u3011 0AD6  
                                                u3100 0DD7                                                  u3101 0DD6  
                                                _LATA 010C                                                  u3110 0DE2  
                                                _LATB 010D                                                  u3111 0DE1  
                                                _LATC 010E                                                  u3120 0DED  
                                                u4000 0E41                                                  u3121 0DEC  
                                                u4010 0E9D                                                  u4011 0E9C  
                                                u2500 0AA2                                                  u3140 0DFD  
                                                u4100 0EF7                                                  u4020 0EA2  
                                                u2501 0AA1                                                  u3141 0DFC  
                                                u4005 0E3D                                                  u4101 0EF6  
                                                u4021 0EA1                                                  u2350 0B0C  
                                                u3070 091F                                                  u3150 0E07  
                                                u4110 09F2                                                  u4030 0EAC  
                                                u3071 091E                                                  u3151 0E06  
                                                u3135 0DF1                                                  u4111 09F1  
                                                u4031 0EAB                                                  u3080 090E  
                                                u4200 09C7                                                  u4120 092F  
                                                u1800 0CAB                                                  u4040 0EBB  
                                                u3081 090D                                                  u4201 09C6  
                                                u4121 092E                                                  u1801 0CAA  
                                                u4041 0EBA                                                  u3090 08FD  
                                                u4210 09B2                                                  u3170 0E16  
                                                u2530 0C1C                                                  u4130 07C7  
                                                u1810 0CBE                                                  u4050 0EC1  
                                                u2355 0B08                                                  u3091 08FC  
                                                u4211 09B1                                                  u3171 0E15  
                                                u3155 0E03                                                  u2531 0C1B  
                                                u4131 07C6                                                  u1811 0CBD  
                                                u4051 0EC0                                                  u3180 0E1B  
                                                u2540 0C21                                                  u4300 0512  
                                                u2700 02BA                                                  u2460 0735  
                                                u4140 07EB                                                  u4220 0D96  
                                                u1820 0CC9                                                  u2380 0D15  
                                                u4060 0ECB                                                  u3181 0E1A  
                                                u3165 0E0C                                                  u2541 0C20  
                                                u4301 0511                                                  u2461 0734  
                                                u4141 07EA                                                  u4221 0D95  
                                                u1821 0CC8                                                  u2381 0D14  
                                                u4061 0ECA                                                  u2550 0C39  
                                                u2710 02D5                                                  u2470 0747  
                                                u4230 0DA3                                                  u1830 0A74  
                                                u1910 06A9                                                  u2390 0D37  
                                                u4070 0ED9                                                  u4310 0B64  
                                                u4150 08D6                                                  u2551 0C38  
                                                u2711 02D4                                                  u4231 0DA2  
                                                u1831 0A73                                                  u1911 06A8  
                                                u2391 0D36                                                  u4071 0ED8  
                                                u4311 0B63                                                  u4151 08D5  
                                                u2720 02EB                                                  u2480 0787  
                                                u4240 0DB8                                                  u1840 0952  
                                                u3600 0098                                                  u4080 0EE3  
                                                u4160 0633                                                  u2721 02EA  
                                                u2705 02B6                                                  u4241 0DB7  
                                                u1841 0951                                                  u1905 05F0  
                                                u3601 0097                                                  u4081 0EE2  
                                                u4161 0632                                                  u2490 0ADE  
                                                u3530 099D                                                  u2730 02F7  
                                                u2810 03EF                                                  u1930 06C7  
                                                u1850 08BF                                                  u3610 00A8  
                                                u4090 0EED                                                  u4170 0639  
                                                u4250 0A3F                                                  u4410 0B26  
                                                u2491 0ADD                                                  u3531 099C  
                                                u2731 02F6                                                  u2475 0743  
                                                u2811 03EE                                                  u1835 0A70  
                                                u1931 06C6                                                  u1851 08BE  
                                                u3611 00A7                                                  u4091 0EEC  
                                                u4171 0638                                                  u4251 0A3E  
                                                u4411 0B25                                                  u3540 09AA  
                                                u2820 0409                                                  u1940 06D5  
                                                u1860 053C                                                  u3700 0100  
                                                u3620 00B0                                                  u2660 0BF9  
                                                u4180 0657                                                  u4260 0A4B  
                                                u2900 0BE4                                                  u4420 0B2F  
                                                u3541 09A9                                                  u2485 0783  
                                                u2821 0408                                                  u2813 03EB  
                                                u1941 06D4                                                  u1925 06B9  
                                                u1861 053B                                                  u3701 00FF  
                                                u3621 00AF                                                  u2661 0BF8  
                                                u4181 0656                                                  u4261 0A4A  
                                                u2901 0BE3                                                  u4421 0B2E  
                                                u2910 0A09                                                  u4270 0483  
                                                u2750 031A                                                  u2830 042A  
                                                u1950 0704                                                  u1870 0542  
                                                u3710 0143                                                  u3630 00B8  
                                                u3550 006B                                                  u4190 065D  
                                                u2911 0A08                                                  u4271 0482  
                                                u2751 0319                                                  u2831 0429  
                                                u1951 0703                                                  u1935 06C3  
                                                u1871 0541                                                  u3711 0142  
                                                u3631 00B7                                                  u3551 006A  
                                                u4191 065C                                                  u2920 0A17  
                                                u4280 0498                                                  u2760 0328  
                                                u2840 0462                                                  u1960 0723  
                                                u1880 058F                                                  u3800 020E  
                                                u3720 0147                                                  u3640 00BD  
                                                u3560 0070                                                  u2680 0C97  
                                                u2921 0A15                                                  u4281 0497  
                                                u2761 0327                                                  u2745 030D  
                                                u2841 0461                                                  u1961 0722  
                                                u1881 058E                                                  u3801 020D  
                                                u3721 0146                                                  u3641 00BC  
                                                u3561 006F                                                  u2681 0C96  
                                                u2930 0A18                                                  u4290 04A8  
                                                u2850 0F15                                                  u1890 05C9  
                                                u3810 0215                                                  u3730 014C  
                                                u3650 00C5                                                  u3570 0078  
                                                u4291 04A7                                                  u2851 0F14  
                                                u1955 0700                                                  u1891 05C8  
                                                u3811 0214                                                  u3731 014B  
                                                u3651 00C4                                                  u3571 0077  
                                                u2780 0381                                                  u3900 0A21  
                                                u3820 0229                                                  u3740 0152  
                                                u3660 00CB                                                  u3580 0080  
                                                u2781 0380                                                  u3901 0A20  
                                                u3821 0228                                                  u3741 0151  
                                                u3661 00CA                                                  u3581 007F  
                                                u3830 022F                                                  u3750 0157  
                                                u3670 00D0                                                  u3590 0090  
                                                u3910 0977                                                  u2783 037D  
                                                u2775 033E                                                  u3831 022E  
                                                u3751 0156                                                  u3671 00CF  
                                                u3591 008F                                                  u3911 0976  
                                                u2880 0F5E                                                  u3840 0236  
                                                u3760 0174                                                  u3680 00D8  
                                                u3920 0964                                                  u2881 0F5D  
                                                u2865 0F2F                                                  u3841 0235  
                                                u3761 0173                                                  u3681 00D7  
                                                u3921 0963                                                  u3850 0240  
                                                u3770 0189                                                  u3690 00E2  
                                                u3930 0FAD                                                  u2890 0BD1  
                                                u3851 023F                                                  u3771 0188  
                                                u3691 00E1                                                  u3931 0FAC  
                                                u2891 0BD0                                                  u3860 024E  
                                                u3780 01D4                                                  u3940 0FBE  
                                                u2885 0F5A                                                  u3861 024D  
                                                u3781 01D3                                                  u3941 0FBD  
                                                u3870 0258                                                  u3790 0207  
                                                u3950 0FCD                                                  u3871 0257  
                                                u3791 0206                                                  u3951 0FCC  
                                                u3880 0266                                                  u3960 0FD8  
                                                u3881 0265                                                  u3961 0FD7  
                                                u3890 026F                                                  u3970 0FF2  
                                                u3891 026E                                                  u3971 0FF1  
                                                u3965 0FD4                                                  u3990 0E2F  
                                                u3991 0E2E                                                  u3985 0C5F  
                      ?_Proximity_Baseline_Initialize 0070                                                  _TMR2 001A  
                                   _Proximity_Service 0D80                                                  _WPUA 020C  
                                                _WPUB 020D                     __size_of_Sensor_Acq_ExecutePacket 0224  
                            _Sensor_getScanGroupIndex 0C98                             ?_Sensor_Acq_ExecutePacket 007B  
                                        __CFG_WRT$OFF 0000                      ??_MTOUCH_Proximity_Deviation_Get 0071  
                     ?_MTOUCH_Proximity_Deviation_Get 0070                                    _MTOUCH_needReburst 0002  
                                                abs@a 0071                                                  _data 00A0  
                                                _main 0B17                             _Proximity_Baseline_Update 0730  
                                                fsr0h 0005                                                  fsr1h 0007  
                                                indf0 0000                                                  fsr0l 0004  
                                                indf1 0001                                                  fsr1l 0006  
                                  ?_Proximity_Service 0070                  __size_of_MTOUCH_Sensor_InitializeAll 000F  
                                                btemp 007E                           ??_Proximity_State_Activated 0026  
                                                start 002E                           ?_Proximity_Deviation_Update 0070  
                                   ___bmul@multiplier 0074                                         __CFG_MCLRE$ON 0000  
                                 ?_MTOUCH_needReburst 0070                                   ??_Proximity_Service 007B  
                      __end_of_Sensor_autoCalibration 0730  __end_ofSensor_Scanfrequency_Evaluation@frequency_hop 1017  
        Sensor_Scanfrequency_Evaluation@frequency_hop 1012                              ?_MTOUCH_Service_Mainloop 0070  
                                               ??_abs 0073                 Sensor_postAcquisitionProcess@adcIndex 0078  
                       ??_MTOUCH_Sensor_RawSample_Get 0077                         Sensor_RawSample_Update@sensor 0077  
                           __size_of_Sensor_isEnabled 0012                                         ?_EUSART_Write 0070  
                      __size_of_OSCILLATOR_Initialize 0006                         __end_of_OSCILLATOR_Initialize 0857  
   Sensor_Scanfrequency_Evaluation@best_packet_sample 0036                   __end_of_Sensor_isCalibratingAcqTime 0880  
                         _Sensor_isCalibratingAcqTime 0878                                                 ?_main 0070  
                                       __CFG_WDTE$OFF 0000                                       __end_of___awmod 0E25  
                      __end_of_Sensor_loadADCSettings 05FD                                                 _T2CON 001C  
                                               i1l122 0B56                                                 i1l132 0D03  
                                               i1l125 0B58                                                 i1l142 0810  
                                               i1l136 0A66                                                 i1l145 080C  
                                               i1l139 17FF                               ??_Proximity_Tick_helper 0071  
                                               i1l762 002C                                                 i1l757 001B  
                                               i1l758 002C                                                 _RCREG 0199  
                                               u2875n 0F42                                                 u2875o 0F46  
                                               _RCSTA 019D                                                 _TRISA 008C  
                                               _TRISB 008D                                                 _TRISC 008E  
                       ?_MTOUCH_Proximity_isActivated 0070                                                 _TXREG 019A  
                                               _TXSTA 019E                                  ??_MTOUCH_needReburst 0071  
                     __size_of_Sensor_DefaultCallback 0001                             __end_of_Proximity_Service 0DD2  
                             __size_of_Sensor_Service 009B                 __end_of_MTOUCH_Sensor_Scan_Initialize 08E7  
              __size_of_MTOUCH_Sensor_Scan_Initialize 0010                         _MTOUCH_Sensor_Scan_Initialize 08D7  
                                      _WDT_Initialize 0815                               Sensor_setSampled@sensor 0071  
               MTOUCH_Sensor_AcquisitionTime_Get@name 0076                                                 pclath 000A  
                                _Sensor_Sampled_Reset 07F9                                                 status 0003  
                                               wtemp0 007E                                       _TMR2_StartTimer 0803  
                    __size_of_TMR2_LoadPeriodRegister 0005                             __size_of_Sensor_setActive 0007  
                              Sensor_isEnabled@sensor 0072                                       __initialization 0030  
                                        __end_of_main 0B37                                 _MTOUCH_Proximity_Tick 0823  
                                _Sensor_setCalibrated 0891                                        ??_EUSART_Write 0071  
                             __end_of_TMR2_Initialize 0888                                        __CFG_LPBOR$OFF 0000  
                         ?_INTERRUPT_InterruptManager 0070                        ??_EUSART_SetRxInterruptHandler 0073  
                                              ??_main 007C                             _Proximity_State_Activated 0F03  
                             _MTOUCH_Sensor_Calibrate 095E                             Sensor_Service@sensor_adc1 0044  
                           Sensor_Service@sensor_adc2 0045                  MTOUCH_Sensor_Sampled_ResetAll@sensor 0073  
                              __end_of_WDT_Initialize 0819                         __end_of_mtouch_proximity_init 1012  
                         ??_Proximity_DefaultCallback 0072                                          ?_MTOUCH_Tick 0070  
           __end_of_EUSART_DefaultFramingErrorHandler 1800            __size_of_EUSART_DefaultFramingErrorHandler 0001  
                 ??_EUSART_DefaultFramingErrorHandler 0070                    ?_EUSART_DefaultFramingErrorHandler 0070  
                   _EUSART_DefaultFramingErrorHandler 17FF                          datastreamer_output_byte@data 0073  
                          _EUSART_OverrunErrorHandler 00DE                  __size_of_MTOUCH_Sensor_RawSample_Get 0019  
                                              _APFCON 011D                                                _ANSELA 018C  
                                              _ANSELB 018D                                                _ANSELC 018E  
                                              _BORCON 0116                      MTOUCH_Proximity_isActivated@name 0071  
                                              i1l4051 0020                                                i1l4043 0006  
                                              i1l4053 0025                                                i1l4045 000A  
                                              i1l4047 000F                                                i1l4049 0014  
                                              i1l3551 0A4D                                                i1l3553 0A56  
                                              i1l3555 0A5A                                                i1l3557 0A60  
                                              i1l3559 0A61                                                i1l3911 0B37  
                                              i1l3921 0B51                                                i1l3913 0B3E  
                                              i1l3931 0CE0                                                i1l3923 0CCB  
                                              i1l3915 0B45                                                i1l3773 080D  
                                              i1l3941 0D00                                                i1l3933 0CE5  
                                              i1l3925 0CD0                                                i1l3917 0B4A  
                                              i1l3775 0809                                                i1l3935 0CEA  
                                              i1l3927 0CD5                                                i1l3919 0B50  
                                              i1l3937 0CF0                                                i1l3929 0CDA  
                                              i1l3939 0CF9                                 ?_Sensor_Sampled_Reset 0070  
                                              u330_20 0CD5                                                u330_21 0CD4  
                                              u331_20 0CE5                                                u331_21 0CE4  
                                              u332_20 0CF9                                                u332_21 0CF8  
                                              u350_20 0025                                                u350_21 0024  
                                              u328_20 0B3E                                                u328_21 0B3D  
                                              u329_20 0B50                                                u329_21 0B4F  
                                              u346_20 000A                                                u346_21 0009  
                                              u347_20 000F                                                u347_21 000E  
                                              u348_20 0014                                                u348_21 0013  
                                              u349_20 0020                                                u349_21 001F  
                                              u294_20 0A60                                                u294_21 0A5F  
                                              _OSCCON 0099                                                _SPBRGH 019C  
                                              _SPBRGL 019B                                                _WDTCON 0097  
                    ??_MTOUCH_Proximity_Threshold_Get 0071                       ?_MTOUCH_Proximity_Threshold_Get 0070  
           __end_of_MTOUCH_Sensor_AcquisitionTime_Get 09C1            __size_of_MTOUCH_Sensor_AcquisitionTime_Get 0015  
                 ??_MTOUCH_Sensor_AcquisitionTime_Get 0075                    ?_MTOUCH_Sensor_AcquisitionTime_Get 0070  
                   _MTOUCH_Sensor_AcquisitionTime_Get 09AC                              _datastreamer_output_byte 082D  
                     __end_of_MTOUCH_Service_Mainloop 0B7B                                        __CFG_PWRTE$OFF 0000  
                                 _Sensor_isCalibrated 0888                                _Sensor_DefaultCallback 0801  
                                       _packet_sample 0049                                      _mtouch_proximity 0058  
                                              ___bmul 0997                                 ?_Sensor_setCalibrated 0070  
                        Sensor_DefaultCallback@sensor 0071                                        __CFG_STVREN$ON 0000  
                                           ??___awmod 0075                                   _EUSART_Transmit_ISR 0B37  
                                              _memcpy 0C6A                                       ___awmod@divisor 0071  
                                     ___awmod@counter 0076                          Sensor_autoCalibration@sensor 007A  
                             _MTOUCH_Sensor_SampleAll 0A34                                  ?_Sensor_isCalibrated 0070  
                                     ?_WDT_Initialize 0070                              ?_Sensor_RawSample_Update 0070  
                          __end_of_Sensor_Acquisition 0F03                   __size_of_Proximity_Deviation_Update 0118  
                          __size_of_Proximity_Service 0052                   Sensor_postAcquisitionProcess@sensor 0079  
                             __end_of_TMR2_StartTimer 0806                    __size_of_Sensor_setCalibratAcqTime 000D  
                      ??_MTOUCH_Proximity_isActivated 0071                              __size_of_Sensor_isActive 000F  
                                ?_EUSART_Transmit_ISR 0070                       MTOUCH_Sensor_RawSample_Get@name 0078  
          MTOUCH_DataStreamer_Service@count_bytes_out 002A                   Sensor_getScanGroupIndex@sensorGroup 0074  
                                   _SYSTEM_Initialize 0984                               __end_of__initialization 0059  
                     MTOUCH_Proximity_Initialize@name 0072                        ?_MTOUCH_Sensor_Scan_Initialize 0070  
                     ??_Sensor_postAcquisitionProcess 0075                       MTOUCH_Proximity_Initialize@prox 0073  
                                  ?_SYSTEM_Initialize 0070                         MTOUCH_Sensor_Calibrate@sensor 0076  
                __end_of_EUSART_SetTxInterruptHandler 0851                 __size_of_EUSART_SetTxInterruptHandler 0006  
                        _EUSART_SetTxInterruptHandler 084B           Sensor_Acq_ExecutePacket@sensor1ForceEnabled 0024  
                                 ___bmul@multiplicand 0071                            ??_Proximity_Reading_Update 007A  
                           _Proximity_DefaultCallback 0800                                ?_MTOUCH_Proximity_Tick 0070  
              __end_of_MTOUCH_Proximity_InitializeAll 094C               __size_of_MTOUCH_Proximity_InitializeAll 0011  
                      _MTOUCH_Proximity_InitializeAll 093B             MTOUCH_DataStreamer_Service@u16temp_output 0028  
                                      __pcstackCOMMON 0070                                          __pidataBANK0 0828  
                                        __pidataBANK1 0B7B                                   ??_SYSTEM_Initialize 007B  
                  __size_of_Proximity_Baseline_Update 0085                      Proximity_State_Initializing@prox 0025  
                    __end_of_MTOUCH_Sensor_Initialize 09EC                             ??_MTOUCH_Sensor_Calibrate 0075  
                                    _Sensor_isEnabled 094C                                      ?_TMR2_Initialize 0070  
                            Sensor_setInactive@sensor 0071                       ??_Proximity_Baseline_Get_helper 0075  
                    __end_of_Sensor_Acq_ExecutePacket 0281                                        _OPTION_REGbits 0095  
                               ??_Sensor_isCalibrated 0071                            ??_Sensor_getScanGroupIndex 0071  
                                _eusartRxStatusBuffer 00C4                         Proximity_State_Activated@prox 0025  
                 Sensor_Acq_ExecutePacket@sensor_adc1 002D                   Sensor_Acq_ExecutePacket@sensor_adc2 007B  
                     ??_EUSART_SetOverrunErrorHandler 0073                                        _Sensor_Service 05FD  
                       __size_of_MTOUCH_Sensor_Enable 0013                                    _Sensor_setInactive 086A  
                                   _sensor_scan_group 1017                             __end_of_SYSTEM_Initialize 0997  
                                   _lowpowerActivated 0052                                 ??_EUSART_Transmit_ISR 0070  
                    MTOUCH_Sensor_isCalibrated@sensor 0076                                ??_Sensor_Sampled_Reset 0071  
                                          __pbssBANK0 0049                                            __pbssBANK1 00C4  
                                __end_of_EUSART_Write 0C3F                               _TMR2_LoadPeriodRegister 081E  
                        Sensor_loadADCSettings@sensor 0079                                   ?_Sensor_setInactive 0070  
                                    _Sensor_setActive 0863                           __size_of_EUSART_Receive_ISR 0039  
             __end_of_Proximity_Reading_Update_Helper 0E92              __size_of_Proximity_Reading_Update_Helper 006D  
                   ??_Proximity_Reading_Update_Helper 0020                      ?_Proximity_Reading_Update_Helper 0070  
                     _Proximity_Reading_Update_Helper 0E25           Sensor_Acq_ExecutePacket@sensor2ForceEnabled 0025  
                              ??_Sensor_setCalibrated 0071                                            __pmaintext 0B17  
                                             ?___bmul 0071                         ?_EUSART_SetTxInterruptHandler 0071  
                    _EUSART_TxDefaultInterruptHandler 00E4                                               _AD1CON0 0711  
                                             _AD1CON2 0713                                               _AD1CON3 0714  
                                             _AD2CON0 0791                                               _AD2CON2 0793  
                                             _AD2CON3 0794                                               _AAD1CAP 0719  
                                             _AAD1GRD 0718                                               _AAD2GRD 0798  
                     ??_Proximity_Baseline_Initialize 0020                        MTOUCH_Sensor_wasSampled@sensor 0076  
                                          __pintentry 0004                   Proximity_Deviation_Update@deviation 002F  
                                             ?_memcpy 0071                                               _BAUDCON 019F  
                                           _AD1ACQCON 0717                                             _AD2ACQCON 0797  
                        ?_MTOUCH_Proximity_Initialize 0070                          ??_EUSART_DefaultErrorHandler 0071  
                 __end_of_MTOUCH_Sensor_InitializeAll 08D7                           _MTOUCH_Sensor_InitializeAll 08C8  
                  MTOUCH_Proximity_Deviation_Get@name 0071                             ??_MTOUCH_Sensor_SampleAll 0046  
                     __end_of_Sensor_RawSample_Update 0C15                                  ??_Sensor_setInactive 0071  
                   __size_of_MTOUCH_Sensor_wasSampled 000F                             ?_MTOUCH_Sensor_wasSampled 0070  
                                       _eusartRxCount 0054                                             _AD1PRECON 0716  
                           Sensor_isCalibrated@sensor 0071                                             _AD2PRECON 0796  
                              __end_of_Sensor_Service 0698                      MTOUCH_Proximity_Scaling_Get@name 0071  
                             Sensor_Service@scanGroup 0042                        __size_of_Proximity_Tick_helper 0027  
                       __end_of_Proximity_Tick_helper 0BED                             __end_of_sensor_scan_group 1019  
                       __size_of_EUSART_RxDataHandler 001A                      __size_of_MTOUCH_Service_Mainloop 0022  
                             __size_of_TMR2_StopTimer 0003                              ??_EUSART_SetErrorHandler 0073  
                                    ?_TMR2_StartTimer 0070                       Sensor_setCalibratAcqTime@sensor 0071  
                  __size_of_Proximity_State_Activated 007C                                  __size_of_MTOUCH_Tick 0004  
                 Sensor_loadADCSettings@addressOffset 0078                  __size_of_Sensor_isCalibratingAcqTime 0008  
               Sensor_Acq_ExecutePacket@ADCOMCON_temp 0021                                     ??_Sensor_isActive 0071  
                 __size_of_EUSART_DefaultErrorHandler 0004                          ?_MTOUCH_DataStreamer_Service 0070  
               __end_of_Sensor_postAcquisitionProcess 0D41                __size_of_Sensor_postAcquisitionProcess 003D  
                       _Sensor_postAcquisitionProcess 0D04                               Sensor_Acquisition@retry 003D  
                                     __size_of___bmul 0015                  __end_of_Proximity_State_Initializing 07F9  
               __size_of_Proximity_State_Initializing 0044                          _Proximity_State_Initializing 07B5  
                                         _AD1CON0bits 0711                                               ___awmod 0DD2  
                                         _AD2CON0bits 0791                 __end_of_MTOUCH_Proximity_Baseline_Get 0ABA  
              __size_of_MTOUCH_Proximity_Baseline_Get 001E                         _MTOUCH_Proximity_Baseline_Get 0A9C  
                        ?_MTOUCH_Proximity_ServiceAll 0070            Sensor_Scanfrequency_Evaluation@sensor_adc1 0031  
          Sensor_Scanfrequency_Evaluation@sensor_adc2 002E                                       __size_of_memcpy 002E  
                                             __ptext1 0984                                               __ptext2 0815  
                                             __ptext3 0880                                               __ptext4 0A81  
                                             __ptext5 0851                                               __ptext6 08E7  
                                             __ptext7 08C8                                               __ptext8 09D6  
                                             __ptext9 0971                         ??_MTOUCH_Proximity_Initialize 0071  
                            _MTOUCH_Sensor_Initialize 09D6                                 _OSCILLATOR_Initialize 0851  
                                           _T2CONbits 001C                                          __size_of_abs 001A  
                                     ?_Sensor_Service 0070                                      ___awmod@dividend 0073  
                            ??_PIN_MANAGER_Initialize 0071                           __size_of_MTOUCH_needReburst 0002  
                   MTOUCH_Sensor_InitializeAll@sensor 007A                            ??_datastreamer_output_byte 0073  
                            _Sensor_Acq_ExecutePacket 005D                                      _callback_sampled 006C  
                           ??_TMR2_LoadPeriodRegister 0071                       Sensor_RawSample_Update@adcIndex 0076  
                          __size_of_SYSTEM_Initialize 0013                                               clrloop0 0858  
                      MTOUCH_Sensor_Initialize@sensor 0078                                  end_of_initialization 0059  
               __end_of_EUSART_SetOverrunErrorHandler 0845                __size_of_EUSART_SetOverrunErrorHandler 0006  
                       _EUSART_SetOverrunErrorHandler 083F                                               memcpy@d 007A  
                                             memcpy@n 0073                                               memcpy@s 0076  
                                             init_ram 085D                                               initloop 085E  
                   Proximity_Baseline_Initialize@prox 0079                               ?_Sensor_DefaultCallback 0071  
                       Sensor_Acquisition@sensor_adc1 003E                         Sensor_Acquisition@sensor_adc2 003B  
                                   _EUSART_Initialize 0D41                          ??_MTOUCH_Sensor_isCalibrated 0075  
                                  ?_EUSART_Initialize 0070                             Proximity_Tick_helper@prox 0073  
                 __end_of_MTOUCH_Sensor_RawSample_Get 0A34                           _MTOUCH_Sensor_RawSample_Get 0A1B  
                                           _RCSTAbits 019D                         ??_MTOUCH_DataStreamer_Service 0025  
                __end_of_Proximity_State_NotActivated 046E                 __size_of_Proximity_State_NotActivated 00D5  
                        _Proximity_State_NotActivated 0399                         ?_Proximity_State_Initializing 0025  
                                 ??_EUSART_Initialize 0073                                      ??_WDT_Initialize 0071  
                      ??_EUSART_SetTxInterruptHandler 0073                    __size_of_Proximity_DefaultCallback 0001  
                       ??_MTOUCH_Proximity_ServiceAll 007C                                Sensor_setActive@sensor 0071  
                                    __CFG_FOSC$INTOSC 0000     Sensor_Scanfrequency_Evaluation@best_sample_period 0034  
                Sensor_Acq_ExecutePacket@AD1CON2_temp 0022                                 __size_of_EUSART_Write 002A  
                          MTOUCH_Sensor_Enable@sensor 0076                  Sensor_Acq_ExecutePacket@AD2CON2_temp 0023  
                               _mtouch_proximity_init 1000                   __size_of_MTOUCH_Sensor_isCalibrated 0017  
                     __size_of_EUSART_SetErrorHandler 0006       Sensor_Scanfrequency_Evaluation@packet_noise_Max 0032  
                    Proximity_State_NotActivated@prox 0025                                    _sensor_globalFlags 0051  
                            __end_of_Sensor_isEnabled 095E                            Sensor_setCalibrated@sensor 0071  
                      __end_of_Sensor_DefaultCallback 0802                  __size_of_MTOUCH_Proximity_Initialize 0027  
                           __end_of_EUSART_Initialize 0D80                              ??_Sensor_autoCalibration 0075  
                          _Sensor_loadADCSettings$743 0076                               ??_MTOUCH_Proximity_Tick 0074  
                                           _TXSTAbits 019E                      __size_of_Sensor_RawSample_Update 0028  
                                  _Sensor_Acquisition 0E92                              ??_Sensor_loadADCSettings 0073  
                                      __end_of___bmul 09AC                    __end_of_EUSART_DefaultErrorHandler 080D  
                          _EUSART_DefaultErrorHandler 0809                                   ?_Sensor_Acquisition 003B  
                     ??_MTOUCH_Sensor_Scan_Initialize 0071                        ?_Sensor_postAcquisitionProcess 0070  
                       ?_Proximity_State_NotActivated 0025                                          _EUSART_Write 0C15  
                                      __end_of_memcpy 0C98                                ?_OSCILLATOR_Initialize 0070  
                            __end_of_Sensor_setActive 086A                      TMR2_LoadPeriodRegister@periodVal 0071  
                      ?_MTOUCH_Proximity_Baseline_Get 0020                                   start_initialization 0030  
                             _MTOUCH_Service_Mainloop 0B59                      ??_MTOUCH_Proximity_InitializeAll 007B  
                     ?_MTOUCH_Proximity_InitializeAll 0070                                _Proximity_StateMachine 00B3  
                     __size_of_PIN_MANAGER_Initialize 001B                                           __end_of_abs 0A81  
                __size_of_MTOUCH_DataStreamer_Service 00C8                                        _TMR2_StopTimer 0806  
        EUSART_SetRxInterruptHandler@interruptHandler 0071          EUSART_SetTxInterruptHandler@interruptHandler 0071  
                                ??_Sensor_Acquisition 003C                  __size_of_MTOUCH_Proximity_ServiceAll 0005  
                      Sensor_autoCalibration@adcIndex 0079                        ?_EUSART_SetOverrunErrorHandler 0071  
                    __end_of_MTOUCH_Sensor_wasSampled 08B9                          ??_Proximity_Deviation_Update 0025  
                        __end_of_MTOUCH_Sensor_Enable 0984                                          _packet_noise 004D  
                          _EUSART_FramingErrorHandler 00E0                                              ??___bmul 0072  
                              _EUSART_SetErrorHandler 0833                                           __pdataBANK0 006A  
                                         __pdataBANK1 00A0                                              ??_memcpy 0075  
                         __end_of_Sensor_isCalibrated 0891                                         _sample_period 006E  
              __end_of_MTOUCH_DataStreamer_Initialize 0803               __size_of_MTOUCH_DataStreamer_Initialize 0001  
                      _MTOUCH_DataStreamer_Initialize 0802                            Sensor_Sampled_Reset@sensor 0071  
                        ?_Sensor_isCalibratingAcqTime 0070                           __end_of_EUSART_Transmit_ISR 0B59  
                      ??_Proximity_State_Initializing 0026                                __end_of_TMR2_StopTimer 0809  
                   __size_of_Proximity_Reading_Update 0011                                           __pbssCOMMON 007C  
                           ?_Proximity_Reading_Update 0070                                             ___latbits 0002  
                               Proximity_Service@name 0034                                         __pcstackBANK0 0020  
                               Proximity_Service@prox 0035                      __end_of_datastreamer_output_byte 0833  
                            __size_of_TMR2_Initialize 0008                  __end_of_MTOUCH_Proximity_Reading_Get 0AF7  
               __size_of_MTOUCH_Proximity_Reading_Get 001F                          _MTOUCH_Proximity_Reading_Get 0AD8  
                                     _Sensor_isActive 08B9                                   Sensor_Service@error 0043  
                          __end_of_EUSART_Receive_ISR 0D04                         __size_of_Sensor_Sampled_Reset 0007  
                          __size_of_EUSART_Initialize 003F                  __end_of_MTOUCH_Proximity_Scaling_Get 0919  
               __size_of_MTOUCH_Proximity_Scaling_Get 0011                          _MTOUCH_Proximity_Scaling_Get 0908  
                          ?_Sensor_setCalibratAcqTime 0070                      _EUSART_RxDefaultInterruptHandler 00E2  
                        Proximity_Reading_Update@prox 007A                    __end_of_MTOUCH_Sensor_isCalibrated 0A03  
                          _MTOUCH_Sensor_isCalibrated 09EC                                             __pnvBANK0 006F  
                                           __pnvBANK1 00DC                       __size_of_Sensor_autoCalibration 0098  
                   __size_of_Sensor_getScanGroupIndex 0033                                     _Sensor_setSampled 0871  
                           ?_Sensor_getScanGroupIndex 0070                          __end_of_EUSART_RxDataHandler 0A67  
                              _PIN_MANAGER_Initialize 0A81                              ?_MTOUCH_Sensor_Calibrate 0070  
                                  ?_Sensor_setSampled 0070                            ??_MTOUCH_Sensor_Initialize 0077  
                       __size_of_Sensor_setCalibrated 000C                                              ?___awmod 0071  
                     __size_of_Sensor_loadADCSettings 00C7                                              _AAD1CON2 0713  
                                            _AAD1CON3 0714                                              _AAD2CON3 0794  
                                            _AAD1RES0 071A                                          _eusartRxHead 007C  
                                            _AAD2RES0 079A                                          _eusartTxHead 0057  
                                        _eusartRxTail 0055                                          _eusartTxTail 0056  
                                    ??_Sensor_Service 003F                            ??_Sensor_Acq_ExecutePacket 0020  
                        ??_INTERRUPT_InterruptManager 0071                                   ??_Sensor_setSampled 0071  
                           ??_MTOUCH_Service_Mainloop 0048                                    _callback_activated 006A  
                          ?_Proximity_Baseline_Update 0070                                              _ADCOMCON 0712  
                             _eusartTxBufferRemaining 006F                           __size_of_Sensor_setInactive 0007  
                      Sensor_Acq_ExecutePacket@last_a 0028                        Sensor_Acq_ExecutePacket@last_b 002A  
                                     ?_TMR2_StopTimer 0070                         ??_Sensor_isCalibratingAcqTime 0071  
                      ??_Proximity_State_NotActivated 0026                                         ??_MTOUCH_Tick 0074  
                               _Proximity_Tick_helper 0BC6                   Proximity_Reading_Update_Helper@prox 0079  
                       ?_MTOUCH_Proximity_Reading_Get 0071                    MTOUCH_Proximity_Threshold_Get@name 0071  
                                      _eusartRxBuffer 00CC                                        _eusartTxBuffer 00D4  
                           __end_of_Sensor_setSampled 0878                EUSART_SetErrorHandler@interruptHandler 0071  
                                            _LATCbits 010E                               _Sensor_RawSample_Update 0BED  
                   __end_of_Sensor_setCalibratAcqTime 08AA                                             clear_ram0 0857  
                       ?_MTOUCH_Proximity_Scaling_Get 0070                                              _PIE1bits 0091  
                                   _eusartRxLastError 0053                              __size_of_TMR2_StartTimer 0003  
                 __size_of_INTERRUPT_InterruptManager 002A                                              _PIR1bits 0011  
                     ??_EUSART_SetFramingErrorHandler 0073                Sensor_Acq_ExecutePacket@packet_counter 002C  
                                            _PIR2bits 0012                __end_of_MTOUCH_Sensor_Sampled_ResetAll 0AD8  
             __size_of_MTOUCH_Sensor_Sampled_ResetAll 001E                        _MTOUCH_Sensor_Sampled_ResetAll 0ABA  
                            ?_MTOUCH_Sensor_SampleAll 0070             __end_of_EUSART_DefaultOverrunErrorHandler 0811  
          __size_of_EUSART_DefaultOverrunErrorHandler 0004                   ??_EUSART_DefaultOverrunErrorHandler 0070  
                  ?_EUSART_DefaultOverrunErrorHandler 0070                     _EUSART_DefaultOverrunErrorHandler 080D  
                   Proximity_Baseline_Get_helper@name 0079                    Sensor_Acq_ExecutePacket@ADxIF_flag 0026  
                            _MTOUCH_Sensor_wasSampled 08AA                                    _mtouch_time_toScan 004F  
                 MTOUCH_Sensor_AdditionalCap_Get@name 0076                __end_of_MTOUCH_Proximity_Deviation_Get 0908  
             __size_of_MTOUCH_Proximity_Deviation_Get 0011                        _MTOUCH_Proximity_Deviation_Get 08F7  
                       Proximity_DefaultCallback@name 0071                               __end_of_Sensor_isActive 08C8  
                              _Sensor_autoCalibration 0698                     __end_of_Proximity_Baseline_Update 07B5  
                          __end_of_MTOUCH_needReburst 0004                                _Sensor_loadADCSettings 0536  
                                _MTOUCH_Sensor_Enable 0971                                     ?_Sensor_isEnabled 0070  
                                   ??_TMR2_Initialize 0071                                   __end_of_MTOUCH_Tick 0815  
                                   _MTOUCH_Initialize 08E7                       __end_of_MTOUCH_Sensor_Calibrate 0971  
                          ?_Proximity_State_Activated 0025                                    ??_Sensor_isEnabled 0071  
                  __end_of_Proximity_Deviation_Update 0399                            _Proximity_Deviation_Update 0281  
                                  ?_MTOUCH_Initialize 0070                        __size_of_MTOUCH_Proximity_Tick 0005  
                       __end_of_MTOUCH_Proximity_Tick 0828                Sensor_postAcquisitionProcess@deviation 0076  
                                           memcpy@tmp 0078                     __size_of_datastreamer_output_byte 0006  
                           ?_datastreamer_output_byte 0070                                            _APFCONbits 011D  
                             ??_OSCILLATOR_Initialize 0071                                   _EUSART_ErrorHandler 00DC  
                                 ??_MTOUCH_Initialize 007B                                      __size_of___awmod 0053  
                 __end_of_MTOUCH_Proximity_Initialize 0BC6                           _MTOUCH_Proximity_Initialize 0B9F  
                         ?_EUSART_DefaultErrorHandler 0070               __end_of_MTOUCH_Sensor_AdditionalCap_Get 09D6  
            __size_of_MTOUCH_Sensor_AdditionalCap_Get 0015                     ??_MTOUCH_Sensor_AdditionalCap_Get 0075  
                    ?_MTOUCH_Sensor_AdditionalCap_Get 0070                       _MTOUCH_Sensor_AdditionalCap_Get 09C1  
                    MTOUCH_Proximity_Reading_Get@name 0076                                     ?_Sensor_setActive 0070  
                            ?_TMR2_LoadPeriodRegister 0070                                 Sensor_isActive@sensor 0071  
                Sensor_Scanfrequency_Evaluation@retry 0035                                    ??_Sensor_setActive 0071  
                                _EUSART_RxDataHandler 0A4D                                ?_Proximity_Tick_helper 0070  
                               ?_MTOUCH_Sensor_Enable 0070                                              __ptext10 095E  
                                            __ptext11 093B                                              __ptext20 0B59  
                                            __ptext12 0C6A                                              __ptext21 0002  
                                            __ptext13 0802                                              __ptext30 0BED  
                                            __ptext22 0811                                              __ptext14 0D41  
                                            __ptext31 0801                                              __ptext23 0823  
                                            __ptext15 084B                                              __ptext40 081E  
                                            __ptext32 0E92                                              __ptext24 0BC6  
                                            __ptext16 0845                                              __ptext41 0536  
                                            __ptext33 0D04                                              __ptext25 0ABA  
                                            __ptext17 083F                                              __ptext50 0C98  
                                            __ptext42 0888                                              __ptext34 086A  
                                            __ptext26 07F9                                              __ptext18 0839  
                                            __ptext51 08D7                                              __ptext43 094C  
                                            __ptext35 0863                                              __ptext27 0A34  
                                            __ptext19 0833                                              __ptext60 0B9F  
                                            __ptext52 0819                                              __ptext44 08B9  
                                            __ptext36 0F7F                                              __ptext28 05FD  
                                            __ptext61 092A                                              __ptext53 0D80  
                                            __ptext45 0698                                              __ptext37 005D  
                                            __ptext29 0871                                              __ptext70 0DD2  
                                            __ptext62 0E25                                              __ptext54 0F03  
                                            __ptext46 0A67                                              __ptext38 0806  
                                            __ptext71 09C1                                              __ptext63 0A1B  
                                            __ptext55 07B5                                              __ptext47 0891  
                                            __ptext39 0803                                              __ptext80 0AF7  
                                            __ptext72 09AC                                              __ptext64 0281  
                                            __ptext56 0399                                              __ptext48 089D  
                                            __ptext73 0997                                              __ptext65 08AA  
                                            __ptext57 0730                                              __ptext49 0878  
                                            __ptext82 0B37                                              __ptext74 0A03  
                                            __ptext66 09EC                                              __ptext58 0C3F  
                                            __ptext83 0CCB                                              __ptext75 0919  
                                            __ptext67 046E                                              __ptext59 0800  
                                            __ptext84 080D                                              __ptext76 0908  
                                            __ptext68 082D                                              __ptext85 17FF  
                                            __ptext77 0AD8                                              __ptext69 0C15  
                                            __ptext86 0809                                              __ptext78 08F7  
                                            __ptext87 0A4D                                              __ptext79 0A9C  
               __end_of_Proximity_Baseline_Get_helper 0B17                __size_of_Proximity_Baseline_Get_helper 0020  
                       _Proximity_Baseline_Get_helper 0AF7                             __end_of_MTOUCH_Initialize 08F7  
                           ??_Sensor_RawSample_Update 0075                            __size_of_Sensor_setSampled 0007  
                                       __size_of_main 0020                        ??_MTOUCH_Proximity_Reading_Get 0076  
                     ??_MTOUCH_Proximity_Baseline_Get 007A                       __end_of_MTOUCH_Sensor_SampleAll 0A4D  
                    Sensor_Scanfrequency_Evaluation@i 003A                     __end_of_Proximity_State_Activated 0F7F  
                             ?_EUSART_SetErrorHandler 0071                   __end_of_MTOUCH_DataStreamer_Service 0536  
                         _MTOUCH_DataStreamer_Service 046E                   MTOUCH_DataStreamer_Service@sequence 0050  
       EUSART_SetOverrunErrorHandler@interruptHandler 0071                      __end_of_Proximity_Reading_Update 093B  
                      ??_MTOUCH_Proximity_Scaling_Get 0071                                              int$flags 007E  
                 __end_of_MTOUCH_Proximity_ServiceAll 081E                           _MTOUCH_Proximity_ServiceAll 0819  
                                   ??_TMR2_StartTimer 0071                    __end_of_INTERRUPT_InterruptManager 002E  
                          _INTERRUPT_InterruptManager 0004                 __end_of_EUSART_SetFramingErrorHandler 083F  
              __size_of_EUSART_SetFramingErrorHandler 0006                         _EUSART_SetFramingErrorHandler 0839  
                        MTOUCH_Sensor_SampleAll@group 0047                          ?_MTOUCH_Sensor_InitializeAll 0070  
                                    ?_Sensor_isActive 0070                __end_of_MTOUCH_Proximity_Threshold_Get 092A  
             __size_of_MTOUCH_Proximity_Threshold_Get 0011                        _MTOUCH_Proximity_Threshold_Get 0919  
                                          _INTCONbits 000B                                 ?_EUSART_RxDataHandler 0070  
                                       _mtouch_sensor 00BB                                              memcpy@d1 0079  
               __end_of_Proximity_Baseline_Initialize 0C6A                __size_of_Proximity_Baseline_Initialize 002B  
                       _Proximity_Baseline_Initialize 0C3F                                              memcpy@s1 0071  
                          ?_Proximity_DefaultCallback 0071                      __end_of_Sensor_getScanGroupIndex 0CCB  
                                   __CFG_BOREN$NSLEEP 0000                                           _MTOUCH_Tick 0811  
                             __size_of_WDT_Initialize 0004                                              intlevel1 0000  
                    ??_MTOUCH_DataStreamer_Initialize 0071                       ?_MTOUCH_DataStreamer_Initialize 0070  
                         __size_of_Sensor_Acquisition 0071               __end_of_Sensor_Scanfrequency_Evaluation 1000  
            __size_of_Sensor_Scanfrequency_Evaluation 0081                     ??_Sensor_Scanfrequency_Evaluation 002F  
                    ?_Sensor_Scanfrequency_Evaluation 002E                       _Sensor_Scanfrequency_Evaluation 0F7F  
                             ?_PIN_MANAGER_Initialize 0070                           ??_Sensor_setCalibratAcqTime 0071  
                      __end_of_EUSART_SetErrorHandler 0839                                     __CFG_CLKOUTEN$OFF 0000  
                         ?_MTOUCH_Sensor_isCalibrated 0070                  __end_of_EUSART_SetRxInterruptHandler 084B  
               __size_of_EUSART_SetRxInterruptHandler 0006                          _EUSART_SetRxInterruptHandler 0845  
                                  _EUSART_Receive_ISR 0CCB         EUSART_SetFramingErrorHandler@interruptHandler 0071  
                        __end_of_Sensor_Sampled_Reset 0800                                 _callback_notActivated 00B9  
                                    ??_TMR2_StopTimer 0071                       __end_of_TMR2_LoadPeriodRegister 0823  
                                       __pstringtext1 1012                                         __pstringtext2 1017  
                                       __pstringtext3 1000                           ??_Proximity_Baseline_Update 0071  
                                 ?_EUSART_Receive_ISR 0070                         ??_MTOUCH_Sensor_InitializeAll 0079  
                Sensor_Acq_ExecutePacket@activeSensor 0027                      __size_of_MTOUCH_Sensor_Calibrate 0013  
                              ??_MTOUCH_Sensor_Enable 0075                     Sensor_isCalibratingAcqTime@sensor 0071  
                        __size_of_Sensor_isCalibrated 0009                              ??_Sensor_DefaultCallback 0072  
                        __end_of_Sensor_setCalibrated 089D                     __end_of_Proximity_DefaultCallback 0801  
                        MTOUCH_DataStreamer_Service@i 0027                                    EUSART_Write@txData 0072  
                        __size_of_EUSART_Transmit_ISR 0022                            __size_of_MTOUCH_Initialize 0010  
                      __end_of_PIN_MANAGER_Initialize 0A9C                     MTOUCH_Proximity_Baseline_Get@name 007A  
                                ??_EUSART_Receive_ISR 0071                            ??_MTOUCH_Sensor_wasSampled 0075  
                       Proximity_Baseline_Update@prox 0075                        ?_Proximity_Baseline_Get_helper 0071  
